
05_FreeRTOSv2_Velostat_Queue_FingerControl.elf:     file format elf32-littlearm

Sections:
Idx Name          Size      VMA       LMA       File off  Algn
  0 .isr_vector   0000010c  08000000  08000000  00010000  2**0
                  CONTENTS, ALLOC, LOAD, READONLY, DATA
  1 .text         00007ae0  08000110  08000110  00010110  2**4
                  CONTENTS, ALLOC, LOAD, READONLY, CODE
  2 .rodata       000003d8  08007bf0  08007bf0  00017bf0  2**2
                  CONTENTS, ALLOC, LOAD, READONLY, DATA
  3 .ARM.extab    00000000  08007fc8  08007fc8  00020038  2**0
                  CONTENTS
  4 .ARM          00000000  08007fc8  08007fc8  00020038  2**0
                  CONTENTS
  5 .preinit_array 00000000  08007fc8  08007fc8  00020038  2**0
                  CONTENTS, ALLOC, LOAD, DATA
  6 .init_array   00000004  08007fc8  08007fc8  00017fc8  2**2
                  CONTENTS, ALLOC, LOAD, DATA
  7 .fini_array   00000004  08007fcc  08007fcc  00017fcc  2**2
                  CONTENTS, ALLOC, LOAD, DATA
  8 .data         00000038  20000000  08007fd0  00020000  2**2
                  CONTENTS, ALLOC, LOAD, DATA
  9 .bss          00004560  20000038  08008008  00020038  2**2
                  ALLOC
 10 ._user_heap_stack 00000600  20004598  08008008  00024598  2**0
                  ALLOC
 11 .ARM.attributes 00000029  00000000  00000000  00020038  2**0
                  CONTENTS, READONLY
 12 .comment      00000053  00000000  00000000  00020061  2**0
                  CONTENTS, READONLY
 13 .debug_frame  000001ac  00000000  00000000  000200b4  2**2
                  CONTENTS, READONLY, DEBUGGING, OCTETS

Disassembly of section .text:

08000110 <__do_global_dtors_aux>:
 8000110:	b510      	push	{r4, lr}
 8000112:	4c05      	ldr	r4, [pc, #20]	; (8000128 <__do_global_dtors_aux+0x18>)
 8000114:	7823      	ldrb	r3, [r4, #0]
 8000116:	b933      	cbnz	r3, 8000126 <__do_global_dtors_aux+0x16>
 8000118:	4b04      	ldr	r3, [pc, #16]	; (800012c <__do_global_dtors_aux+0x1c>)
 800011a:	b113      	cbz	r3, 8000122 <__do_global_dtors_aux+0x12>
 800011c:	4804      	ldr	r0, [pc, #16]	; (8000130 <__do_global_dtors_aux+0x20>)
 800011e:	f3af 8000 	nop.w
 8000122:	2301      	movs	r3, #1
 8000124:	7023      	strb	r3, [r4, #0]
 8000126:	bd10      	pop	{r4, pc}
 8000128:	20000038 	.word	0x20000038
 800012c:	00000000 	.word	0x00000000
 8000130:	08007bd8 	.word	0x08007bd8

08000134 <frame_dummy>:
 8000134:	b508      	push	{r3, lr}
 8000136:	4b03      	ldr	r3, [pc, #12]	; (8000144 <frame_dummy+0x10>)
 8000138:	b11b      	cbz	r3, 8000142 <frame_dummy+0xe>
 800013a:	4903      	ldr	r1, [pc, #12]	; (8000148 <frame_dummy+0x14>)
 800013c:	4803      	ldr	r0, [pc, #12]	; (800014c <frame_dummy+0x18>)
 800013e:	f3af 8000 	nop.w
 8000142:	bd08      	pop	{r3, pc}
 8000144:	00000000 	.word	0x00000000
 8000148:	2000003c 	.word	0x2000003c
 800014c:	08007bd8 	.word	0x08007bd8

08000150 <__aeabi_fmul>:
 8000150:	f04f 0cff 	mov.w	ip, #255	; 0xff
 8000154:	ea1c 52d0 	ands.w	r2, ip, r0, lsr #23
 8000158:	bf1e      	ittt	ne
 800015a:	ea1c 53d1 	andsne.w	r3, ip, r1, lsr #23
 800015e:	ea92 0f0c 	teqne	r2, ip
 8000162:	ea93 0f0c 	teqne	r3, ip
 8000166:	d06f      	beq.n	8000248 <__aeabi_fmul+0xf8>
 8000168:	441a      	add	r2, r3
 800016a:	ea80 0c01 	eor.w	ip, r0, r1
 800016e:	0240      	lsls	r0, r0, #9
 8000170:	bf18      	it	ne
 8000172:	ea5f 2141 	movsne.w	r1, r1, lsl #9
 8000176:	d01e      	beq.n	80001b6 <__aeabi_fmul+0x66>
 8000178:	f04f 6300 	mov.w	r3, #134217728	; 0x8000000
 800017c:	ea43 1050 	orr.w	r0, r3, r0, lsr #5
 8000180:	ea43 1151 	orr.w	r1, r3, r1, lsr #5
 8000184:	fba0 3101 	umull	r3, r1, r0, r1
 8000188:	f00c 4000 	and.w	r0, ip, #2147483648	; 0x80000000
 800018c:	f5b1 0f00 	cmp.w	r1, #8388608	; 0x800000
 8000190:	bf3e      	ittt	cc
 8000192:	0049      	lslcc	r1, r1, #1
 8000194:	ea41 71d3 	orrcc.w	r1, r1, r3, lsr #31
 8000198:	005b      	lslcc	r3, r3, #1
 800019a:	ea40 0001 	orr.w	r0, r0, r1
 800019e:	f162 027f 	sbc.w	r2, r2, #127	; 0x7f
 80001a2:	2afd      	cmp	r2, #253	; 0xfd
 80001a4:	d81d      	bhi.n	80001e2 <__aeabi_fmul+0x92>
 80001a6:	f1b3 4f00 	cmp.w	r3, #2147483648	; 0x80000000
 80001aa:	eb40 50c2 	adc.w	r0, r0, r2, lsl #23
 80001ae:	bf08      	it	eq
 80001b0:	f020 0001 	biceq.w	r0, r0, #1
 80001b4:	4770      	bx	lr
 80001b6:	f090 0f00 	teq	r0, #0
 80001ba:	f00c 4c00 	and.w	ip, ip, #2147483648	; 0x80000000
 80001be:	bf08      	it	eq
 80001c0:	0249      	lsleq	r1, r1, #9
 80001c2:	ea4c 2050 	orr.w	r0, ip, r0, lsr #9
 80001c6:	ea40 2051 	orr.w	r0, r0, r1, lsr #9
 80001ca:	3a7f      	subs	r2, #127	; 0x7f
 80001cc:	bfc2      	ittt	gt
 80001ce:	f1d2 03ff 	rsbsgt	r3, r2, #255	; 0xff
 80001d2:	ea40 50c2 	orrgt.w	r0, r0, r2, lsl #23
 80001d6:	4770      	bxgt	lr
 80001d8:	f440 0000 	orr.w	r0, r0, #8388608	; 0x800000
 80001dc:	f04f 0300 	mov.w	r3, #0
 80001e0:	3a01      	subs	r2, #1
 80001e2:	dc5d      	bgt.n	80002a0 <__aeabi_fmul+0x150>
 80001e4:	f112 0f19 	cmn.w	r2, #25
 80001e8:	bfdc      	itt	le
 80001ea:	f000 4000 	andle.w	r0, r0, #2147483648	; 0x80000000
 80001ee:	4770      	bxle	lr
 80001f0:	f1c2 0200 	rsb	r2, r2, #0
 80001f4:	0041      	lsls	r1, r0, #1
 80001f6:	fa21 f102 	lsr.w	r1, r1, r2
 80001fa:	f1c2 0220 	rsb	r2, r2, #32
 80001fe:	fa00 fc02 	lsl.w	ip, r0, r2
 8000202:	ea5f 0031 	movs.w	r0, r1, rrx
 8000206:	f140 0000 	adc.w	r0, r0, #0
 800020a:	ea53 034c 	orrs.w	r3, r3, ip, lsl #1
 800020e:	bf08      	it	eq
 8000210:	ea20 70dc 	biceq.w	r0, r0, ip, lsr #31
 8000214:	4770      	bx	lr
 8000216:	f092 0f00 	teq	r2, #0
 800021a:	f000 4c00 	and.w	ip, r0, #2147483648	; 0x80000000
 800021e:	bf02      	ittt	eq
 8000220:	0040      	lsleq	r0, r0, #1
 8000222:	f410 0f00 	tsteq.w	r0, #8388608	; 0x800000
 8000226:	3a01      	subeq	r2, #1
 8000228:	d0f9      	beq.n	800021e <__aeabi_fmul+0xce>
 800022a:	ea40 000c 	orr.w	r0, r0, ip
 800022e:	f093 0f00 	teq	r3, #0
 8000232:	f001 4c00 	and.w	ip, r1, #2147483648	; 0x80000000
 8000236:	bf02      	ittt	eq
 8000238:	0049      	lsleq	r1, r1, #1
 800023a:	f411 0f00 	tsteq.w	r1, #8388608	; 0x800000
 800023e:	3b01      	subeq	r3, #1
 8000240:	d0f9      	beq.n	8000236 <__aeabi_fmul+0xe6>
 8000242:	ea41 010c 	orr.w	r1, r1, ip
 8000246:	e78f      	b.n	8000168 <__aeabi_fmul+0x18>
 8000248:	ea0c 53d1 	and.w	r3, ip, r1, lsr #23
 800024c:	ea92 0f0c 	teq	r2, ip
 8000250:	bf18      	it	ne
 8000252:	ea93 0f0c 	teqne	r3, ip
 8000256:	d00a      	beq.n	800026e <__aeabi_fmul+0x11e>
 8000258:	f030 4c00 	bics.w	ip, r0, #2147483648	; 0x80000000
 800025c:	bf18      	it	ne
 800025e:	f031 4c00 	bicsne.w	ip, r1, #2147483648	; 0x80000000
 8000262:	d1d8      	bne.n	8000216 <__aeabi_fmul+0xc6>
 8000264:	ea80 0001 	eor.w	r0, r0, r1
 8000268:	f000 4000 	and.w	r0, r0, #2147483648	; 0x80000000
 800026c:	4770      	bx	lr
 800026e:	f090 0f00 	teq	r0, #0
 8000272:	bf17      	itett	ne
 8000274:	f090 4f00 	teqne	r0, #2147483648	; 0x80000000
 8000278:	4608      	moveq	r0, r1
 800027a:	f091 0f00 	teqne	r1, #0
 800027e:	f091 4f00 	teqne	r1, #2147483648	; 0x80000000
 8000282:	d014      	beq.n	80002ae <__aeabi_fmul+0x15e>
 8000284:	ea92 0f0c 	teq	r2, ip
 8000288:	d101      	bne.n	800028e <__aeabi_fmul+0x13e>
 800028a:	0242      	lsls	r2, r0, #9
 800028c:	d10f      	bne.n	80002ae <__aeabi_fmul+0x15e>
 800028e:	ea93 0f0c 	teq	r3, ip
 8000292:	d103      	bne.n	800029c <__aeabi_fmul+0x14c>
 8000294:	024b      	lsls	r3, r1, #9
 8000296:	bf18      	it	ne
 8000298:	4608      	movne	r0, r1
 800029a:	d108      	bne.n	80002ae <__aeabi_fmul+0x15e>
 800029c:	ea80 0001 	eor.w	r0, r0, r1
 80002a0:	f000 4000 	and.w	r0, r0, #2147483648	; 0x80000000
 80002a4:	f040 40fe 	orr.w	r0, r0, #2130706432	; 0x7f000000
 80002a8:	f440 0000 	orr.w	r0, r0, #8388608	; 0x800000
 80002ac:	4770      	bx	lr
 80002ae:	f040 40fe 	orr.w	r0, r0, #2130706432	; 0x7f000000
 80002b2:	f440 0040 	orr.w	r0, r0, #12582912	; 0xc00000
 80002b6:	4770      	bx	lr

080002b8 <__aeabi_frsub>:
 80002b8:	f080 4000 	eor.w	r0, r0, #2147483648	; 0x80000000
 80002bc:	e002      	b.n	80002c4 <__addsf3>
 80002be:	bf00      	nop

080002c0 <__aeabi_fsub>:
 80002c0:	f081 4100 	eor.w	r1, r1, #2147483648	; 0x80000000

080002c4 <__addsf3>:
 80002c4:	0042      	lsls	r2, r0, #1
 80002c6:	bf1f      	itttt	ne
 80002c8:	ea5f 0341 	movsne.w	r3, r1, lsl #1
 80002cc:	ea92 0f03 	teqne	r2, r3
 80002d0:	ea7f 6c22 	mvnsne.w	ip, r2, asr #24
 80002d4:	ea7f 6c23 	mvnsne.w	ip, r3, asr #24
 80002d8:	d06a      	beq.n	80003b0 <__addsf3+0xec>
 80002da:	ea4f 6212 	mov.w	r2, r2, lsr #24
 80002de:	ebd2 6313 	rsbs	r3, r2, r3, lsr #24
 80002e2:	bfc1      	itttt	gt
 80002e4:	18d2      	addgt	r2, r2, r3
 80002e6:	4041      	eorgt	r1, r0
 80002e8:	4048      	eorgt	r0, r1
 80002ea:	4041      	eorgt	r1, r0
 80002ec:	bfb8      	it	lt
 80002ee:	425b      	neglt	r3, r3
 80002f0:	2b19      	cmp	r3, #25
 80002f2:	bf88      	it	hi
 80002f4:	4770      	bxhi	lr
 80002f6:	f010 4f00 	tst.w	r0, #2147483648	; 0x80000000
 80002fa:	f440 0000 	orr.w	r0, r0, #8388608	; 0x800000
 80002fe:	f020 407f 	bic.w	r0, r0, #4278190080	; 0xff000000
 8000302:	bf18      	it	ne
 8000304:	4240      	negne	r0, r0
 8000306:	f011 4f00 	tst.w	r1, #2147483648	; 0x80000000
 800030a:	f441 0100 	orr.w	r1, r1, #8388608	; 0x800000
 800030e:	f021 417f 	bic.w	r1, r1, #4278190080	; 0xff000000
 8000312:	bf18      	it	ne
 8000314:	4249      	negne	r1, r1
 8000316:	ea92 0f03 	teq	r2, r3
 800031a:	d03f      	beq.n	800039c <__addsf3+0xd8>
 800031c:	f1a2 0201 	sub.w	r2, r2, #1
 8000320:	fa41 fc03 	asr.w	ip, r1, r3
 8000324:	eb10 000c 	adds.w	r0, r0, ip
 8000328:	f1c3 0320 	rsb	r3, r3, #32
 800032c:	fa01 f103 	lsl.w	r1, r1, r3
 8000330:	f000 4300 	and.w	r3, r0, #2147483648	; 0x80000000
 8000334:	d502      	bpl.n	800033c <__addsf3+0x78>
 8000336:	4249      	negs	r1, r1
 8000338:	eb60 0040 	sbc.w	r0, r0, r0, lsl #1
 800033c:	f5b0 0f00 	cmp.w	r0, #8388608	; 0x800000
 8000340:	d313      	bcc.n	800036a <__addsf3+0xa6>
 8000342:	f1b0 7f80 	cmp.w	r0, #16777216	; 0x1000000
 8000346:	d306      	bcc.n	8000356 <__addsf3+0x92>
 8000348:	0840      	lsrs	r0, r0, #1
 800034a:	ea4f 0131 	mov.w	r1, r1, rrx
 800034e:	f102 0201 	add.w	r2, r2, #1
 8000352:	2afe      	cmp	r2, #254	; 0xfe
 8000354:	d251      	bcs.n	80003fa <__addsf3+0x136>
 8000356:	f1b1 4f00 	cmp.w	r1, #2147483648	; 0x80000000
 800035a:	eb40 50c2 	adc.w	r0, r0, r2, lsl #23
 800035e:	bf08      	it	eq
 8000360:	f020 0001 	biceq.w	r0, r0, #1
 8000364:	ea40 0003 	orr.w	r0, r0, r3
 8000368:	4770      	bx	lr
 800036a:	0049      	lsls	r1, r1, #1
 800036c:	eb40 0000 	adc.w	r0, r0, r0
 8000370:	3a01      	subs	r2, #1
 8000372:	bf28      	it	cs
 8000374:	f5b0 0f00 	cmpcs.w	r0, #8388608	; 0x800000
 8000378:	d2ed      	bcs.n	8000356 <__addsf3+0x92>
 800037a:	fab0 fc80 	clz	ip, r0
 800037e:	f1ac 0c08 	sub.w	ip, ip, #8
 8000382:	ebb2 020c 	subs.w	r2, r2, ip
 8000386:	fa00 f00c 	lsl.w	r0, r0, ip
 800038a:	bfaa      	itet	ge
 800038c:	eb00 50c2 	addge.w	r0, r0, r2, lsl #23
 8000390:	4252      	neglt	r2, r2
 8000392:	4318      	orrge	r0, r3
 8000394:	bfbc      	itt	lt
 8000396:	40d0      	lsrlt	r0, r2
 8000398:	4318      	orrlt	r0, r3
 800039a:	4770      	bx	lr
 800039c:	f092 0f00 	teq	r2, #0
 80003a0:	f481 0100 	eor.w	r1, r1, #8388608	; 0x800000
 80003a4:	bf06      	itte	eq
 80003a6:	f480 0000 	eoreq.w	r0, r0, #8388608	; 0x800000
 80003aa:	3201      	addeq	r2, #1
 80003ac:	3b01      	subne	r3, #1
 80003ae:	e7b5      	b.n	800031c <__addsf3+0x58>
 80003b0:	ea4f 0341 	mov.w	r3, r1, lsl #1
 80003b4:	ea7f 6c22 	mvns.w	ip, r2, asr #24
 80003b8:	bf18      	it	ne
 80003ba:	ea7f 6c23 	mvnsne.w	ip, r3, asr #24
 80003be:	d021      	beq.n	8000404 <__addsf3+0x140>
 80003c0:	ea92 0f03 	teq	r2, r3
 80003c4:	d004      	beq.n	80003d0 <__addsf3+0x10c>
 80003c6:	f092 0f00 	teq	r2, #0
 80003ca:	bf08      	it	eq
 80003cc:	4608      	moveq	r0, r1
 80003ce:	4770      	bx	lr
 80003d0:	ea90 0f01 	teq	r0, r1
 80003d4:	bf1c      	itt	ne
 80003d6:	2000      	movne	r0, #0
 80003d8:	4770      	bxne	lr
 80003da:	f012 4f7f 	tst.w	r2, #4278190080	; 0xff000000
 80003de:	d104      	bne.n	80003ea <__addsf3+0x126>
 80003e0:	0040      	lsls	r0, r0, #1
 80003e2:	bf28      	it	cs
 80003e4:	f040 4000 	orrcs.w	r0, r0, #2147483648	; 0x80000000
 80003e8:	4770      	bx	lr
 80003ea:	f112 7200 	adds.w	r2, r2, #33554432	; 0x2000000
 80003ee:	bf3c      	itt	cc
 80003f0:	f500 0000 	addcc.w	r0, r0, #8388608	; 0x800000
 80003f4:	4770      	bxcc	lr
 80003f6:	f000 4300 	and.w	r3, r0, #2147483648	; 0x80000000
 80003fa:	f043 40fe 	orr.w	r0, r3, #2130706432	; 0x7f000000
 80003fe:	f440 0000 	orr.w	r0, r0, #8388608	; 0x800000
 8000402:	4770      	bx	lr
 8000404:	ea7f 6222 	mvns.w	r2, r2, asr #24
 8000408:	bf16      	itet	ne
 800040a:	4608      	movne	r0, r1
 800040c:	ea7f 6323 	mvnseq.w	r3, r3, asr #24
 8000410:	4601      	movne	r1, r0
 8000412:	0242      	lsls	r2, r0, #9
 8000414:	bf06      	itte	eq
 8000416:	ea5f 2341 	movseq.w	r3, r1, lsl #9
 800041a:	ea90 0f01 	teqeq	r0, r1
 800041e:	f440 0080 	orrne.w	r0, r0, #4194304	; 0x400000
 8000422:	4770      	bx	lr

08000424 <__aeabi_ui2f>:
 8000424:	f04f 0300 	mov.w	r3, #0
 8000428:	e004      	b.n	8000434 <__aeabi_i2f+0x8>
 800042a:	bf00      	nop

0800042c <__aeabi_i2f>:
 800042c:	f010 4300 	ands.w	r3, r0, #2147483648	; 0x80000000
 8000430:	bf48      	it	mi
 8000432:	4240      	negmi	r0, r0
 8000434:	ea5f 0c00 	movs.w	ip, r0
 8000438:	bf08      	it	eq
 800043a:	4770      	bxeq	lr
 800043c:	f043 4396 	orr.w	r3, r3, #1258291200	; 0x4b000000
 8000440:	4601      	mov	r1, r0
 8000442:	f04f 0000 	mov.w	r0, #0
 8000446:	e01c      	b.n	8000482 <__aeabi_l2f+0x2a>

08000448 <__aeabi_ul2f>:
 8000448:	ea50 0201 	orrs.w	r2, r0, r1
 800044c:	bf08      	it	eq
 800044e:	4770      	bxeq	lr
 8000450:	f04f 0300 	mov.w	r3, #0
 8000454:	e00a      	b.n	800046c <__aeabi_l2f+0x14>
 8000456:	bf00      	nop

08000458 <__aeabi_l2f>:
 8000458:	ea50 0201 	orrs.w	r2, r0, r1
 800045c:	bf08      	it	eq
 800045e:	4770      	bxeq	lr
 8000460:	f011 4300 	ands.w	r3, r1, #2147483648	; 0x80000000
 8000464:	d502      	bpl.n	800046c <__aeabi_l2f+0x14>
 8000466:	4240      	negs	r0, r0
 8000468:	eb61 0141 	sbc.w	r1, r1, r1, lsl #1
 800046c:	ea5f 0c01 	movs.w	ip, r1
 8000470:	bf02      	ittt	eq
 8000472:	4684      	moveq	ip, r0
 8000474:	4601      	moveq	r1, r0
 8000476:	2000      	moveq	r0, #0
 8000478:	f043 43b6 	orr.w	r3, r3, #1526726656	; 0x5b000000
 800047c:	bf08      	it	eq
 800047e:	f1a3 5380 	subeq.w	r3, r3, #268435456	; 0x10000000
 8000482:	f5a3 0300 	sub.w	r3, r3, #8388608	; 0x800000
 8000486:	fabc f28c 	clz	r2, ip
 800048a:	3a08      	subs	r2, #8
 800048c:	eba3 53c2 	sub.w	r3, r3, r2, lsl #23
 8000490:	db10      	blt.n	80004b4 <__aeabi_l2f+0x5c>
 8000492:	fa01 fc02 	lsl.w	ip, r1, r2
 8000496:	4463      	add	r3, ip
 8000498:	fa00 fc02 	lsl.w	ip, r0, r2
 800049c:	f1c2 0220 	rsb	r2, r2, #32
 80004a0:	f1bc 4f00 	cmp.w	ip, #2147483648	; 0x80000000
 80004a4:	fa20 f202 	lsr.w	r2, r0, r2
 80004a8:	eb43 0002 	adc.w	r0, r3, r2
 80004ac:	bf08      	it	eq
 80004ae:	f020 0001 	biceq.w	r0, r0, #1
 80004b2:	4770      	bx	lr
 80004b4:	f102 0220 	add.w	r2, r2, #32
 80004b8:	fa01 fc02 	lsl.w	ip, r1, r2
 80004bc:	f1c2 0220 	rsb	r2, r2, #32
 80004c0:	ea50 004c 	orrs.w	r0, r0, ip, lsl #1
 80004c4:	fa21 f202 	lsr.w	r2, r1, r2
 80004c8:	eb43 0002 	adc.w	r0, r3, r2
 80004cc:	bf08      	it	eq
 80004ce:	ea20 70dc 	biceq.w	r0, r0, ip, lsr #31
 80004d2:	4770      	bx	lr

080004d4 <__gesf2>:
 80004d4:	f04f 3cff 	mov.w	ip, #4294967295
 80004d8:	e006      	b.n	80004e8 <__cmpsf2+0x4>
 80004da:	bf00      	nop

080004dc <__lesf2>:
 80004dc:	f04f 0c01 	mov.w	ip, #1
 80004e0:	e002      	b.n	80004e8 <__cmpsf2+0x4>
 80004e2:	bf00      	nop

080004e4 <__cmpsf2>:
 80004e4:	f04f 0c01 	mov.w	ip, #1
 80004e8:	f84d cd04 	str.w	ip, [sp, #-4]!
 80004ec:	ea4f 0240 	mov.w	r2, r0, lsl #1
 80004f0:	ea4f 0341 	mov.w	r3, r1, lsl #1
 80004f4:	ea7f 6c22 	mvns.w	ip, r2, asr #24
 80004f8:	bf18      	it	ne
 80004fa:	ea7f 6c23 	mvnsne.w	ip, r3, asr #24
 80004fe:	d011      	beq.n	8000524 <__cmpsf2+0x40>
 8000500:	b001      	add	sp, #4
 8000502:	ea52 0c53 	orrs.w	ip, r2, r3, lsr #1
 8000506:	bf18      	it	ne
 8000508:	ea90 0f01 	teqne	r0, r1
 800050c:	bf58      	it	pl
 800050e:	ebb2 0003 	subspl.w	r0, r2, r3
 8000512:	bf88      	it	hi
 8000514:	17c8      	asrhi	r0, r1, #31
 8000516:	bf38      	it	cc
 8000518:	ea6f 70e1 	mvncc.w	r0, r1, asr #31
 800051c:	bf18      	it	ne
 800051e:	f040 0001 	orrne.w	r0, r0, #1
 8000522:	4770      	bx	lr
 8000524:	ea7f 6c22 	mvns.w	ip, r2, asr #24
 8000528:	d102      	bne.n	8000530 <__cmpsf2+0x4c>
 800052a:	ea5f 2c40 	movs.w	ip, r0, lsl #9
 800052e:	d105      	bne.n	800053c <__cmpsf2+0x58>
 8000530:	ea7f 6c23 	mvns.w	ip, r3, asr #24
 8000534:	d1e4      	bne.n	8000500 <__cmpsf2+0x1c>
 8000536:	ea5f 2c41 	movs.w	ip, r1, lsl #9
 800053a:	d0e1      	beq.n	8000500 <__cmpsf2+0x1c>
 800053c:	f85d 0b04 	ldr.w	r0, [sp], #4
 8000540:	4770      	bx	lr
 8000542:	bf00      	nop

08000544 <__aeabi_cfrcmple>:
 8000544:	4684      	mov	ip, r0
 8000546:	4608      	mov	r0, r1
 8000548:	4661      	mov	r1, ip
 800054a:	e7ff      	b.n	800054c <__aeabi_cfcmpeq>

0800054c <__aeabi_cfcmpeq>:
 800054c:	b50f      	push	{r0, r1, r2, r3, lr}
 800054e:	f7ff ffc9 	bl	80004e4 <__cmpsf2>
 8000552:	2800      	cmp	r0, #0
 8000554:	bf48      	it	mi
 8000556:	f110 0f00 	cmnmi.w	r0, #0
 800055a:	bd0f      	pop	{r0, r1, r2, r3, pc}

0800055c <__aeabi_fcmpeq>:
 800055c:	f84d ed08 	str.w	lr, [sp, #-8]!
 8000560:	f7ff fff4 	bl	800054c <__aeabi_cfcmpeq>
 8000564:	bf0c      	ite	eq
 8000566:	2001      	moveq	r0, #1
 8000568:	2000      	movne	r0, #0
 800056a:	f85d fb08 	ldr.w	pc, [sp], #8
 800056e:	bf00      	nop

08000570 <__aeabi_fcmplt>:
 8000570:	f84d ed08 	str.w	lr, [sp, #-8]!
 8000574:	f7ff ffea 	bl	800054c <__aeabi_cfcmpeq>
 8000578:	bf34      	ite	cc
 800057a:	2001      	movcc	r0, #1
 800057c:	2000      	movcs	r0, #0
 800057e:	f85d fb08 	ldr.w	pc, [sp], #8
 8000582:	bf00      	nop

08000584 <__aeabi_fcmple>:
 8000584:	f84d ed08 	str.w	lr, [sp, #-8]!
 8000588:	f7ff ffe0 	bl	800054c <__aeabi_cfcmpeq>
 800058c:	bf94      	ite	ls
 800058e:	2001      	movls	r0, #1
 8000590:	2000      	movhi	r0, #0
 8000592:	f85d fb08 	ldr.w	pc, [sp], #8
 8000596:	bf00      	nop

08000598 <__aeabi_fcmpge>:
 8000598:	f84d ed08 	str.w	lr, [sp, #-8]!
 800059c:	f7ff ffd2 	bl	8000544 <__aeabi_cfrcmple>
 80005a0:	bf94      	ite	ls
 80005a2:	2001      	movls	r0, #1
 80005a4:	2000      	movhi	r0, #0
 80005a6:	f85d fb08 	ldr.w	pc, [sp], #8
 80005aa:	bf00      	nop

080005ac <__aeabi_fcmpgt>:
 80005ac:	f84d ed08 	str.w	lr, [sp, #-8]!
 80005b0:	f7ff ffc8 	bl	8000544 <__aeabi_cfrcmple>
 80005b4:	bf34      	ite	cc
 80005b6:	2001      	movcc	r0, #1
 80005b8:	2000      	movcs	r0, #0
 80005ba:	f85d fb08 	ldr.w	pc, [sp], #8
 80005be:	bf00      	nop

080005c0 <vApplicationMallocFailedHook>:
 80005c0:	f3bf 8f4f 	dsb	sy
 80005c4:	4905      	ldr	r1, [pc, #20]	; (80005dc <vApplicationMallocFailedHook+0x1c>)
 80005c6:	4b06      	ldr	r3, [pc, #24]	; (80005e0 <vApplicationMallocFailedHook+0x20>)
 80005c8:	68ca      	ldr	r2, [r1, #12]
 80005ca:	f402 62e0 	and.w	r2, r2, #1792	; 0x700
 80005ce:	4313      	orrs	r3, r2
 80005d0:	60cb      	str	r3, [r1, #12]
 80005d2:	f3bf 8f4f 	dsb	sy
 80005d6:	bf00      	nop
 80005d8:	e7fd      	b.n	80005d6 <vApplicationMallocFailedHook+0x16>
 80005da:	bf00      	nop
 80005dc:	e000ed00 	.word	0xe000ed00
 80005e0:	05fa0004 	.word	0x05fa0004

080005e4 <Callback01>:
 80005e4:	2201      	movs	r2, #1
 80005e6:	4b01      	ldr	r3, [pc, #4]	; (80005ec <Callback01+0x8>)
 80005e8:	801a      	strh	r2, [r3, #0]
 80005ea:	4770      	bx	lr
 80005ec:	200044d4 	.word	0x200044d4

080005f0 <StartVelostatScanADC>:
 80005f0:	e92d 4ff8 	stmdb	sp!, {r3, r4, r5, r6, r7, r8, r9, sl, fp, lr}
 80005f4:	f44f 705c 	mov.w	r0, #880	; 0x370
 80005f8:	f006 ffa0 	bl	800753c <pvPortMalloc>
 80005fc:	4e2a      	ldr	r6, [pc, #168]	; (80006a8 <StartVelostatScanADC+0xb8>)
 80005fe:	6030      	str	r0, [r6, #0]
 8000600:	2800      	cmp	r0, #0
 8000602:	d04e      	beq.n	80006a2 <StartVelostatScanADC+0xb2>
 8000604:	4829      	ldr	r0, [pc, #164]	; (80006ac <StartVelostatScanADC+0xbc>)
 8000606:	f002 f8dd 	bl	80027c4 <HAL_ADCEx_Calibration_Start>
 800060a:	4829      	ldr	r0, [pc, #164]	; (80006b0 <StartVelostatScanADC+0xc0>)
 800060c:	f002 f8da 	bl	80027c4 <HAL_ADCEx_Calibration_Start>
 8000610:	2300      	movs	r3, #0
 8000612:	4c28      	ldr	r4, [pc, #160]	; (80006b4 <StartVelostatScanADC+0xc4>)
 8000614:	4d28      	ldr	r5, [pc, #160]	; (80006b8 <StartVelostatScanADC+0xc8>)
 8000616:	f8df a0a4 	ldr.w	sl, [pc, #164]	; 80006bc <StartVelostatScanADC+0xcc>
 800061a:	f8df 90a4 	ldr.w	r9, [pc, #164]	; 80006c0 <StartVelostatScanADC+0xd0>
 800061e:	f8df 808c 	ldr.w	r8, [pc, #140]	; 80006ac <StartVelostatScanADC+0xbc>
 8000622:	4f23      	ldr	r7, [pc, #140]	; (80006b0 <StartVelostatScanADC+0xc0>)
 8000624:	8023      	strh	r3, [r4, #0]
 8000626:	f04f 33ff 	mov.w	r3, #4294967295
 800062a:	2203      	movs	r2, #3
 800062c:	2180      	movs	r1, #128	; 0x80
 800062e:	6828      	ldr	r0, [r5, #0]
 8000630:	f004 faa6 	bl	8004b80 <osEventFlagsWait>
 8000634:	2200      	movs	r2, #0
 8000636:	2364      	movs	r3, #100	; 0x64
 8000638:	2148      	movs	r1, #72	; 0x48
 800063a:	6828      	ldr	r0, [r5, #0]
 800063c:	f004 faa0 	bl	8004b80 <osEventFlagsWait>
 8000640:	8820      	ldrh	r0, [r4, #0]
 8000642:	f007 f91f 	bl	8007884 <Scan_74238>
 8000646:	8823      	ldrh	r3, [r4, #0]
 8000648:	6831      	ldr	r1, [r6, #0]
 800064a:	eb03 0383 	add.w	r3, r3, r3, lsl #2
 800064e:	eb01 0b83 	add.w	fp, r1, r3, lsl #2
 8000652:	4640      	mov	r0, r8
 8000654:	f002 f82a 	bl	80026ac <HAL_ADC_Start>
 8000658:	4659      	mov	r1, fp
 800065a:	2205      	movs	r2, #5
 800065c:	4638      	mov	r0, r7
 800065e:	f002 f929 	bl	80028b4 <HAL_ADCEx_MultiModeStart_DMA>
 8000662:	2201      	movs	r2, #1
 8000664:	f04f 33ff 	mov.w	r3, #4294967295
 8000668:	4611      	mov	r1, r2
 800066a:	6828      	ldr	r0, [r5, #0]
 800066c:	f004 fa88 	bl	8004b80 <osEventFlagsWait>
 8000670:	8823      	ldrh	r3, [r4, #0]
 8000672:	2b2a      	cmp	r3, #42	; 0x2a
 8000674:	f1a3 022b 	sub.w	r2, r3, #43	; 0x2b
 8000678:	d90c      	bls.n	8000694 <StartVelostatScanADC+0xa4>
 800067a:	2110      	movs	r1, #16
 800067c:	6828      	ldr	r0, [r5, #0]
 800067e:	8022      	strh	r2, [r4, #0]
 8000680:	f004 f9f2 	bl	8004a68 <osEventFlagsSet>
 8000684:	f001 fe46 	bl	8002314 <HAL_GetTick>
 8000688:	f8da 3000 	ldr.w	r3, [sl]
 800068c:	1ac0      	subs	r0, r0, r3
 800068e:	f8c9 0000 	str.w	r0, [r9]
 8000692:	e7c8      	b.n	8000626 <StartVelostatScanADC+0x36>
 8000694:	3301      	adds	r3, #1
 8000696:	2108      	movs	r1, #8
 8000698:	6828      	ldr	r0, [r5, #0]
 800069a:	8023      	strh	r3, [r4, #0]
 800069c:	f004 f9e4 	bl	8004a68 <osEventFlagsSet>
 80006a0:	e7c1      	b.n	8000626 <StartVelostatScanADC+0x36>
 80006a2:	b672      	cpsid	i
 80006a4:	e7fe      	b.n	80006a4 <StartVelostatScanADC+0xb4>
 80006a6:	bf00      	nop
 80006a8:	20004224 	.word	0x20004224
 80006ac:	200041ec 	.word	0x200041ec
 80006b0:	200042d8 	.word	0x200042d8
 80006b4:	2000422c 	.word	0x2000422c
 80006b8:	20004474 	.word	0x20004474
 80006bc:	200042d4 	.word	0x200042d4
 80006c0:	200041e8 	.word	0x200041e8

080006c4 <StartVelostatProcessOutput>:
 80006c4:	4b23      	ldr	r3, [pc, #140]	; (8000754 <StartVelostatProcessOutput+0x90>)
 80006c6:	e92d 41f0 	stmdb	sp!, {r4, r5, r6, r7, r8, lr}
 80006ca:	4698      	mov	r8, r3
 80006cc:	4a22      	ldr	r2, [pc, #136]	; (8000758 <StartVelostatProcessOutput+0x94>)
 80006ce:	4c23      	ldr	r4, [pc, #140]	; (800075c <StartVelostatProcessOutput+0x98>)
 80006d0:	4f23      	ldr	r7, [pc, #140]	; (8000760 <StartVelostatProcessOutput+0x9c>)
 80006d2:	4e24      	ldr	r6, [pc, #144]	; (8000764 <StartVelostatProcessOutput+0xa0>)
 80006d4:	4d24      	ldr	r5, [pc, #144]	; (8000768 <StartVelostatProcessOutput+0xa4>)
 80006d6:	b082      	sub	sp, #8
 80006d8:	629a      	str	r2, [r3, #40]	; 0x28
 80006da:	2201      	movs	r2, #1
 80006dc:	f04f 33ff 	mov.w	r3, #4294967295
 80006e0:	2110      	movs	r1, #16
 80006e2:	6820      	ldr	r0, [r4, #0]
 80006e4:	f004 fa4c 	bl	8004b80 <osEventFlagsWait>
 80006e8:	f44f 705c 	mov.w	r0, #880	; 0x370
 80006ec:	f006 ff26 	bl	800753c <pvPortMalloc>
 80006f0:	4602      	mov	r2, r0
 80006f2:	9001      	str	r0, [sp, #4]
 80006f4:	b358      	cbz	r0, 800074e <StartVelostatProcessOutput+0x8a>
 80006f6:	f44f 73dc 	mov.w	r3, #440	; 0x1b8
 80006fa:	6839      	ldr	r1, [r7, #0]
 80006fc:	4640      	mov	r0, r8
 80006fe:	f002 fa1b 	bl	8002b38 <HAL_DMA_Start_IT>
 8000702:	f04f 33ff 	mov.w	r3, #4294967295
 8000706:	2201      	movs	r2, #1
 8000708:	2102      	movs	r1, #2
 800070a:	6820      	ldr	r0, [r4, #0]
 800070c:	f004 fa38 	bl	8004b80 <osEventFlagsWait>
 8000710:	9a01      	ldr	r2, [sp, #4]
 8000712:	2323      	movs	r3, #35	; 0x23
 8000714:	f8b2 00ac 	ldrh.w	r0, [r2, #172]	; 0xac
 8000718:	f8b2 10d2 	ldrh.w	r1, [r2, #210]	; 0xd2
 800071c:	f8a2 00aa 	strh.w	r0, [r2, #170]	; 0xaa
 8000720:	f8a2 10be 	strh.w	r1, [r2, #190]	; 0xbe
 8000724:	6830      	ldr	r0, [r6, #0]
 8000726:	2200      	movs	r2, #0
 8000728:	a901      	add	r1, sp, #4
 800072a:	f004 faad 	bl	8004c88 <osMessageQueuePut>
 800072e:	1c83      	adds	r3, r0, #2
 8000730:	d009      	beq.n	8000746 <StartVelostatProcessOutput+0x82>
 8000732:	2800      	cmp	r0, #0
 8000734:	d1d1      	bne.n	80006da <StartVelostatProcessOutput+0x16>
 8000736:	2140      	movs	r1, #64	; 0x40
 8000738:	6820      	ldr	r0, [r4, #0]
 800073a:	f004 f995 	bl	8004a68 <osEventFlagsSet>
 800073e:	f001 fde9 	bl	8002314 <HAL_GetTick>
 8000742:	6028      	str	r0, [r5, #0]
 8000744:	e7c9      	b.n	80006da <StartVelostatProcessOutput+0x16>
 8000746:	9801      	ldr	r0, [sp, #4]
 8000748:	f006 ffb2 	bl	80076b0 <vPortFree>
 800074c:	e7c5      	b.n	80006da <StartVelostatProcessOutput+0x16>
 800074e:	b672      	cpsid	i
 8000750:	e7fe      	b.n	8000750 <StartVelostatProcessOutput+0x8c>
 8000752:	bf00      	nop
 8000754:	20004424 	.word	0x20004424
 8000758:	0800142d 	.word	0x0800142d
 800075c:	20004474 	.word	0x20004474
 8000760:	20004224 	.word	0x20004224
 8000764:	20004470 	.word	0x20004470
 8000768:	200042d4 	.word	0x200042d4

0800076c <StartVelostatTransmit>:
 800076c:	e92d 4ff0 	stmdb	sp!, {r4, r5, r6, r7, r8, r9, sl, fp, lr}
 8000770:	f44f 705d 	mov.w	r0, #884	; 0x374
 8000774:	b083      	sub	sp, #12
 8000776:	f006 fee1 	bl	800753c <pvPortMalloc>
 800077a:	2800      	cmp	r0, #0
 800077c:	d043      	beq.n	8000806 <StartVelostatTransmit+0x9a>
 800077e:	4b23      	ldr	r3, [pc, #140]	; (800080c <StartVelostatTransmit+0xa0>)
 8000780:	4606      	mov	r6, r0
 8000782:	f245 5255 	movw	r2, #21845	; 0x5555
 8000786:	f64a 20aa 	movw	r0, #43690	; 0xaaaa
 800078a:	469b      	mov	fp, r3
 800078c:	4920      	ldr	r1, [pc, #128]	; (8000810 <StartVelostatTransmit+0xa4>)
 800078e:	4d21      	ldr	r5, [pc, #132]	; (8000814 <StartVelostatTransmit+0xa8>)
 8000790:	f8df a088 	ldr.w	sl, [pc, #136]	; 800081c <StartVelostatTransmit+0xb0>
 8000794:	f8df 9088 	ldr.w	r9, [pc, #136]	; 8000820 <StartVelostatTransmit+0xb4>
 8000798:	f8df 8088 	ldr.w	r8, [pc, #136]	; 8000824 <StartVelostatTransmit+0xb8>
 800079c:	8030      	strh	r0, [r6, #0]
 800079e:	f8a6 2372 	strh.w	r2, [r6, #882]	; 0x372
 80007a2:	6299      	str	r1, [r3, #40]	; 0x28
 80007a4:	1cb7      	adds	r7, r6, #2
 80007a6:	f04f 33ff 	mov.w	r3, #4294967295
 80007aa:	2200      	movs	r2, #0
 80007ac:	6828      	ldr	r0, [r5, #0]
 80007ae:	a901      	add	r1, sp, #4
 80007b0:	f004 faac 	bl	8004d0c <osMessageQueueGet>
 80007b4:	4604      	mov	r4, r0
 80007b6:	2800      	cmp	r0, #0
 80007b8:	d1f5      	bne.n	80007a6 <StartVelostatTransmit+0x3a>
 80007ba:	f001 fdab 	bl	8002314 <HAL_GetTick>
 80007be:	4684      	mov	ip, r0
 80007c0:	f44f 73dc 	mov.w	r3, #440	; 0x1b8
 80007c4:	463a      	mov	r2, r7
 80007c6:	9901      	ldr	r1, [sp, #4]
 80007c8:	4658      	mov	r0, fp
 80007ca:	f8ca c000 	str.w	ip, [sl]
 80007ce:	f002 f9b3 	bl	8002b38 <HAL_DMA_Start_IT>
 80007d2:	f04f 33ff 	mov.w	r3, #4294967295
 80007d6:	2201      	movs	r2, #1
 80007d8:	2120      	movs	r1, #32
 80007da:	f8d9 0000 	ldr.w	r0, [r9]
 80007de:	f004 f9cf 	bl	8004b80 <osEventFlagsWait>
 80007e2:	4622      	mov	r2, r4
 80007e4:	2332      	movs	r3, #50	; 0x32
 80007e6:	f8d8 0000 	ldr.w	r0, [r8]
 80007ea:	a901      	add	r1, sp, #4
 80007ec:	f004 fa4c 	bl	8004c88 <osMessageQueuePut>
 80007f0:	b110      	cbz	r0, 80007f8 <StartVelostatTransmit+0x8c>
 80007f2:	9801      	ldr	r0, [sp, #4]
 80007f4:	f006 ff5c 	bl	80076b0 <vPortFree>
 80007f8:	f44f 725d 	mov.w	r2, #884	; 0x374
 80007fc:	4631      	mov	r1, r6
 80007fe:	4806      	ldr	r0, [pc, #24]	; (8000818 <StartVelostatTransmit+0xac>)
 8000800:	f003 fc46 	bl	8004090 <HAL_UART_Transmit_DMA>
 8000804:	e7cf      	b.n	80007a6 <StartVelostatTransmit+0x3a>
 8000806:	b672      	cpsid	i
 8000808:	e7fe      	b.n	8000808 <StartVelostatTransmit+0x9c>
 800080a:	bf00      	nop
 800080c:	2000415c 	.word	0x2000415c
 8000810:	0800142d 	.word	0x0800142d
 8000814:	20004470 	.word	0x20004470
 8000818:	20004360 	.word	0x20004360
 800081c:	20004228 	.word	0x20004228
 8000820:	20004474 	.word	0x20004474
 8000824:	2000447c 	.word	0x2000447c

08000828 <StartHandBot1>:
 8000828:	b500      	push	{lr}
 800082a:	201c      	movs	r0, #28
 800082c:	b083      	sub	sp, #12
 800082e:	f006 fe85 	bl	800753c <pvPortMalloc>
 8000832:	4c0c      	ldr	r4, [pc, #48]	; (8000864 <StartHandBot1+0x3c>)
 8000834:	6020      	str	r0, [r4, #0]
 8000836:	b190      	cbz	r0, 800085e <StartHandBot1+0x36>
 8000838:	2202      	movs	r2, #2
 800083a:	4b0b      	ldr	r3, [pc, #44]	; (8000868 <StartHandBot1+0x40>)
 800083c:	9200      	str	r2, [sp, #0]
 800083e:	681b      	ldr	r3, [r3, #0]
 8000840:	2200      	movs	r2, #0
 8000842:	490a      	ldr	r1, [pc, #40]	; (800086c <StartHandBot1+0x44>)
 8000844:	f007 f874 	bl	8007930 <vServoInit>
 8000848:	2229      	movs	r2, #41	; 0x29
 800084a:	2342      	movs	r3, #66	; 0x42
 800084c:	6820      	ldr	r0, [r4, #0]
 800084e:	70c2      	strb	r2, [r0, #3]
 8000850:	8083      	strh	r3, [r0, #4]
 8000852:	f007 f899 	bl	8007988 <vServoStart>
 8000856:	6820      	ldr	r0, [r4, #0]
 8000858:	f007 f8ca 	bl	80079f0 <eServoMove>
 800085c:	e7fb      	b.n	8000856 <StartHandBot1+0x2e>
 800085e:	b672      	cpsid	i
 8000860:	e7fe      	b.n	8000860 <StartHandBot1+0x38>
 8000862:	bf00      	nop
 8000864:	20004500 	.word	0x20004500
 8000868:	200044f8 	.word	0x200044f8
 800086c:	20004484 	.word	0x20004484

08000870 <StartHandTop1>:
 8000870:	b500      	push	{lr}
 8000872:	201c      	movs	r0, #28
 8000874:	b083      	sub	sp, #12
 8000876:	f006 fe61 	bl	800753c <pvPortMalloc>
 800087a:	4c0c      	ldr	r4, [pc, #48]	; (80008ac <StartHandTop1+0x3c>)
 800087c:	6020      	str	r0, [r4, #0]
 800087e:	b190      	cbz	r0, 80008a6 <StartHandTop1+0x36>
 8000880:	2204      	movs	r2, #4
 8000882:	4b0b      	ldr	r3, [pc, #44]	; (80008b0 <StartHandTop1+0x40>)
 8000884:	9200      	str	r2, [sp, #0]
 8000886:	681b      	ldr	r3, [r3, #0]
 8000888:	490a      	ldr	r1, [pc, #40]	; (80008b4 <StartHandTop1+0x44>)
 800088a:	f007 f851 	bl	8007930 <vServoInit>
 800088e:	221c      	movs	r2, #28
 8000890:	f44f 73aa 	mov.w	r3, #340	; 0x154
 8000894:	6820      	ldr	r0, [r4, #0]
 8000896:	70c2      	strb	r2, [r0, #3]
 8000898:	8083      	strh	r3, [r0, #4]
 800089a:	f007 f875 	bl	8007988 <vServoStart>
 800089e:	6820      	ldr	r0, [r4, #0]
 80008a0:	f007 f8a6 	bl	80079f0 <eServoMove>
 80008a4:	e7fb      	b.n	800089e <StartHandTop1+0x2e>
 80008a6:	b672      	cpsid	i
 80008a8:	e7fe      	b.n	80008a8 <StartHandTop1+0x38>
 80008aa:	bf00      	nop
 80008ac:	20004418 	.word	0x20004418
 80008b0:	200044f8 	.word	0x200044f8
 80008b4:	20004484 	.word	0x20004484

080008b8 <StartHandBot2>:
 80008b8:	b500      	push	{lr}
 80008ba:	201c      	movs	r0, #28
 80008bc:	b083      	sub	sp, #12
 80008be:	f006 fe3d 	bl	800753c <pvPortMalloc>
 80008c2:	4c0c      	ldr	r4, [pc, #48]	; (80008f4 <StartHandBot2+0x3c>)
 80008c4:	6020      	str	r0, [r4, #0]
 80008c6:	b190      	cbz	r0, 80008ee <StartHandBot2+0x36>
 80008c8:	2208      	movs	r2, #8
 80008ca:	4b0b      	ldr	r3, [pc, #44]	; (80008f8 <StartHandBot2+0x40>)
 80008cc:	9200      	str	r2, [sp, #0]
 80008ce:	681b      	ldr	r3, [r3, #0]
 80008d0:	2200      	movs	r2, #0
 80008d2:	490a      	ldr	r1, [pc, #40]	; (80008fc <StartHandBot2+0x44>)
 80008d4:	f007 f82c 	bl	8007930 <vServoInit>
 80008d8:	222d      	movs	r2, #45	; 0x2d
 80008da:	234e      	movs	r3, #78	; 0x4e
 80008dc:	6820      	ldr	r0, [r4, #0]
 80008de:	70c2      	strb	r2, [r0, #3]
 80008e0:	8083      	strh	r3, [r0, #4]
 80008e2:	f007 f851 	bl	8007988 <vServoStart>
 80008e6:	6820      	ldr	r0, [r4, #0]
 80008e8:	f007 f882 	bl	80079f0 <eServoMove>
 80008ec:	e7fb      	b.n	80008e6 <StartHandBot2+0x2e>
 80008ee:	b672      	cpsid	i
 80008f0:	e7fe      	b.n	80008f0 <StartHandBot2+0x38>
 80008f2:	bf00      	nop
 80008f4:	200044fc 	.word	0x200044fc
 80008f8:	200044f8 	.word	0x200044f8
 80008fc:	20004238 	.word	0x20004238

08000900 <StartHandTop2>:
 8000900:	b500      	push	{lr}
 8000902:	201c      	movs	r0, #28
 8000904:	b083      	sub	sp, #12
 8000906:	f006 fe19 	bl	800753c <pvPortMalloc>
 800090a:	4c0c      	ldr	r4, [pc, #48]	; (800093c <StartHandTop2+0x3c>)
 800090c:	6020      	str	r0, [r4, #0]
 800090e:	b190      	cbz	r0, 8000936 <StartHandTop2+0x36>
 8000910:	2210      	movs	r2, #16
 8000912:	4b0b      	ldr	r3, [pc, #44]	; (8000940 <StartHandTop2+0x40>)
 8000914:	9200      	str	r2, [sp, #0]
 8000916:	681b      	ldr	r3, [r3, #0]
 8000918:	2204      	movs	r2, #4
 800091a:	490a      	ldr	r1, [pc, #40]	; (8000944 <StartHandTop2+0x44>)
 800091c:	f007 f808 	bl	8007930 <vServoInit>
 8000920:	2222      	movs	r2, #34	; 0x22
 8000922:	2359      	movs	r3, #89	; 0x59
 8000924:	6820      	ldr	r0, [r4, #0]
 8000926:	70c2      	strb	r2, [r0, #3]
 8000928:	8083      	strh	r3, [r0, #4]
 800092a:	f007 f82d 	bl	8007988 <vServoStart>
 800092e:	6820      	ldr	r0, [r4, #0]
 8000930:	f007 f85e 	bl	80079f0 <eServoMove>
 8000934:	e7fb      	b.n	800092e <StartHandTop2+0x2e>
 8000936:	b672      	cpsid	i
 8000938:	e7fe      	b.n	8000938 <StartHandTop2+0x38>
 800093a:	bf00      	nop
 800093c:	20004138 	.word	0x20004138
 8000940:	200044f8 	.word	0x200044f8
 8000944:	20004238 	.word	0x20004238

08000948 <StartHandBot3>:
 8000948:	b500      	push	{lr}
 800094a:	201c      	movs	r0, #28
 800094c:	b083      	sub	sp, #12
 800094e:	f006 fdf5 	bl	800753c <pvPortMalloc>
 8000952:	4c0c      	ldr	r4, [pc, #48]	; (8000984 <StartHandBot3+0x3c>)
 8000954:	6020      	str	r0, [r4, #0]
 8000956:	b198      	cbz	r0, 8000980 <StartHandBot3+0x38>
 8000958:	2220      	movs	r2, #32
 800095a:	4b0b      	ldr	r3, [pc, #44]	; (8000988 <StartHandBot3+0x40>)
 800095c:	9200      	str	r2, [sp, #0]
 800095e:	681b      	ldr	r3, [r3, #0]
 8000960:	2200      	movs	r2, #0
 8000962:	490a      	ldr	r1, [pc, #40]	; (800098c <StartHandBot3+0x44>)
 8000964:	f006 ffe4 	bl	8007930 <vServoInit>
 8000968:	2230      	movs	r2, #48	; 0x30
 800096a:	f240 134b 	movw	r3, #331	; 0x14b
 800096e:	6820      	ldr	r0, [r4, #0]
 8000970:	70c2      	strb	r2, [r0, #3]
 8000972:	8083      	strh	r3, [r0, #4]
 8000974:	f007 f808 	bl	8007988 <vServoStart>
 8000978:	6820      	ldr	r0, [r4, #0]
 800097a:	f007 f839 	bl	80079f0 <eServoMove>
 800097e:	e7fb      	b.n	8000978 <StartHandBot3+0x30>
 8000980:	b672      	cpsid	i
 8000982:	e7fe      	b.n	8000982 <StartHandBot3+0x3a>
 8000984:	20004408 	.word	0x20004408
 8000988:	200044f8 	.word	0x200044f8
 800098c:	200041a0 	.word	0x200041a0

08000990 <StartHandTop3>:
 8000990:	b500      	push	{lr}
 8000992:	201c      	movs	r0, #28
 8000994:	b083      	sub	sp, #12
 8000996:	f006 fdd1 	bl	800753c <pvPortMalloc>
 800099a:	4c0c      	ldr	r4, [pc, #48]	; (80009cc <StartHandTop3+0x3c>)
 800099c:	6020      	str	r0, [r4, #0]
 800099e:	b198      	cbz	r0, 80009c8 <StartHandTop3+0x38>
 80009a0:	2240      	movs	r2, #64	; 0x40
 80009a2:	4b0b      	ldr	r3, [pc, #44]	; (80009d0 <StartHandTop3+0x40>)
 80009a4:	9200      	str	r2, [sp, #0]
 80009a6:	681b      	ldr	r3, [r3, #0]
 80009a8:	2204      	movs	r2, #4
 80009aa:	490a      	ldr	r1, [pc, #40]	; (80009d4 <StartHandTop3+0x44>)
 80009ac:	f006 ffc0 	bl	8007930 <vServoInit>
 80009b0:	222d      	movs	r2, #45	; 0x2d
 80009b2:	f44f 73b6 	mov.w	r3, #364	; 0x16c
 80009b6:	6820      	ldr	r0, [r4, #0]
 80009b8:	70c2      	strb	r2, [r0, #3]
 80009ba:	8083      	strh	r3, [r0, #4]
 80009bc:	f006 ffe4 	bl	8007988 <vServoStart>
 80009c0:	6820      	ldr	r0, [r4, #0]
 80009c2:	f007 f815 	bl	80079f0 <eServoMove>
 80009c6:	e7fb      	b.n	80009c0 <StartHandTop3+0x30>
 80009c8:	b672      	cpsid	i
 80009ca:	e7fe      	b.n	80009ca <StartHandTop3+0x3a>
 80009cc:	20004150 	.word	0x20004150
 80009d0:	200044f8 	.word	0x200044f8
 80009d4:	200041a0 	.word	0x200041a0

080009d8 <StartHandRxHandler>:
 80009d8:	e92d 4ff8 	stmdb	sp!, {r3, r4, r5, r6, r7, r8, r9, sl, fp, lr}
 80009dc:	2015      	movs	r0, #21
 80009de:	f006 fdad 	bl	800753c <pvPortMalloc>
 80009e2:	4e49      	ldr	r6, [pc, #292]	; (8000b08 <StartHandRxHandler+0x130>)
 80009e4:	6030      	str	r0, [r6, #0]
 80009e6:	2800      	cmp	r0, #0
 80009e8:	f000 808c 	beq.w	8000b04 <StartHandRxHandler+0x12c>
 80009ec:	2015      	movs	r0, #21
 80009ee:	f006 fda5 	bl	800753c <pvPortMalloc>
 80009f2:	4604      	mov	r4, r0
 80009f4:	2800      	cmp	r0, #0
 80009f6:	d053      	beq.n	8000aa0 <StartHandRxHandler+0xc8>
 80009f8:	2215      	movs	r2, #21
 80009fa:	6831      	ldr	r1, [r6, #0]
 80009fc:	4843      	ldr	r0, [pc, #268]	; (8000b0c <StartHandRxHandler+0x134>)
 80009fe:	f003 fb81 	bl	8004104 <HAL_UART_Receive_DMA>
 8000a02:	4d43      	ldr	r5, [pc, #268]	; (8000b10 <StartHandRxHandler+0x138>)
 8000a04:	f8df 811c 	ldr.w	r8, [pc, #284]	; 8000b24 <StartHandRxHandler+0x14c>
 8000a08:	f8df b11c 	ldr.w	fp, [pc, #284]	; 8000b28 <StartHandRxHandler+0x150>
 8000a0c:	f8df a11c 	ldr.w	sl, [pc, #284]	; 8000b2c <StartHandRxHandler+0x154>
 8000a10:	f8df 911c 	ldr.w	r9, [pc, #284]	; 8000b30 <StartHandRxHandler+0x158>
 8000a14:	4f3f      	ldr	r7, [pc, #252]	; (8000b14 <StartHandRxHandler+0x13c>)
 8000a16:	2201      	movs	r2, #1
 8000a18:	f04f 33ff 	mov.w	r3, #4294967295
 8000a1c:	4611      	mov	r1, r2
 8000a1e:	6828      	ldr	r0, [r5, #0]
 8000a20:	f004 f8ae 	bl	8004b80 <osEventFlagsWait>
 8000a24:	6833      	ldr	r3, [r6, #0]
 8000a26:	681a      	ldr	r2, [r3, #0]
 8000a28:	68d9      	ldr	r1, [r3, #12]
 8000a2a:	f8d3 c004 	ldr.w	ip, [r3, #4]
 8000a2e:	6898      	ldr	r0, [r3, #8]
 8000a30:	6022      	str	r2, [r4, #0]
 8000a32:	60e1      	str	r1, [r4, #12]
 8000a34:	f8c4 c004 	str.w	ip, [r4, #4]
 8000a38:	60a0      	str	r0, [r4, #8]
 8000a3a:	691a      	ldr	r2, [r3, #16]
 8000a3c:	7821      	ldrb	r1, [r4, #0]
 8000a3e:	6122      	str	r2, [r4, #16]
 8000a40:	7d1b      	ldrb	r3, [r3, #20]
 8000a42:	29aa      	cmp	r1, #170	; 0xaa
 8000a44:	7523      	strb	r3, [r4, #20]
 8000a46:	d02d      	beq.n	8000aa4 <StartHandRxHandler+0xcc>
 8000a48:	2955      	cmp	r1, #85	; 0x55
 8000a4a:	d1e4      	bne.n	8000a16 <StartHandRxHandler+0x3e>
 8000a4c:	7d23      	ldrb	r3, [r4, #20]
 8000a4e:	2baa      	cmp	r3, #170	; 0xaa
 8000a50:	d1e1      	bne.n	8000a16 <StartHandRxHandler+0x3e>
 8000a52:	2201      	movs	r2, #1
 8000a54:	4621      	mov	r1, r4
 8000a56:	f8db 0000 	ldr.w	r0, [fp]
 8000a5a:	f007 f871 	bl	8007b40 <vServoUpdateSetup>
 8000a5e:	2207      	movs	r2, #7
 8000a60:	4621      	mov	r1, r4
 8000a62:	f8da 0000 	ldr.w	r0, [sl]
 8000a66:	f007 f86b 	bl	8007b40 <vServoUpdateSetup>
 8000a6a:	220d      	movs	r2, #13
 8000a6c:	4621      	mov	r1, r4
 8000a6e:	f8d9 0000 	ldr.w	r0, [r9]
 8000a72:	f007 f865 	bl	8007b40 <vServoUpdateSetup>
 8000a76:	4b28      	ldr	r3, [pc, #160]	; (8000b18 <StartHandRxHandler+0x140>)
 8000a78:	2204      	movs	r2, #4
 8000a7a:	6818      	ldr	r0, [r3, #0]
 8000a7c:	4621      	mov	r1, r4
 8000a7e:	f007 f85f 	bl	8007b40 <vServoUpdateSetup>
 8000a82:	4b26      	ldr	r3, [pc, #152]	; (8000b1c <StartHandRxHandler+0x144>)
 8000a84:	220a      	movs	r2, #10
 8000a86:	6818      	ldr	r0, [r3, #0]
 8000a88:	4621      	mov	r1, r4
 8000a8a:	f007 f859 	bl	8007b40 <vServoUpdateSetup>
 8000a8e:	4b24      	ldr	r3, [pc, #144]	; (8000b20 <StartHandRxHandler+0x148>)
 8000a90:	2210      	movs	r2, #16
 8000a92:	4621      	mov	r1, r4
 8000a94:	6818      	ldr	r0, [r3, #0]
 8000a96:	f007 f853 	bl	8007b40 <vServoUpdateSetup>
 8000a9a:	7ce3      	ldrb	r3, [r4, #19]
 8000a9c:	703b      	strb	r3, [r7, #0]
 8000a9e:	e7ba      	b.n	8000a16 <StartHandRxHandler+0x3e>
 8000aa0:	b672      	cpsid	i
 8000aa2:	e7fe      	b.n	8000aa2 <StartHandRxHandler+0xca>
 8000aa4:	b2db      	uxtb	r3, r3
 8000aa6:	2b55      	cmp	r3, #85	; 0x55
 8000aa8:	d1b5      	bne.n	8000a16 <StartHandRxHandler+0x3e>
 8000aaa:	2300      	movs	r3, #0
 8000aac:	6828      	ldr	r0, [r5, #0]
 8000aae:	f8c8 3000 	str.w	r3, [r8]
 8000ab2:	f004 f84b 	bl	8004b4c <osEventFlagsGet>
 8000ab6:	0603      	lsls	r3, r0, #24
 8000ab8:	d4ef      	bmi.n	8000a9a <StartHandRxHandler+0xc2>
 8000aba:	4621      	mov	r1, r4
 8000abc:	f8db 0000 	ldr.w	r0, [fp]
 8000ac0:	2201      	movs	r2, #1
 8000ac2:	f007 f803 	bl	8007acc <vServoUpdateCommand>
 8000ac6:	4621      	mov	r1, r4
 8000ac8:	f8da 0000 	ldr.w	r0, [sl]
 8000acc:	2207      	movs	r2, #7
 8000ace:	f006 fffd 	bl	8007acc <vServoUpdateCommand>
 8000ad2:	4621      	mov	r1, r4
 8000ad4:	f8d9 0000 	ldr.w	r0, [r9]
 8000ad8:	220d      	movs	r2, #13
 8000ada:	f006 fff7 	bl	8007acc <vServoUpdateCommand>
 8000ade:	4b10      	ldr	r3, [pc, #64]	; (8000b20 <StartHandRxHandler+0x148>)
 8000ae0:	4621      	mov	r1, r4
 8000ae2:	6818      	ldr	r0, [r3, #0]
 8000ae4:	2210      	movs	r2, #16
 8000ae6:	f006 fff1 	bl	8007acc <vServoUpdateCommand>
 8000aea:	4b0c      	ldr	r3, [pc, #48]	; (8000b1c <StartHandRxHandler+0x144>)
 8000aec:	4621      	mov	r1, r4
 8000aee:	6818      	ldr	r0, [r3, #0]
 8000af0:	220a      	movs	r2, #10
 8000af2:	f006 ffeb 	bl	8007acc <vServoUpdateCommand>
 8000af6:	4b08      	ldr	r3, [pc, #32]	; (8000b18 <StartHandRxHandler+0x140>)
 8000af8:	2204      	movs	r2, #4
 8000afa:	4621      	mov	r1, r4
 8000afc:	6818      	ldr	r0, [r3, #0]
 8000afe:	f006 ffe5 	bl	8007acc <vServoUpdateCommand>
 8000b02:	e7ca      	b.n	8000a9a <StartHandRxHandler+0xc2>
 8000b04:	b672      	cpsid	i
 8000b06:	e7fe      	b.n	8000b06 <StartHandRxHandler+0x12e>
 8000b08:	2000413c 	.word	0x2000413c
 8000b0c:	20004360 	.word	0x20004360
 8000b10:	200044f8 	.word	0x200044f8
 8000b14:	20004130 	.word	0x20004130
 8000b18:	20004418 	.word	0x20004418
 8000b1c:	20004138 	.word	0x20004138
 8000b20:	20004150 	.word	0x20004150
 8000b24:	20000054 	.word	0x20000054
 8000b28:	20004500 	.word	0x20004500
 8000b2c:	200044fc 	.word	0x200044fc
 8000b30:	20004408 	.word	0x20004408

08000b34 <StartHandMatrixHandler>:
 8000b34:	b5f0      	push	{r4, r5, r6, r7, lr}
 8000b36:	222c      	movs	r2, #44	; 0x2c
 8000b38:	210a      	movs	r1, #10
 8000b3a:	f44f 70dc 	mov.w	r0, #440	; 0x1b8
 8000b3e:	b083      	sub	sp, #12
 8000b40:	f006 fe0c 	bl	800775c <xMyArrayCreate>
 8000b44:	4d1c      	ldr	r5, [pc, #112]	; (8000bb8 <StartHandMatrixHandler+0x84>)
 8000b46:	6028      	str	r0, [r5, #0]
 8000b48:	b3a0      	cbz	r0, 8000bb4 <StartHandMatrixHandler+0x80>
 8000b4a:	4c1c      	ldr	r4, [pc, #112]	; (8000bbc <StartHandMatrixHandler+0x88>)
 8000b4c:	4e1c      	ldr	r6, [pc, #112]	; (8000bc0 <StartHandMatrixHandler+0x8c>)
 8000b4e:	f04f 33ff 	mov.w	r3, #4294967295
 8000b52:	2200      	movs	r2, #0
 8000b54:	6820      	ldr	r0, [r4, #0]
 8000b56:	a901      	add	r1, sp, #4
 8000b58:	f004 f8d8 	bl	8004d0c <osMessageQueueGet>
 8000b5c:	2800      	cmp	r0, #0
 8000b5e:	d1f6      	bne.n	8000b4e <StartHandMatrixHandler+0x1a>
 8000b60:	682b      	ldr	r3, [r5, #0]
 8000b62:	9801      	ldr	r0, [sp, #4]
 8000b64:	681b      	ldr	r3, [r3, #0]
 8000b66:	1cc2      	adds	r2, r0, #3
 8000b68:	1ad2      	subs	r2, r2, r3
 8000b6a:	2a06      	cmp	r2, #6
 8000b6c:	d910      	bls.n	8000b90 <StartHandMatrixHandler+0x5c>
 8000b6e:	4602      	mov	r2, r0
 8000b70:	f500 775c 	add.w	r7, r0, #880	; 0x370
 8000b74:	f852 1b04 	ldr.w	r1, [r2], #4
 8000b78:	42ba      	cmp	r2, r7
 8000b7a:	f843 1b04 	str.w	r1, [r3], #4
 8000b7e:	d1f9      	bne.n	8000b74 <StartHandMatrixHandler+0x40>
 8000b80:	f006 fd96 	bl	80076b0 <vPortFree>
 8000b84:	f44f 7180 	mov.w	r1, #256	; 0x100
 8000b88:	6830      	ldr	r0, [r6, #0]
 8000b8a:	f003 ff6d 	bl	8004a68 <osEventFlagsSet>
 8000b8e:	e7de      	b.n	8000b4e <StartHandMatrixHandler+0x1a>
 8000b90:	3b02      	subs	r3, #2
 8000b92:	1e82      	subs	r2, r0, #2
 8000b94:	f200 376e 	addw	r7, r0, #878	; 0x36e
 8000b98:	f832 1f02 	ldrh.w	r1, [r2, #2]!
 8000b9c:	42ba      	cmp	r2, r7
 8000b9e:	f823 1f02 	strh.w	r1, [r3, #2]!
 8000ba2:	d1f9      	bne.n	8000b98 <StartHandMatrixHandler+0x64>
 8000ba4:	f006 fd84 	bl	80076b0 <vPortFree>
 8000ba8:	f44f 7180 	mov.w	r1, #256	; 0x100
 8000bac:	6830      	ldr	r0, [r6, #0]
 8000bae:	f003 ff5b 	bl	8004a68 <osEventFlagsSet>
 8000bb2:	e7cc      	b.n	8000b4e <StartHandMatrixHandler+0x1a>
 8000bb4:	b672      	cpsid	i
 8000bb6:	e7fe      	b.n	8000bb6 <StartHandMatrixHandler+0x82>
 8000bb8:	20004468 	.word	0x20004468
 8000bbc:	2000447c 	.word	0x2000447c
 8000bc0:	200044f8 	.word	0x200044f8

08000bc4 <StartHandStopServo>:
 8000bc4:	e92d 4888 	stmdb	sp!, {r3, r7, fp, lr}
 8000bc8:	2700      	movs	r7, #0
 8000bca:	4d39      	ldr	r5, [pc, #228]	; (8000cb0 <StartHandStopServo+0xec>)
 8000bcc:	4c39      	ldr	r4, [pc, #228]	; (8000cb4 <StartHandStopServo+0xf0>)
 8000bce:	f8df b0f4 	ldr.w	fp, [pc, #244]	; 8000cc4 <StartHandStopServo+0x100>
 8000bd2:	4e39      	ldr	r6, [pc, #228]	; (8000cb8 <StartHandStopServo+0xf4>)
 8000bd4:	f8df a0f0 	ldr.w	sl, [pc, #240]	; 8000cc8 <StartHandStopServo+0x104>
 8000bd8:	f8df 90f0 	ldr.w	r9, [pc, #240]	; 8000ccc <StartHandStopServo+0x108>
 8000bdc:	f8df 80f0 	ldr.w	r8, [pc, #240]	; 8000cd0 <StartHandStopServo+0x10c>
 8000be0:	f04f 33ff 	mov.w	r3, #4294967295
 8000be4:	217e      	movs	r1, #126	; 0x7e
 8000be6:	2202      	movs	r2, #2
 8000be8:	6828      	ldr	r0, [r5, #0]
 8000bea:	f003 ffc9 	bl	8004b80 <osEventFlagsWait>
 8000bee:	6828      	ldr	r0, [r5, #0]
 8000bf0:	f003 ffac 	bl	8004b4c <osEventFlagsGet>
 8000bf4:	6020      	str	r0, [r4, #0]
 8000bf6:	6823      	ldr	r3, [r4, #0]
 8000bf8:	0799      	lsls	r1, r3, #30
 8000bfa:	d44d      	bmi.n	8000c98 <StartHandStopServo+0xd4>
 8000bfc:	6823      	ldr	r3, [r4, #0]
 8000bfe:	075a      	lsls	r2, r3, #29
 8000c00:	d43e      	bmi.n	8000c80 <StartHandStopServo+0xbc>
 8000c02:	6823      	ldr	r3, [r4, #0]
 8000c04:	071b      	lsls	r3, r3, #28
 8000c06:	d42f      	bmi.n	8000c68 <StartHandStopServo+0xa4>
 8000c08:	6823      	ldr	r3, [r4, #0]
 8000c0a:	06d8      	lsls	r0, r3, #27
 8000c0c:	d420      	bmi.n	8000c50 <StartHandStopServo+0x8c>
 8000c0e:	6823      	ldr	r3, [r4, #0]
 8000c10:	0699      	lsls	r1, r3, #26
 8000c12:	d40e      	bmi.n	8000c32 <StartHandStopServo+0x6e>
 8000c14:	6823      	ldr	r3, [r4, #0]
 8000c16:	065b      	lsls	r3, r3, #25
 8000c18:	d5e2      	bpl.n	8000be0 <StartHandStopServo+0x1c>
 8000c1a:	2140      	movs	r1, #64	; 0x40
 8000c1c:	6828      	ldr	r0, [r5, #0]
 8000c1e:	f003 ff65 	bl	8004aec <osEventFlagsClear>
 8000c22:	4b26      	ldr	r3, [pc, #152]	; (8000cbc <StartHandStopServo+0xf8>)
 8000c24:	2140      	movs	r1, #64	; 0x40
 8000c26:	681b      	ldr	r3, [r3, #0]
 8000c28:	709f      	strb	r7, [r3, #2]
 8000c2a:	6830      	ldr	r0, [r6, #0]
 8000c2c:	f003 ff5e 	bl	8004aec <osEventFlagsClear>
 8000c30:	e7d6      	b.n	8000be0 <StartHandStopServo+0x1c>
 8000c32:	2120      	movs	r1, #32
 8000c34:	6828      	ldr	r0, [r5, #0]
 8000c36:	f003 ff59 	bl	8004aec <osEventFlagsClear>
 8000c3a:	4b21      	ldr	r3, [pc, #132]	; (8000cc0 <StartHandStopServo+0xfc>)
 8000c3c:	2110      	movs	r1, #16
 8000c3e:	681b      	ldr	r3, [r3, #0]
 8000c40:	709f      	strb	r7, [r3, #2]
 8000c42:	6830      	ldr	r0, [r6, #0]
 8000c44:	f003 ff52 	bl	8004aec <osEventFlagsClear>
 8000c48:	6823      	ldr	r3, [r4, #0]
 8000c4a:	065a      	lsls	r2, r3, #25
 8000c4c:	d5c8      	bpl.n	8000be0 <StartHandStopServo+0x1c>
 8000c4e:	e7e4      	b.n	8000c1a <StartHandStopServo+0x56>
 8000c50:	2110      	movs	r1, #16
 8000c52:	6828      	ldr	r0, [r5, #0]
 8000c54:	f003 ff4a 	bl	8004aec <osEventFlagsClear>
 8000c58:	f8d8 3000 	ldr.w	r3, [r8]
 8000c5c:	2104      	movs	r1, #4
 8000c5e:	709f      	strb	r7, [r3, #2]
 8000c60:	6830      	ldr	r0, [r6, #0]
 8000c62:	f003 ff43 	bl	8004aec <osEventFlagsClear>
 8000c66:	e7d2      	b.n	8000c0e <StartHandStopServo+0x4a>
 8000c68:	2108      	movs	r1, #8
 8000c6a:	6828      	ldr	r0, [r5, #0]
 8000c6c:	f003 ff3e 	bl	8004aec <osEventFlagsClear>
 8000c70:	f8d9 3000 	ldr.w	r3, [r9]
 8000c74:	2120      	movs	r1, #32
 8000c76:	709f      	strb	r7, [r3, #2]
 8000c78:	6830      	ldr	r0, [r6, #0]
 8000c7a:	f003 ff37 	bl	8004aec <osEventFlagsClear>
 8000c7e:	e7c3      	b.n	8000c08 <StartHandStopServo+0x44>
 8000c80:	2104      	movs	r1, #4
 8000c82:	6828      	ldr	r0, [r5, #0]
 8000c84:	f003 ff32 	bl	8004aec <osEventFlagsClear>
 8000c88:	f8da 3000 	ldr.w	r3, [sl]
 8000c8c:	2108      	movs	r1, #8
 8000c8e:	709f      	strb	r7, [r3, #2]
 8000c90:	6830      	ldr	r0, [r6, #0]
 8000c92:	f003 ff2b 	bl	8004aec <osEventFlagsClear>
 8000c96:	e7b4      	b.n	8000c02 <StartHandStopServo+0x3e>
 8000c98:	2102      	movs	r1, #2
 8000c9a:	6828      	ldr	r0, [r5, #0]
 8000c9c:	f003 ff26 	bl	8004aec <osEventFlagsClear>
 8000ca0:	f8db 3000 	ldr.w	r3, [fp]
 8000ca4:	2102      	movs	r1, #2
 8000ca6:	709f      	strb	r7, [r3, #2]
 8000ca8:	6830      	ldr	r0, [r6, #0]
 8000caa:	f003 ff1f 	bl	8004aec <osEventFlagsClear>
 8000cae:	e7a5      	b.n	8000bfc <StartHandStopServo+0x38>
 8000cb0:	200044ec 	.word	0x200044ec
 8000cb4:	20000058 	.word	0x20000058
 8000cb8:	200044f8 	.word	0x200044f8
 8000cbc:	20004150 	.word	0x20004150
 8000cc0:	20004138 	.word	0x20004138
 8000cc4:	20004500 	.word	0x20004500
 8000cc8:	200044fc 	.word	0x200044fc
 8000ccc:	20004408 	.word	0x20004408
 8000cd0:	20004418 	.word	0x20004418

08000cd4 <StartHandPeakControl>:
 8000cd4:	e92d 4880 	stmdb	sp!, {r7, fp, lr}
 8000cd8:	2218      	movs	r2, #24
 8000cda:	2105      	movs	r1, #5
 8000cdc:	2078      	movs	r0, #120	; 0x78
 8000cde:	b085      	sub	sp, #20
 8000ce0:	f006 fd3c 	bl	800775c <xMyArrayCreate>
 8000ce4:	4cb3      	ldr	r4, [pc, #716]	; (8000fb4 <StartHandPeakControl+0x2e0>)
 8000ce6:	6020      	str	r0, [r4, #0]
 8000ce8:	2800      	cmp	r0, #0
 8000cea:	f000 8226 	beq.w	800113a <StartHandPeakControl+0x466>
 8000cee:	2218      	movs	r2, #24
 8000cf0:	2105      	movs	r1, #5
 8000cf2:	2078      	movs	r0, #120	; 0x78
 8000cf4:	f006 fd32 	bl	800775c <xMyArrayCreate>
 8000cf8:	4daf      	ldr	r5, [pc, #700]	; (8000fb8 <StartHandPeakControl+0x2e4>)
 8000cfa:	6028      	str	r0, [r5, #0]
 8000cfc:	2800      	cmp	r0, #0
 8000cfe:	f000 821a 	beq.w	8001136 <StartHandPeakControl+0x462>
 8000d02:	2208      	movs	r2, #8
 8000d04:	2105      	movs	r1, #5
 8000d06:	2028      	movs	r0, #40	; 0x28
 8000d08:	f006 fd28 	bl	800775c <xMyArrayCreate>
 8000d0c:	4bab      	ldr	r3, [pc, #684]	; (8000fbc <StartHandPeakControl+0x2e8>)
 8000d0e:	6018      	str	r0, [r3, #0]
 8000d10:	2800      	cmp	r0, #0
 8000d12:	f000 8214 	beq.w	800113e <StartHandPeakControl+0x46a>
 8000d16:	2208      	movs	r2, #8
 8000d18:	2105      	movs	r1, #5
 8000d1a:	2028      	movs	r0, #40	; 0x28
 8000d1c:	f006 fd1e 	bl	800775c <xMyArrayCreate>
 8000d20:	f8df 92e4 	ldr.w	r9, [pc, #740]	; 8001008 <StartHandPeakControl+0x334>
 8000d24:	f8c9 0000 	str.w	r0, [r9]
 8000d28:	2800      	cmp	r0, #0
 8000d2a:	f000 820a 	beq.w	8001142 <StartHandPeakControl+0x46e>
 8000d2e:	2208      	movs	r2, #8
 8000d30:	2105      	movs	r1, #5
 8000d32:	2028      	movs	r0, #40	; 0x28
 8000d34:	f006 fd12 	bl	800775c <xMyArrayCreate>
 8000d38:	4ba1      	ldr	r3, [pc, #644]	; (8000fc0 <StartHandPeakControl+0x2ec>)
 8000d3a:	6018      	str	r0, [r3, #0]
 8000d3c:	2800      	cmp	r0, #0
 8000d3e:	f000 8202 	beq.w	8001146 <StartHandPeakControl+0x472>
 8000d42:	2208      	movs	r2, #8
 8000d44:	2105      	movs	r1, #5
 8000d46:	2028      	movs	r0, #40	; 0x28
 8000d48:	f006 fd08 	bl	800775c <xMyArrayCreate>
 8000d4c:	f8df b2bc 	ldr.w	fp, [pc, #700]	; 800100c <StartHandPeakControl+0x338>
 8000d50:	f8cb 0000 	str.w	r0, [fp]
 8000d54:	2800      	cmp	r0, #0
 8000d56:	f000 828a 	beq.w	800126e <StartHandPeakControl+0x59a>
 8000d5a:	2208      	movs	r2, #8
 8000d5c:	2105      	movs	r1, #5
 8000d5e:	2028      	movs	r0, #40	; 0x28
 8000d60:	f006 fcfc 	bl	800775c <xMyArrayCreate>
 8000d64:	4b97      	ldr	r3, [pc, #604]	; (8000fc4 <StartHandPeakControl+0x2f0>)
 8000d66:	6018      	str	r0, [r3, #0]
 8000d68:	2800      	cmp	r0, #0
 8000d6a:	f000 8290 	beq.w	800128e <StartHandPeakControl+0x5ba>
 8000d6e:	2208      	movs	r2, #8
 8000d70:	2105      	movs	r1, #5
 8000d72:	2028      	movs	r0, #40	; 0x28
 8000d74:	f006 fcf2 	bl	800775c <xMyArrayCreate>
 8000d78:	f8df a294 	ldr.w	sl, [pc, #660]	; 8001010 <StartHandPeakControl+0x33c>
 8000d7c:	f8ca 0000 	str.w	r0, [sl]
 8000d80:	2800      	cmp	r0, #0
 8000d82:	f000 8282 	beq.w	800128a <StartHandPeakControl+0x5b6>
 8000d86:	2600      	movs	r6, #0
 8000d88:	4b8f      	ldr	r3, [pc, #572]	; (8000fc8 <StartHandPeakControl+0x2f4>)
 8000d8a:	2201      	movs	r2, #1
 8000d8c:	f44f 5100 	mov.w	r1, #8192	; 0x2000
 8000d90:	488e      	ldr	r0, [pc, #568]	; (8000fcc <StartHandPeakControl+0x2f8>)
 8000d92:	601e      	str	r6, [r3, #0]
 8000d94:	f002 f91e 	bl	8002fd4 <HAL_GPIO_WritePin>
 8000d98:	4b8d      	ldr	r3, [pc, #564]	; (8000fd0 <StartHandPeakControl+0x2fc>)
 8000d9a:	2180      	movs	r1, #128	; 0x80
 8000d9c:	6818      	ldr	r0, [r3, #0]
 8000d9e:	f003 fea5 	bl	8004aec <osEventFlagsClear>
 8000da2:	4f8c      	ldr	r7, [pc, #560]	; (8000fd4 <StartHandPeakControl+0x300>)
 8000da4:	f8df 826c 	ldr.w	r8, [pc, #620]	; 8001014 <StartHandPeakControl+0x340>
 8000da8:	4e8b      	ldr	r6, [pc, #556]	; (8000fd8 <StartHandPeakControl+0x304>)
 8000daa:	4889      	ldr	r0, [pc, #548]	; (8000fd0 <StartHandPeakControl+0x2fc>)
 8000dac:	f04f 33ff 	mov.w	r3, #4294967295
 8000db0:	2203      	movs	r2, #3
 8000db2:	2180      	movs	r1, #128	; 0x80
 8000db4:	6800      	ldr	r0, [r0, #0]
 8000db6:	f003 fee3 	bl	8004b80 <osEventFlagsWait>
 8000dba:	4885      	ldr	r0, [pc, #532]	; (8000fd0 <StartHandPeakControl+0x2fc>)
 8000dbc:	f04f 33ff 	mov.w	r3, #4294967295
 8000dc0:	2201      	movs	r2, #1
 8000dc2:	f44f 7180 	mov.w	r1, #256	; 0x100
 8000dc6:	6800      	ldr	r0, [r0, #0]
 8000dc8:	f003 feda 	bl	8004b80 <osEventFlagsWait>
 8000dcc:	4883      	ldr	r0, [pc, #524]	; (8000fdc <StartHandPeakControl+0x308>)
 8000dce:	2300      	movs	r3, #0
 8000dd0:	2205      	movs	r2, #5
 8000dd2:	6821      	ldr	r1, [r4, #0]
 8000dd4:	6800      	ldr	r0, [r0, #0]
 8000dd6:	f006 fcd7 	bl	8007788 <eMyArraySplit>
 8000dda:	2300      	movs	r3, #0
 8000ddc:	487f      	ldr	r0, [pc, #508]	; (8000fdc <StartHandPeakControl+0x308>)
 8000dde:	461a      	mov	r2, r3
 8000de0:	6829      	ldr	r1, [r5, #0]
 8000de2:	6800      	ldr	r0, [r0, #0]
 8000de4:	f006 fcd0 	bl	8007788 <eMyArraySplit>
 8000de8:	2300      	movs	r3, #0
 8000dea:	4a74      	ldr	r2, [pc, #464]	; (8000fbc <StartHandPeakControl+0x2e8>)
 8000dec:	6820      	ldr	r0, [r4, #0]
 8000dee:	6811      	ldr	r1, [r2, #0]
 8000df0:	461a      	mov	r2, r3
 8000df2:	f006 fcc9 	bl	8007788 <eMyArraySplit>
 8000df6:	2308      	movs	r3, #8
 8000df8:	2200      	movs	r2, #0
 8000dfa:	f8d9 1000 	ldr.w	r1, [r9]
 8000dfe:	6820      	ldr	r0, [r4, #0]
 8000e00:	f006 fcc2 	bl	8007788 <eMyArraySplit>
 8000e04:	496e      	ldr	r1, [pc, #440]	; (8000fc0 <StartHandPeakControl+0x2ec>)
 8000e06:	2310      	movs	r3, #16
 8000e08:	2200      	movs	r2, #0
 8000e0a:	6809      	ldr	r1, [r1, #0]
 8000e0c:	6820      	ldr	r0, [r4, #0]
 8000e0e:	f006 fcbb 	bl	8007788 <eMyArraySplit>
 8000e12:	2300      	movs	r3, #0
 8000e14:	f8db 1000 	ldr.w	r1, [fp]
 8000e18:	461a      	mov	r2, r3
 8000e1a:	6828      	ldr	r0, [r5, #0]
 8000e1c:	f006 fcb4 	bl	8007788 <eMyArraySplit>
 8000e20:	4868      	ldr	r0, [pc, #416]	; (8000fc4 <StartHandPeakControl+0x2f0>)
 8000e22:	2308      	movs	r3, #8
 8000e24:	6801      	ldr	r1, [r0, #0]
 8000e26:	2200      	movs	r2, #0
 8000e28:	6828      	ldr	r0, [r5, #0]
 8000e2a:	f006 fcad 	bl	8007788 <eMyArraySplit>
 8000e2e:	f8da 1000 	ldr.w	r1, [sl]
 8000e32:	2310      	movs	r3, #16
 8000e34:	2200      	movs	r2, #0
 8000e36:	6828      	ldr	r0, [r5, #0]
 8000e38:	f006 fca6 	bl	8007788 <eMyArraySplit>
 8000e3c:	4a5f      	ldr	r2, [pc, #380]	; (8000fbc <StartHandPeakControl+0x2e8>)
 8000e3e:	6810      	ldr	r0, [r2, #0]
 8000e40:	f006 fd0c 	bl	800785c <uMyArrayFindMax>
 8000e44:	4603      	mov	r3, r0
 8000e46:	f8d9 0000 	ldr.w	r0, [r9]
 8000e4a:	803b      	strh	r3, [r7, #0]
 8000e4c:	f006 fd06 	bl	800785c <uMyArrayFindMax>
 8000e50:	4603      	mov	r3, r0
 8000e52:	495b      	ldr	r1, [pc, #364]	; (8000fc0 <StartHandPeakControl+0x2ec>)
 8000e54:	4a62      	ldr	r2, [pc, #392]	; (8000fe0 <StartHandPeakControl+0x30c>)
 8000e56:	6808      	ldr	r0, [r1, #0]
 8000e58:	8013      	strh	r3, [r2, #0]
 8000e5a:	f006 fcff 	bl	800785c <uMyArrayFindMax>
 8000e5e:	4603      	mov	r3, r0
 8000e60:	4960      	ldr	r1, [pc, #384]	; (8000fe4 <StartHandPeakControl+0x310>)
 8000e62:	f8db 0000 	ldr.w	r0, [fp]
 8000e66:	800b      	strh	r3, [r1, #0]
 8000e68:	f006 fcf8 	bl	800785c <uMyArrayFindMax>
 8000e6c:	4603      	mov	r3, r0
 8000e6e:	4855      	ldr	r0, [pc, #340]	; (8000fc4 <StartHandPeakControl+0x2f0>)
 8000e70:	f8a8 3000 	strh.w	r3, [r8]
 8000e74:	6800      	ldr	r0, [r0, #0]
 8000e76:	f006 fcf1 	bl	800785c <uMyArrayFindMax>
 8000e7a:	4603      	mov	r3, r0
 8000e7c:	495a      	ldr	r1, [pc, #360]	; (8000fe8 <StartHandPeakControl+0x314>)
 8000e7e:	f8da 0000 	ldr.w	r0, [sl]
 8000e82:	800b      	strh	r3, [r1, #0]
 8000e84:	f006 fcea 	bl	800785c <uMyArrayFindMax>
 8000e88:	4b58      	ldr	r3, [pc, #352]	; (8000fec <StartHandPeakControl+0x318>)
 8000e8a:	4959      	ldr	r1, [pc, #356]	; (8000ff0 <StartHandPeakControl+0x31c>)
 8000e8c:	8018      	strh	r0, [r3, #0]
 8000e8e:	4b59      	ldr	r3, [pc, #356]	; (8000ff4 <StartHandPeakControl+0x320>)
 8000e90:	781b      	ldrb	r3, [r3, #0]
 8000e92:	f831 3013 	ldrh.w	r3, [r1, r3, lsl #1]
 8000e96:	005b      	lsls	r3, r3, #1
 8000e98:	b29b      	uxth	r3, r3
 8000e9a:	8033      	strh	r3, [r6, #0]
 8000e9c:	4b56      	ldr	r3, [pc, #344]	; (8000ff8 <StartHandPeakControl+0x324>)
 8000e9e:	781b      	ldrb	r3, [r3, #0]
 8000ea0:	2b00      	cmp	r3, #0
 8000ea2:	d144      	bne.n	8000f2e <StartHandPeakControl+0x25a>
 8000ea4:	4a4e      	ldr	r2, [pc, #312]	; (8000fe0 <StartHandPeakControl+0x30c>)
 8000ea6:	883b      	ldrh	r3, [r7, #0]
 8000ea8:	8811      	ldrh	r1, [r2, #0]
 8000eaa:	b29b      	uxth	r3, r3
 8000eac:	8832      	ldrh	r2, [r6, #0]
 8000eae:	b289      	uxth	r1, r1
 8000eb0:	440b      	add	r3, r1
 8000eb2:	3364      	adds	r3, #100	; 0x64
 8000eb4:	b292      	uxth	r2, r2
 8000eb6:	4293      	cmp	r3, r2
 8000eb8:	f240 8147 	bls.w	800114a <StartHandPeakControl+0x476>
 8000ebc:	8838      	ldrh	r0, [r7, #0]
 8000ebe:	8832      	ldrh	r2, [r6, #0]
 8000ec0:	b280      	uxth	r0, r0
 8000ec2:	b292      	uxth	r2, r2
 8000ec4:	9201      	str	r2, [sp, #4]
 8000ec6:	f7ff fab1 	bl	800042c <__aeabi_i2f>
 8000eca:	4603      	mov	r3, r0
 8000ecc:	9a01      	ldr	r2, [sp, #4]
 8000ece:	9301      	str	r3, [sp, #4]
 8000ed0:	4610      	mov	r0, r2
 8000ed2:	f7ff faab 	bl	800042c <__aeabi_i2f>
 8000ed6:	4949      	ldr	r1, [pc, #292]	; (8000ffc <StartHandPeakControl+0x328>)
 8000ed8:	f7ff f93a 	bl	8000150 <__aeabi_fmul>
 8000edc:	9b01      	ldr	r3, [sp, #4]
 8000ede:	4601      	mov	r1, r0
 8000ee0:	4618      	mov	r0, r3
 8000ee2:	f7ff fb63 	bl	80005ac <__aeabi_fcmpgt>
 8000ee6:	2800      	cmp	r0, #0
 8000ee8:	f000 812f 	beq.w	800114a <StartHandPeakControl+0x476>
 8000eec:	4a3c      	ldr	r2, [pc, #240]	; (8000fe0 <StartHandPeakControl+0x30c>)
 8000eee:	8810      	ldrh	r0, [r2, #0]
 8000ef0:	8832      	ldrh	r2, [r6, #0]
 8000ef2:	b280      	uxth	r0, r0
 8000ef4:	b292      	uxth	r2, r2
 8000ef6:	9201      	str	r2, [sp, #4]
 8000ef8:	f7ff fa98 	bl	800042c <__aeabi_i2f>
 8000efc:	4603      	mov	r3, r0
 8000efe:	9a01      	ldr	r2, [sp, #4]
 8000f00:	9301      	str	r3, [sp, #4]
 8000f02:	4610      	mov	r0, r2
 8000f04:	f7ff fa92 	bl	800042c <__aeabi_i2f>
 8000f08:	493c      	ldr	r1, [pc, #240]	; (8000ffc <StartHandPeakControl+0x328>)
 8000f0a:	f7ff f921 	bl	8000150 <__aeabi_fmul>
 8000f0e:	9b01      	ldr	r3, [sp, #4]
 8000f10:	4601      	mov	r1, r0
 8000f12:	4618      	mov	r0, r3
 8000f14:	f7ff fb4a 	bl	80005ac <__aeabi_fcmpgt>
 8000f18:	2800      	cmp	r0, #0
 8000f1a:	f000 8116 	beq.w	800114a <StartHandPeakControl+0x476>
 8000f1e:	2301      	movs	r3, #1
 8000f20:	4a37      	ldr	r2, [pc, #220]	; (8001000 <StartHandPeakControl+0x32c>)
 8000f22:	2106      	movs	r1, #6
 8000f24:	6810      	ldr	r0, [r2, #0]
 8000f26:	4a34      	ldr	r2, [pc, #208]	; (8000ff8 <StartHandPeakControl+0x324>)
 8000f28:	7013      	strb	r3, [r2, #0]
 8000f2a:	f003 fd9d 	bl	8004a68 <osEventFlagsSet>
 8000f2e:	4b35      	ldr	r3, [pc, #212]	; (8001004 <StartHandPeakControl+0x330>)
 8000f30:	781b      	ldrb	r3, [r3, #0]
 8000f32:	2b00      	cmp	r3, #0
 8000f34:	d178      	bne.n	8001028 <StartHandPeakControl+0x354>
 8000f36:	4a2b      	ldr	r2, [pc, #172]	; (8000fe4 <StartHandPeakControl+0x310>)
 8000f38:	883b      	ldrh	r3, [r7, #0]
 8000f3a:	8811      	ldrh	r1, [r2, #0]
 8000f3c:	b29b      	uxth	r3, r3
 8000f3e:	8832      	ldrh	r2, [r6, #0]
 8000f40:	b289      	uxth	r1, r1
 8000f42:	440b      	add	r3, r1
 8000f44:	3364      	adds	r3, #100	; 0x64
 8000f46:	b292      	uxth	r2, r2
 8000f48:	4293      	cmp	r3, r2
 8000f4a:	f240 813e 	bls.w	80011ca <StartHandPeakControl+0x4f6>
 8000f4e:	8838      	ldrh	r0, [r7, #0]
 8000f50:	8832      	ldrh	r2, [r6, #0]
 8000f52:	b280      	uxth	r0, r0
 8000f54:	b292      	uxth	r2, r2
 8000f56:	9201      	str	r2, [sp, #4]
 8000f58:	f7ff fa68 	bl	800042c <__aeabi_i2f>
 8000f5c:	4603      	mov	r3, r0
 8000f5e:	9a01      	ldr	r2, [sp, #4]
 8000f60:	9301      	str	r3, [sp, #4]
 8000f62:	4610      	mov	r0, r2
 8000f64:	f7ff fa62 	bl	800042c <__aeabi_i2f>
 8000f68:	4924      	ldr	r1, [pc, #144]	; (8000ffc <StartHandPeakControl+0x328>)
 8000f6a:	f7ff f8f1 	bl	8000150 <__aeabi_fmul>
 8000f6e:	9b01      	ldr	r3, [sp, #4]
 8000f70:	4601      	mov	r1, r0
 8000f72:	4618      	mov	r0, r3
 8000f74:	f7ff fb1a 	bl	80005ac <__aeabi_fcmpgt>
 8000f78:	2800      	cmp	r0, #0
 8000f7a:	f000 8126 	beq.w	80011ca <StartHandPeakControl+0x4f6>
 8000f7e:	4a19      	ldr	r2, [pc, #100]	; (8000fe4 <StartHandPeakControl+0x310>)
 8000f80:	8810      	ldrh	r0, [r2, #0]
 8000f82:	8832      	ldrh	r2, [r6, #0]
 8000f84:	b280      	uxth	r0, r0
 8000f86:	b292      	uxth	r2, r2
 8000f88:	9201      	str	r2, [sp, #4]
 8000f8a:	f7ff fa4f 	bl	800042c <__aeabi_i2f>
 8000f8e:	4603      	mov	r3, r0
 8000f90:	9a01      	ldr	r2, [sp, #4]
 8000f92:	9301      	str	r3, [sp, #4]
 8000f94:	4610      	mov	r0, r2
 8000f96:	f7ff fa49 	bl	800042c <__aeabi_i2f>
 8000f9a:	4918      	ldr	r1, [pc, #96]	; (8000ffc <StartHandPeakControl+0x328>)
 8000f9c:	f7ff f8d8 	bl	8000150 <__aeabi_fmul>
 8000fa0:	9b01      	ldr	r3, [sp, #4]
 8000fa2:	4601      	mov	r1, r0
 8000fa4:	4618      	mov	r0, r3
 8000fa6:	f7ff fb01 	bl	80005ac <__aeabi_fcmpgt>
 8000faa:	2800      	cmp	r0, #0
 8000fac:	f000 810d 	beq.w	80011ca <StartHandPeakControl+0x4f6>
 8000fb0:	e032      	b.n	8001018 <StartHandPeakControl+0x344>
 8000fb2:	bf00      	nop
 8000fb4:	20004220 	.word	0x20004220
 8000fb8:	20004410 	.word	0x20004410
 8000fbc:	20004154 	.word	0x20004154
 8000fc0:	20004134 	.word	0x20004134
 8000fc4:	20004230 	.word	0x20004230
 8000fc8:	20000054 	.word	0x20000054
 8000fcc:	40011000 	.word	0x40011000
 8000fd0:	200044f8 	.word	0x200044f8
 8000fd4:	2000430c 	.word	0x2000430c
 8000fd8:	200044d8 	.word	0x200044d8
 8000fdc:	20004468 	.word	0x20004468
 8000fe0:	200043fe 	.word	0x200043fe
 8000fe4:	20004158 	.word	0x20004158
 8000fe8:	200044d0 	.word	0x200044d0
 8000fec:	200044e8 	.word	0x200044e8
 8000ff0:	20000000 	.word	0x20000000
 8000ff4:	20004130 	.word	0x20004130
 8000ff8:	2000446c 	.word	0x2000446c
 8000ffc:	3e99999a 	.word	0x3e99999a
 8001000:	200044ec 	.word	0x200044ec
 8001004:	20004148 	.word	0x20004148
 8001008:	20004404 	.word	0x20004404
 800100c:	2000428c 	.word	0x2000428c
 8001010:	200044e0 	.word	0x200044e0
 8001014:	20004400 	.word	0x20004400
 8001018:	2301      	movs	r3, #1
 800101a:	4a9e      	ldr	r2, [pc, #632]	; (8001294 <StartHandPeakControl+0x5c0>)
 800101c:	210a      	movs	r1, #10
 800101e:	6810      	ldr	r0, [r2, #0]
 8001020:	4a9d      	ldr	r2, [pc, #628]	; (8001298 <StartHandPeakControl+0x5c4>)
 8001022:	7013      	strb	r3, [r2, #0]
 8001024:	f003 fd20 	bl	8004a68 <osEventFlagsSet>
 8001028:	4b9c      	ldr	r3, [pc, #624]	; (800129c <StartHandPeakControl+0x5c8>)
 800102a:	781b      	ldrb	r3, [r3, #0]
 800102c:	2b00      	cmp	r3, #0
 800102e:	f47f aebc 	bne.w	8000daa <StartHandPeakControl+0xd6>
 8001032:	4b9b      	ldr	r3, [pc, #620]	; (80012a0 <StartHandPeakControl+0x5cc>)
 8001034:	781b      	ldrb	r3, [r3, #0]
 8001036:	2b01      	cmp	r3, #1
 8001038:	f47f aeb7 	bne.w	8000daa <StartHandPeakControl+0xd6>
 800103c:	4b96      	ldr	r3, [pc, #600]	; (8001298 <StartHandPeakControl+0x5c4>)
 800103e:	781b      	ldrb	r3, [r3, #0]
 8001040:	2b01      	cmp	r3, #1
 8001042:	b2da      	uxtb	r2, r3
 8001044:	f47f aeb1 	bne.w	8000daa <StartHandPeakControl+0xd6>
 8001048:	4b94      	ldr	r3, [pc, #592]	; (800129c <StartHandPeakControl+0x5c8>)
 800104a:	701a      	strb	r2, [r3, #0]
 800104c:	4b95      	ldr	r3, [pc, #596]	; (80012a4 <StartHandPeakControl+0x5d0>)
 800104e:	4a96      	ldr	r2, [pc, #600]	; (80012a8 <StartHandPeakControl+0x5d4>)
 8001050:	781b      	ldrb	r3, [r3, #0]
 8001052:	f832 3013 	ldrh.w	r3, [r2, r3, lsl #1]
 8001056:	f8ad 300e 	strh.w	r3, [sp, #14]
 800105a:	883a      	ldrh	r2, [r7, #0]
 800105c:	f8bd 300e 	ldrh.w	r3, [sp, #14]
 8001060:	b292      	uxth	r2, r2
 8001062:	b29b      	uxth	r3, r3
 8001064:	429a      	cmp	r2, r3
 8001066:	f200 80f6 	bhi.w	8001256 <StartHandPeakControl+0x582>
 800106a:	f8b8 2000 	ldrh.w	r2, [r8]
 800106e:	f8bd 300e 	ldrh.w	r3, [sp, #14]
 8001072:	b292      	uxth	r2, r2
 8001074:	b29b      	uxth	r3, r3
 8001076:	429a      	cmp	r2, r3
 8001078:	f200 80ed 	bhi.w	8001256 <StartHandPeakControl+0x582>
 800107c:	883a      	ldrh	r2, [r7, #0]
 800107e:	f8bd 300e 	ldrh.w	r3, [sp, #14]
 8001082:	b292      	uxth	r2, r2
 8001084:	b29b      	uxth	r3, r3
 8001086:	429a      	cmp	r2, r3
 8001088:	d208      	bcs.n	800109c <StartHandPeakControl+0x3c8>
 800108a:	f8b8 2000 	ldrh.w	r2, [r8]
 800108e:	f8bd 300e 	ldrh.w	r3, [sp, #14]
 8001092:	b292      	uxth	r2, r2
 8001094:	b29b      	uxth	r3, r3
 8001096:	429a      	cmp	r2, r3
 8001098:	f0c0 80eb 	bcc.w	8001272 <StartHandPeakControl+0x59e>
 800109c:	4b83      	ldr	r3, [pc, #524]	; (80012ac <StartHandPeakControl+0x5d8>)
 800109e:	881a      	ldrh	r2, [r3, #0]
 80010a0:	f8bd 300e 	ldrh.w	r3, [sp, #14]
 80010a4:	b292      	uxth	r2, r2
 80010a6:	b29b      	uxth	r3, r3
 80010a8:	429a      	cmp	r2, r3
 80010aa:	f200 80ce 	bhi.w	800124a <StartHandPeakControl+0x576>
 80010ae:	4b80      	ldr	r3, [pc, #512]	; (80012b0 <StartHandPeakControl+0x5dc>)
 80010b0:	881a      	ldrh	r2, [r3, #0]
 80010b2:	f8bd 300e 	ldrh.w	r3, [sp, #14]
 80010b6:	b292      	uxth	r2, r2
 80010b8:	b29b      	uxth	r3, r3
 80010ba:	429a      	cmp	r2, r3
 80010bc:	f200 80c5 	bhi.w	800124a <StartHandPeakControl+0x576>
 80010c0:	4b7a      	ldr	r3, [pc, #488]	; (80012ac <StartHandPeakControl+0x5d8>)
 80010c2:	881a      	ldrh	r2, [r3, #0]
 80010c4:	f8bd 300e 	ldrh.w	r3, [sp, #14]
 80010c8:	b292      	uxth	r2, r2
 80010ca:	b29b      	uxth	r3, r3
 80010cc:	429a      	cmp	r2, r3
 80010ce:	d208      	bcs.n	80010e2 <StartHandPeakControl+0x40e>
 80010d0:	4b77      	ldr	r3, [pc, #476]	; (80012b0 <StartHandPeakControl+0x5dc>)
 80010d2:	881a      	ldrh	r2, [r3, #0]
 80010d4:	f8bd 300e 	ldrh.w	r3, [sp, #14]
 80010d8:	b292      	uxth	r2, r2
 80010da:	b29b      	uxth	r3, r3
 80010dc:	429a      	cmp	r2, r3
 80010de:	f0c0 80ce 	bcc.w	800127e <StartHandPeakControl+0x5aa>
 80010e2:	4b74      	ldr	r3, [pc, #464]	; (80012b4 <StartHandPeakControl+0x5e0>)
 80010e4:	881a      	ldrh	r2, [r3, #0]
 80010e6:	f8bd 300e 	ldrh.w	r3, [sp, #14]
 80010ea:	b292      	uxth	r2, r2
 80010ec:	b29b      	uxth	r3, r3
 80010ee:	429a      	cmp	r2, r3
 80010f0:	f200 80b7 	bhi.w	8001262 <StartHandPeakControl+0x58e>
 80010f4:	4b70      	ldr	r3, [pc, #448]	; (80012b8 <StartHandPeakControl+0x5e4>)
 80010f6:	881a      	ldrh	r2, [r3, #0]
 80010f8:	f8bd 300e 	ldrh.w	r3, [sp, #14]
 80010fc:	b292      	uxth	r2, r2
 80010fe:	b29b      	uxth	r3, r3
 8001100:	429a      	cmp	r2, r3
 8001102:	f200 80ae 	bhi.w	8001262 <StartHandPeakControl+0x58e>
 8001106:	4b6b      	ldr	r3, [pc, #428]	; (80012b4 <StartHandPeakControl+0x5e0>)
 8001108:	881a      	ldrh	r2, [r3, #0]
 800110a:	f8bd 300e 	ldrh.w	r3, [sp, #14]
 800110e:	b292      	uxth	r2, r2
 8001110:	b29b      	uxth	r3, r3
 8001112:	429a      	cmp	r2, r3
 8001114:	f4bf ae49 	bcs.w	8000daa <StartHandPeakControl+0xd6>
 8001118:	4b67      	ldr	r3, [pc, #412]	; (80012b8 <StartHandPeakControl+0x5e4>)
 800111a:	881a      	ldrh	r2, [r3, #0]
 800111c:	f8bd 300e 	ldrh.w	r3, [sp, #14]
 8001120:	b292      	uxth	r2, r2
 8001122:	b29b      	uxth	r3, r3
 8001124:	429a      	cmp	r2, r3
 8001126:	f4bf ae40 	bcs.w	8000daa <StartHandPeakControl+0xd6>
 800112a:	4b64      	ldr	r3, [pc, #400]	; (80012bc <StartHandPeakControl+0x5e8>)
 800112c:	2102      	movs	r1, #2
 800112e:	6818      	ldr	r0, [r3, #0]
 8001130:	f006 fc3a 	bl	80079a8 <vServoMove1>
 8001134:	e639      	b.n	8000daa <StartHandPeakControl+0xd6>
 8001136:	b672      	cpsid	i
 8001138:	e7fe      	b.n	8001138 <StartHandPeakControl+0x464>
 800113a:	b672      	cpsid	i
 800113c:	e7fe      	b.n	800113c <StartHandPeakControl+0x468>
 800113e:	b672      	cpsid	i
 8001140:	e7fe      	b.n	8001140 <StartHandPeakControl+0x46c>
 8001142:	b672      	cpsid	i
 8001144:	e7fe      	b.n	8001144 <StartHandPeakControl+0x470>
 8001146:	b672      	cpsid	i
 8001148:	e7fe      	b.n	8001148 <StartHandPeakControl+0x474>
 800114a:	4a59      	ldr	r2, [pc, #356]	; (80012b0 <StartHandPeakControl+0x5dc>)
 800114c:	f8b8 3000 	ldrh.w	r3, [r8]
 8001150:	8811      	ldrh	r1, [r2, #0]
 8001152:	b29b      	uxth	r3, r3
 8001154:	8832      	ldrh	r2, [r6, #0]
 8001156:	b289      	uxth	r1, r1
 8001158:	440b      	add	r3, r1
 800115a:	3364      	adds	r3, #100	; 0x64
 800115c:	b292      	uxth	r2, r2
 800115e:	4293      	cmp	r3, r2
 8001160:	f67f aee5 	bls.w	8000f2e <StartHandPeakControl+0x25a>
 8001164:	f8b8 0000 	ldrh.w	r0, [r8]
 8001168:	8832      	ldrh	r2, [r6, #0]
 800116a:	b280      	uxth	r0, r0
 800116c:	b292      	uxth	r2, r2
 800116e:	9201      	str	r2, [sp, #4]
 8001170:	f7ff f95c 	bl	800042c <__aeabi_i2f>
 8001174:	4603      	mov	r3, r0
 8001176:	9a01      	ldr	r2, [sp, #4]
 8001178:	9301      	str	r3, [sp, #4]
 800117a:	4610      	mov	r0, r2
 800117c:	f7ff f956 	bl	800042c <__aeabi_i2f>
 8001180:	494f      	ldr	r1, [pc, #316]	; (80012c0 <StartHandPeakControl+0x5ec>)
 8001182:	f7fe ffe5 	bl	8000150 <__aeabi_fmul>
 8001186:	9b01      	ldr	r3, [sp, #4]
 8001188:	4601      	mov	r1, r0
 800118a:	4618      	mov	r0, r3
 800118c:	f7ff fa0e 	bl	80005ac <__aeabi_fcmpgt>
 8001190:	2800      	cmp	r0, #0
 8001192:	f43f aecc 	beq.w	8000f2e <StartHandPeakControl+0x25a>
 8001196:	4a46      	ldr	r2, [pc, #280]	; (80012b0 <StartHandPeakControl+0x5dc>)
 8001198:	8810      	ldrh	r0, [r2, #0]
 800119a:	8832      	ldrh	r2, [r6, #0]
 800119c:	b280      	uxth	r0, r0
 800119e:	b292      	uxth	r2, r2
 80011a0:	9201      	str	r2, [sp, #4]
 80011a2:	f7ff f943 	bl	800042c <__aeabi_i2f>
 80011a6:	4603      	mov	r3, r0
 80011a8:	9a01      	ldr	r2, [sp, #4]
 80011aa:	9301      	str	r3, [sp, #4]
 80011ac:	4610      	mov	r0, r2
 80011ae:	f7ff f93d 	bl	800042c <__aeabi_i2f>
 80011b2:	4943      	ldr	r1, [pc, #268]	; (80012c0 <StartHandPeakControl+0x5ec>)
 80011b4:	f7fe ffcc 	bl	8000150 <__aeabi_fmul>
 80011b8:	9b01      	ldr	r3, [sp, #4]
 80011ba:	4601      	mov	r1, r0
 80011bc:	4618      	mov	r0, r3
 80011be:	f7ff f9f5 	bl	80005ac <__aeabi_fcmpgt>
 80011c2:	2800      	cmp	r0, #0
 80011c4:	f43f aeb3 	beq.w	8000f2e <StartHandPeakControl+0x25a>
 80011c8:	e6a9      	b.n	8000f1e <StartHandPeakControl+0x24a>
 80011ca:	4a3b      	ldr	r2, [pc, #236]	; (80012b8 <StartHandPeakControl+0x5e4>)
 80011cc:	f8b8 3000 	ldrh.w	r3, [r8]
 80011d0:	8811      	ldrh	r1, [r2, #0]
 80011d2:	b29b      	uxth	r3, r3
 80011d4:	8832      	ldrh	r2, [r6, #0]
 80011d6:	b289      	uxth	r1, r1
 80011d8:	440b      	add	r3, r1
 80011da:	3364      	adds	r3, #100	; 0x64
 80011dc:	b292      	uxth	r2, r2
 80011de:	4293      	cmp	r3, r2
 80011e0:	f67f af22 	bls.w	8001028 <StartHandPeakControl+0x354>
 80011e4:	f8b8 0000 	ldrh.w	r0, [r8]
 80011e8:	8832      	ldrh	r2, [r6, #0]
 80011ea:	b280      	uxth	r0, r0
 80011ec:	b292      	uxth	r2, r2
 80011ee:	9201      	str	r2, [sp, #4]
 80011f0:	f7ff f91c 	bl	800042c <__aeabi_i2f>
 80011f4:	4603      	mov	r3, r0
 80011f6:	9a01      	ldr	r2, [sp, #4]
 80011f8:	9301      	str	r3, [sp, #4]
 80011fa:	4610      	mov	r0, r2
 80011fc:	f7ff f916 	bl	800042c <__aeabi_i2f>
 8001200:	492f      	ldr	r1, [pc, #188]	; (80012c0 <StartHandPeakControl+0x5ec>)
 8001202:	f7fe ffa5 	bl	8000150 <__aeabi_fmul>
 8001206:	9b01      	ldr	r3, [sp, #4]
 8001208:	4601      	mov	r1, r0
 800120a:	4618      	mov	r0, r3
 800120c:	f7ff f9ce 	bl	80005ac <__aeabi_fcmpgt>
 8001210:	2800      	cmp	r0, #0
 8001212:	f43f af09 	beq.w	8001028 <StartHandPeakControl+0x354>
 8001216:	4a28      	ldr	r2, [pc, #160]	; (80012b8 <StartHandPeakControl+0x5e4>)
 8001218:	8810      	ldrh	r0, [r2, #0]
 800121a:	8832      	ldrh	r2, [r6, #0]
 800121c:	b280      	uxth	r0, r0
 800121e:	b292      	uxth	r2, r2
 8001220:	9201      	str	r2, [sp, #4]
 8001222:	f7ff f903 	bl	800042c <__aeabi_i2f>
 8001226:	4603      	mov	r3, r0
 8001228:	9a01      	ldr	r2, [sp, #4]
 800122a:	9301      	str	r3, [sp, #4]
 800122c:	4610      	mov	r0, r2
 800122e:	f7ff f8fd 	bl	800042c <__aeabi_i2f>
 8001232:	4923      	ldr	r1, [pc, #140]	; (80012c0 <StartHandPeakControl+0x5ec>)
 8001234:	f7fe ff8c 	bl	8000150 <__aeabi_fmul>
 8001238:	9b01      	ldr	r3, [sp, #4]
 800123a:	4601      	mov	r1, r0
 800123c:	4618      	mov	r0, r3
 800123e:	f7ff f9b5 	bl	80005ac <__aeabi_fcmpgt>
 8001242:	2800      	cmp	r0, #0
 8001244:	f43f aef0 	beq.w	8001028 <StartHandPeakControl+0x354>
 8001248:	e6e6      	b.n	8001018 <StartHandPeakControl+0x344>
 800124a:	4b1e      	ldr	r3, [pc, #120]	; (80012c4 <StartHandPeakControl+0x5f0>)
 800124c:	2101      	movs	r1, #1
 800124e:	6818      	ldr	r0, [r3, #0]
 8001250:	f006 fbaa 	bl	80079a8 <vServoMove1>
 8001254:	e745      	b.n	80010e2 <StartHandPeakControl+0x40e>
 8001256:	4b1c      	ldr	r3, [pc, #112]	; (80012c8 <StartHandPeakControl+0x5f4>)
 8001258:	2101      	movs	r1, #1
 800125a:	6818      	ldr	r0, [r3, #0]
 800125c:	f006 fba4 	bl	80079a8 <vServoMove1>
 8001260:	e71c      	b.n	800109c <StartHandPeakControl+0x3c8>
 8001262:	4b16      	ldr	r3, [pc, #88]	; (80012bc <StartHandPeakControl+0x5e8>)
 8001264:	2101      	movs	r1, #1
 8001266:	6818      	ldr	r0, [r3, #0]
 8001268:	f006 fb9e 	bl	80079a8 <vServoMove1>
 800126c:	e59d      	b.n	8000daa <StartHandPeakControl+0xd6>
 800126e:	b672      	cpsid	i
 8001270:	e7fe      	b.n	8001270 <StartHandPeakControl+0x59c>
 8001272:	4b15      	ldr	r3, [pc, #84]	; (80012c8 <StartHandPeakControl+0x5f4>)
 8001274:	2102      	movs	r1, #2
 8001276:	6818      	ldr	r0, [r3, #0]
 8001278:	f006 fb96 	bl	80079a8 <vServoMove1>
 800127c:	e70e      	b.n	800109c <StartHandPeakControl+0x3c8>
 800127e:	4b11      	ldr	r3, [pc, #68]	; (80012c4 <StartHandPeakControl+0x5f0>)
 8001280:	2102      	movs	r1, #2
 8001282:	6818      	ldr	r0, [r3, #0]
 8001284:	f006 fb90 	bl	80079a8 <vServoMove1>
 8001288:	e72b      	b.n	80010e2 <StartHandPeakControl+0x40e>
 800128a:	b672      	cpsid	i
 800128c:	e7fe      	b.n	800128c <StartHandPeakControl+0x5b8>
 800128e:	b672      	cpsid	i
 8001290:	e7fe      	b.n	8001290 <StartHandPeakControl+0x5bc>
 8001292:	bf00      	nop
 8001294:	200044ec 	.word	0x200044ec
 8001298:	20004148 	.word	0x20004148
 800129c:	20004234 	.word	0x20004234
 80012a0:	2000446c 	.word	0x2000446c
 80012a4:	20004130 	.word	0x20004130
 80012a8:	20000000 	.word	0x20000000
 80012ac:	200043fe 	.word	0x200043fe
 80012b0:	200044d0 	.word	0x200044d0
 80012b4:	20004158 	.word	0x20004158
 80012b8:	200044e8 	.word	0x200044e8
 80012bc:	20004408 	.word	0x20004408
 80012c0:	3e99999a 	.word	0x3e99999a
 80012c4:	200044fc 	.word	0x200044fc
 80012c8:	20004500 	.word	0x20004500

080012cc <StartButtonHandler>:
 80012cc:	f04f 0800 	mov.w	r8, #0
 80012d0:	e92d 4888 	stmdb	sp!, {r3, r7, fp, lr}
 80012d4:	4d45      	ldr	r5, [pc, #276]	; (80013ec <StartButtonHandler+0x120>)
 80012d6:	4e46      	ldr	r6, [pc, #280]	; (80013f0 <StartButtonHandler+0x124>)
 80012d8:	f8df 9148 	ldr.w	r9, [pc, #328]	; 8001424 <StartButtonHandler+0x158>
 80012dc:	4c45      	ldr	r4, [pc, #276]	; (80013f4 <StartButtonHandler+0x128>)
 80012de:	4f46      	ldr	r7, [pc, #280]	; (80013f8 <StartButtonHandler+0x12c>)
 80012e0:	f8df a144 	ldr.w	sl, [pc, #324]	; 8001428 <StartButtonHandler+0x15c>
 80012e4:	2101      	movs	r1, #1
 80012e6:	f04f 32ff 	mov.w	r2, #4294967295
 80012ea:	4608      	mov	r0, r1
 80012ec:	f003 fa76 	bl	80047dc <osThreadFlagsWait>
 80012f0:	882b      	ldrh	r3, [r5, #0]
 80012f2:	b29b      	uxth	r3, r3
 80012f4:	f5b3 4f80 	cmp.w	r3, #16384	; 0x4000
 80012f8:	d013      	beq.n	8001322 <StartButtonHandler+0x56>
 80012fa:	f5b3 4f00 	cmp.w	r3, #32768	; 0x8000
 80012fe:	d104      	bne.n	800130a <StartButtonHandler+0x3e>
 8001300:	6830      	ldr	r0, [r6, #0]
 8001302:	f003 fc23 	bl	8004b4c <osEventFlagsGet>
 8001306:	0603      	lsls	r3, r0, #24
 8001308:	d41a      	bmi.n	8001340 <StartButtonHandler+0x74>
 800130a:	8823      	ldrh	r3, [r4, #0]
 800130c:	b29b      	uxth	r3, r3
 800130e:	2b00      	cmp	r3, #0
 8001310:	d0e8      	beq.n	80012e4 <StartButtonHandler+0x18>
 8001312:	f44f 717a 	mov.w	r1, #1000	; 0x3e8
 8001316:	6838      	ldr	r0, [r7, #0]
 8001318:	f8a4 8000 	strh.w	r8, [r4]
 800131c:	f003 fb5a 	bl	80049d4 <osTimerStart>
 8001320:	e7e0      	b.n	80012e4 <StartButtonHandler+0x18>
 8001322:	6830      	ldr	r0, [r6, #0]
 8001324:	f003 fc12 	bl	8004b4c <osEventFlagsGet>
 8001328:	f010 0f80 	tst.w	r0, #128	; 0x80
 800132c:	f04f 0180 	mov.w	r1, #128	; 0x80
 8001330:	6830      	ldr	r0, [r6, #0]
 8001332:	d002      	beq.n	800133a <StartButtonHandler+0x6e>
 8001334:	f003 fbda 	bl	8004aec <osEventFlagsClear>
 8001338:	e7e7      	b.n	800130a <StartButtonHandler+0x3e>
 800133a:	f003 fb95 	bl	8004a68 <osEventFlagsSet>
 800133e:	e7e4      	b.n	800130a <StartButtonHandler+0x3e>
 8001340:	f8d9 0000 	ldr.w	r0, [r9]
 8001344:	f003 fc02 	bl	8004b4c <osEventFlagsGet>
 8001348:	f010 0b80 	ands.w	fp, r0, #128	; 0x80
 800134c:	f04f 0180 	mov.w	r1, #128	; 0x80
 8001350:	f8d9 0000 	ldr.w	r0, [r9]
 8001354:	d026      	beq.n	80013a4 <StartButtonHandler+0xd8>
 8001356:	f003 fbc9 	bl	8004aec <osEventFlagsClear>
 800135a:	2201      	movs	r2, #1
 800135c:	4650      	mov	r0, sl
 800135e:	f44f 5100 	mov.w	r1, #8192	; 0x2000
 8001362:	f001 fe37 	bl	8002fd4 <HAL_GPIO_WritePin>
 8001366:	4b25      	ldr	r3, [pc, #148]	; (80013fc <StartButtonHandler+0x130>)
 8001368:	2103      	movs	r1, #3
 800136a:	6818      	ldr	r0, [r3, #0]
 800136c:	f006 fb1c 	bl	80079a8 <vServoMove1>
 8001370:	4b23      	ldr	r3, [pc, #140]	; (8001400 <StartButtonHandler+0x134>)
 8001372:	2103      	movs	r1, #3
 8001374:	6818      	ldr	r0, [r3, #0]
 8001376:	f006 fb17 	bl	80079a8 <vServoMove1>
 800137a:	4b22      	ldr	r3, [pc, #136]	; (8001404 <StartButtonHandler+0x138>)
 800137c:	2103      	movs	r1, #3
 800137e:	6818      	ldr	r0, [r3, #0]
 8001380:	f006 fb12 	bl	80079a8 <vServoMove1>
 8001384:	4b20      	ldr	r3, [pc, #128]	; (8001408 <StartButtonHandler+0x13c>)
 8001386:	2103      	movs	r1, #3
 8001388:	6818      	ldr	r0, [r3, #0]
 800138a:	f006 fb0d 	bl	80079a8 <vServoMove1>
 800138e:	4b1f      	ldr	r3, [pc, #124]	; (800140c <StartButtonHandler+0x140>)
 8001390:	2103      	movs	r1, #3
 8001392:	6818      	ldr	r0, [r3, #0]
 8001394:	f006 fb08 	bl	80079a8 <vServoMove1>
 8001398:	4b1d      	ldr	r3, [pc, #116]	; (8001410 <StartButtonHandler+0x144>)
 800139a:	2103      	movs	r1, #3
 800139c:	6818      	ldr	r0, [r3, #0]
 800139e:	f006 fb03 	bl	80079a8 <vServoMove1>
 80013a2:	e7b2      	b.n	800130a <StartButtonHandler+0x3e>
 80013a4:	f003 fb60 	bl	8004a68 <osEventFlagsSet>
 80013a8:	465a      	mov	r2, fp
 80013aa:	4650      	mov	r0, sl
 80013ac:	f44f 5100 	mov.w	r1, #8192	; 0x2000
 80013b0:	f001 fe10 	bl	8002fd4 <HAL_GPIO_WritePin>
 80013b4:	4b11      	ldr	r3, [pc, #68]	; (80013fc <StartButtonHandler+0x130>)
 80013b6:	2104      	movs	r1, #4
 80013b8:	6818      	ldr	r0, [r3, #0]
 80013ba:	4b16      	ldr	r3, [pc, #88]	; (8001414 <StartButtonHandler+0x148>)
 80013bc:	f883 b000 	strb.w	fp, [r3]
 80013c0:	4b15      	ldr	r3, [pc, #84]	; (8001418 <StartButtonHandler+0x14c>)
 80013c2:	f883 b000 	strb.w	fp, [r3]
 80013c6:	4b15      	ldr	r3, [pc, #84]	; (800141c <StartButtonHandler+0x150>)
 80013c8:	f883 b000 	strb.w	fp, [r3]
 80013cc:	4b14      	ldr	r3, [pc, #80]	; (8001420 <StartButtonHandler+0x154>)
 80013ce:	f8c3 b000 	str.w	fp, [r3]
 80013d2:	f006 fae9 	bl	80079a8 <vServoMove1>
 80013d6:	4b0a      	ldr	r3, [pc, #40]	; (8001400 <StartButtonHandler+0x134>)
 80013d8:	2104      	movs	r1, #4
 80013da:	6818      	ldr	r0, [r3, #0]
 80013dc:	f006 fae4 	bl	80079a8 <vServoMove1>
 80013e0:	4b08      	ldr	r3, [pc, #32]	; (8001404 <StartButtonHandler+0x138>)
 80013e2:	2104      	movs	r1, #4
 80013e4:	6818      	ldr	r0, [r3, #0]
 80013e6:	f006 fadf 	bl	80079a8 <vServoMove1>
 80013ea:	e78e      	b.n	800130a <StartButtonHandler+0x3e>
 80013ec:	200044f4 	.word	0x200044f4
 80013f0:	20004474 	.word	0x20004474
 80013f4:	2000440c 	.word	0x2000440c
 80013f8:	20004420 	.word	0x20004420
 80013fc:	20004500 	.word	0x20004500
 8001400:	200044fc 	.word	0x200044fc
 8001404:	20004408 	.word	0x20004408
 8001408:	20004418 	.word	0x20004418
 800140c:	20004138 	.word	0x20004138
 8001410:	20004150 	.word	0x20004150
 8001414:	2000446c 	.word	0x2000446c
 8001418:	20004148 	.word	0x20004148
 800141c:	20004234 	.word	0x20004234
 8001420:	20000054 	.word	0x20000054
 8001424:	200044f8 	.word	0x200044f8
 8001428:	40011000 	.word	0x40011000

0800142c <User_DMA_XferCpltCallback>:
 800142c:	4a09      	ldr	r2, [pc, #36]	; (8001454 <User_DMA_XferCpltCallback+0x28>)
 800142e:	6803      	ldr	r3, [r0, #0]
 8001430:	6812      	ldr	r2, [r2, #0]
 8001432:	4293      	cmp	r3, r2
 8001434:	d004      	beq.n	8001440 <User_DMA_XferCpltCallback+0x14>
 8001436:	4a08      	ldr	r2, [pc, #32]	; (8001458 <User_DMA_XferCpltCallback+0x2c>)
 8001438:	6812      	ldr	r2, [r2, #0]
 800143a:	4293      	cmp	r3, r2
 800143c:	d005      	beq.n	800144a <User_DMA_XferCpltCallback+0x1e>
 800143e:	4770      	bx	lr
 8001440:	4b06      	ldr	r3, [pc, #24]	; (800145c <User_DMA_XferCpltCallback+0x30>)
 8001442:	2102      	movs	r1, #2
 8001444:	6818      	ldr	r0, [r3, #0]
 8001446:	f003 bb0f 	b.w	8004a68 <osEventFlagsSet>
 800144a:	4b04      	ldr	r3, [pc, #16]	; (800145c <User_DMA_XferCpltCallback+0x30>)
 800144c:	2120      	movs	r1, #32
 800144e:	6818      	ldr	r0, [r3, #0]
 8001450:	f003 bb0a 	b.w	8004a68 <osEventFlagsSet>
 8001454:	20004424 	.word	0x20004424
 8001458:	2000415c 	.word	0x2000415c
 800145c:	20004474 	.word	0x20004474

08001460 <SystemClock_Config>:
 8001460:	2001      	movs	r0, #1
 8001462:	e92d 43d0 	stmdb	sp!, {r4, r6, r7, r8, r9, lr}
 8001466:	2300      	movs	r3, #0
 8001468:	2601      	movs	r6, #1
 800146a:	f44f 3780 	mov.w	r7, #65536	; 0x10000
 800146e:	2402      	movs	r4, #2
 8001470:	f44f 3180 	mov.w	r1, #65536	; 0x10000
 8001474:	f44f 12e0 	mov.w	r2, #1835008	; 0x1c0000
 8001478:	b094      	sub	sp, #80	; 0x50
 800147a:	900e      	str	r0, [sp, #56]	; 0x38
 800147c:	a80a      	add	r0, sp, #40	; 0x28
 800147e:	e9cd 330f 	strd	r3, r3, [sp, #60]	; 0x3c
 8001482:	e9cd 3305 	strd	r3, r3, [sp, #20]
 8001486:	e9cd 3307 	strd	r3, r3, [sp, #28]
 800148a:	e9cd 3301 	strd	r3, r3, [sp, #4]
 800148e:	e9cd 670a 	strd	r6, r7, [sp, #40]	; 0x28
 8001492:	e9cd 4111 	strd	r4, r1, [sp, #68]	; 0x44
 8001496:	930d      	str	r3, [sp, #52]	; 0x34
 8001498:	9304      	str	r3, [sp, #16]
 800149a:	9300      	str	r3, [sp, #0]
 800149c:	930c      	str	r3, [sp, #48]	; 0x30
 800149e:	9303      	str	r3, [sp, #12]
 80014a0:	9213      	str	r2, [sp, #76]	; 0x4c
 80014a2:	f001 fda7 	bl	8002ff4 <HAL_RCC_OscConfig>
 80014a6:	b108      	cbz	r0, 80014ac <SystemClock_Config+0x4c>
 80014a8:	b672      	cpsid	i
 80014aa:	e7fe      	b.n	80014aa <SystemClock_Config+0x4a>
 80014ac:	4603      	mov	r3, r0
 80014ae:	f04f 080f 	mov.w	r8, #15
 80014b2:	f04f 0902 	mov.w	r9, #2
 80014b6:	2600      	movs	r6, #0
 80014b8:	f44f 6780 	mov.w	r7, #1024	; 0x400
 80014bc:	4621      	mov	r1, r4
 80014be:	a804      	add	r0, sp, #16
 80014c0:	e9cd 8904 	strd	r8, r9, [sp, #16]
 80014c4:	e9cd 6706 	strd	r6, r7, [sp, #24]
 80014c8:	9308      	str	r3, [sp, #32]
 80014ca:	f001 ff93 	bl	80033f4 <HAL_RCC_ClockConfig>
 80014ce:	b108      	cbz	r0, 80014d4 <SystemClock_Config+0x74>
 80014d0:	b672      	cpsid	i
 80014d2:	e7fe      	b.n	80014d2 <SystemClock_Config+0x72>
 80014d4:	f44f 4300 	mov.w	r3, #32768	; 0x8000
 80014d8:	4668      	mov	r0, sp
 80014da:	9400      	str	r4, [sp, #0]
 80014dc:	9302      	str	r3, [sp, #8]
 80014de:	f002 f897 	bl	8003610 <HAL_RCCEx_PeriphCLKConfig>
 80014e2:	b108      	cbz	r0, 80014e8 <SystemClock_Config+0x88>
 80014e4:	b672      	cpsid	i
 80014e6:	e7fe      	b.n	80014e6 <SystemClock_Config+0x86>
 80014e8:	b014      	add	sp, #80	; 0x50
 80014ea:	e8bd 83d0 	ldmia.w	sp!, {r4, r6, r7, r8, r9, pc}
 80014ee:	bf00      	nop

080014f0 <main>:
 80014f0:	e92d 4880 	stmdb	sp!, {r7, fp, lr}
 80014f4:	b095      	sub	sp, #84	; 0x54
 80014f6:	f000 feef 	bl	80022d8 <HAL_Init>
 80014fa:	f04f 0a00 	mov.w	sl, #0
 80014fe:	2301      	movs	r3, #1
 8001500:	20c8      	movs	r0, #200	; 0xc8
 8001502:	4aa7      	ldr	r2, [pc, #668]	; (80017a0 <main+0x2b0>)
 8001504:	49a7      	ldr	r1, [pc, #668]	; (80017a4 <main+0x2b4>)
 8001506:	4ca8      	ldr	r4, [pc, #672]	; (80017a8 <main+0x2b8>)
 8001508:	4fa8      	ldr	r7, [pc, #672]	; (80017ac <main+0x2bc>)
 800150a:	4ea9      	ldr	r6, [pc, #676]	; (80017b0 <main+0x2c0>)
 800150c:	4da9      	ldr	r5, [pc, #676]	; (80017b4 <main+0x2c4>)
 800150e:	8013      	strh	r3, [r2, #0]
 8001510:	8008      	strh	r0, [r1, #0]
 8001512:	f8a4 a000 	strh.w	sl, [r4]
 8001516:	f8a6 a000 	strh.w	sl, [r6]
 800151a:	803b      	strh	r3, [r7, #0]
 800151c:	f8a5 a000 	strh.w	sl, [r5]
 8001520:	f7ff ff9e 	bl	8001460 <SystemClock_Config>
 8001524:	e9cd aa0c 	strd	sl, sl, [sp, #48]	; 0x30
 8001528:	e9cd aa0e 	strd	sl, sl, [sp, #56]	; 0x38
 800152c:	4ca2      	ldr	r4, [pc, #648]	; (80017b8 <main+0x2c8>)
 800152e:	f44f 5800 	mov.w	r8, #8192	; 0x2000
 8001532:	69a3      	ldr	r3, [r4, #24]
 8001534:	f04f 0901 	mov.w	r9, #1
 8001538:	f043 0310 	orr.w	r3, r3, #16
 800153c:	61a3      	str	r3, [r4, #24]
 800153e:	69a3      	ldr	r3, [r4, #24]
 8001540:	4652      	mov	r2, sl
 8001542:	f003 0310 	and.w	r3, r3, #16
 8001546:	9302      	str	r3, [sp, #8]
 8001548:	9b02      	ldr	r3, [sp, #8]
 800154a:	69a3      	ldr	r3, [r4, #24]
 800154c:	f44f 5100 	mov.w	r1, #8192	; 0x2000
 8001550:	f043 0320 	orr.w	r3, r3, #32
 8001554:	61a3      	str	r3, [r4, #24]
 8001556:	69a3      	ldr	r3, [r4, #24]
 8001558:	4898      	ldr	r0, [pc, #608]	; (80017bc <main+0x2cc>)
 800155a:	f003 0320 	and.w	r3, r3, #32
 800155e:	9303      	str	r3, [sp, #12]
 8001560:	9b03      	ldr	r3, [sp, #12]
 8001562:	69a3      	ldr	r3, [r4, #24]
 8001564:	2600      	movs	r6, #0
 8001566:	f043 0304 	orr.w	r3, r3, #4
 800156a:	61a3      	str	r3, [r4, #24]
 800156c:	69a3      	ldr	r3, [r4, #24]
 800156e:	2702      	movs	r7, #2
 8001570:	f003 0304 	and.w	r3, r3, #4
 8001574:	9304      	str	r3, [sp, #16]
 8001576:	9b04      	ldr	r3, [sp, #16]
 8001578:	69a3      	ldr	r3, [r4, #24]
 800157a:	f44f 4b80 	mov.w	fp, #16384	; 0x4000
 800157e:	f043 0308 	orr.w	r3, r3, #8
 8001582:	61a3      	str	r3, [r4, #24]
 8001584:	69a3      	ldr	r3, [r4, #24]
 8001586:	f44f 7580 	mov.w	r5, #256	; 0x100
 800158a:	f003 0308 	and.w	r3, r3, #8
 800158e:	9305      	str	r3, [sp, #20]
 8001590:	9b05      	ldr	r3, [sp, #20]
 8001592:	f001 fd1f 	bl	8002fd4 <HAL_GPIO_WritePin>
 8001596:	4652      	mov	r2, sl
 8001598:	f24f 0104 	movw	r1, #61444	; 0xf004
 800159c:	4888      	ldr	r0, [pc, #544]	; (80017c0 <main+0x2d0>)
 800159e:	f001 fd19 	bl	8002fd4 <HAL_GPIO_WritePin>
 80015a2:	4652      	mov	r2, sl
 80015a4:	f44f 7180 	mov.w	r1, #256	; 0x100
 80015a8:	4886      	ldr	r0, [pc, #536]	; (80017c4 <main+0x2d4>)
 80015aa:	f001 fd13 	bl	8002fd4 <HAL_GPIO_WritePin>
 80015ae:	e9cd 890c 	strd	r8, r9, [sp, #48]	; 0x30
 80015b2:	f44f 4840 	mov.w	r8, #49152	; 0xc000
 80015b6:	f8df 9230 	ldr.w	r9, [pc, #560]	; 80017e8 <main+0x2f8>
 80015ba:	4880      	ldr	r0, [pc, #512]	; (80017bc <main+0x2cc>)
 80015bc:	a90c      	add	r1, sp, #48	; 0x30
 80015be:	e9cd 670e 	strd	r6, r7, [sp, #56]	; 0x38
 80015c2:	f001 fbfb 	bl	8002dbc <HAL_GPIO_Init>
 80015c6:	e9cd 890c 	strd	r8, r9, [sp, #48]	; 0x30
 80015ca:	f24f 0804 	movw	r8, #61444	; 0xf004
 80015ce:	f04f 0901 	mov.w	r9, #1
 80015d2:	487a      	ldr	r0, [pc, #488]	; (80017bc <main+0x2cc>)
 80015d4:	a90c      	add	r1, sp, #48	; 0x30
 80015d6:	f8cd a038 	str.w	sl, [sp, #56]	; 0x38
 80015da:	f001 fbef 	bl	8002dbc <HAL_GPIO_Init>
 80015de:	4878      	ldr	r0, [pc, #480]	; (80017c0 <main+0x2d0>)
 80015e0:	a90c      	add	r1, sp, #48	; 0x30
 80015e2:	e9cd 890c 	strd	r8, r9, [sp, #48]	; 0x30
 80015e6:	e9cd 670e 	strd	r6, r7, [sp, #56]	; 0x38
 80015ea:	f001 fbe7 	bl	8002dbc <HAL_GPIO_Init>
 80015ee:	2301      	movs	r3, #1
 80015f0:	f44f 7280 	mov.w	r2, #256	; 0x100
 80015f4:	4873      	ldr	r0, [pc, #460]	; (80017c4 <main+0x2d4>)
 80015f6:	a90c      	add	r1, sp, #48	; 0x30
 80015f8:	e9cd 230c 	strd	r2, r3, [sp, #48]	; 0x30
 80015fc:	e9cd 670e 	strd	r6, r7, [sp, #56]	; 0x38
 8001600:	f001 fbdc 	bl	8002dbc <HAL_GPIO_Init>
 8001604:	2105      	movs	r1, #5
 8001606:	4652      	mov	r2, sl
 8001608:	2028      	movs	r0, #40	; 0x28
 800160a:	f001 fa1d 	bl	8002a48 <HAL_NVIC_SetPriority>
 800160e:	2028      	movs	r0, #40	; 0x28
 8001610:	f001 fa52 	bl	8002ab8 <HAL_NVIC_EnableIRQ>
 8001614:	6963      	ldr	r3, [r4, #20]
 8001616:	486c      	ldr	r0, [pc, #432]	; (80017c8 <main+0x2d8>)
 8001618:	f043 0301 	orr.w	r3, r3, #1
 800161c:	6163      	str	r3, [r4, #20]
 800161e:	6963      	ldr	r3, [r4, #20]
 8001620:	f04f 0980 	mov.w	r9, #128	; 0x80
 8001624:	f003 0301 	and.w	r3, r3, #1
 8001628:	9301      	str	r3, [sp, #4]
 800162a:	4b68      	ldr	r3, [pc, #416]	; (80017cc <main+0x2dc>)
 800162c:	f44f 6880 	mov.w	r8, #1024	; 0x400
 8001630:	e9c0 3b00 	strd	r3, fp, [r0]
 8001634:	2340      	movs	r3, #64	; 0x40
 8001636:	e9c0 aa06 	strd	sl, sl, [r0, #24]
 800163a:	e9c0 3902 	strd	r3, r9, [r0, #8]
 800163e:	e9c0 5804 	strd	r5, r8, [r0, #16]
 8001642:	9901      	ldr	r1, [sp, #4]
 8001644:	f001 fa46 	bl	8002ad4 <HAL_DMA_Init>
 8001648:	b108      	cbz	r0, 800164e <main+0x15e>
 800164a:	b672      	cpsid	i
 800164c:	e7fe      	b.n	800164c <main+0x15c>
 800164e:	f44f 5180 	mov.w	r1, #4096	; 0x1000
 8001652:	4603      	mov	r3, r0
 8001654:	485e      	ldr	r0, [pc, #376]	; (80017d0 <main+0x2e0>)
 8001656:	4a5f      	ldr	r2, [pc, #380]	; (80017d4 <main+0x2e4>)
 8001658:	61c1      	str	r1, [r0, #28]
 800165a:	2140      	movs	r1, #64	; 0x40
 800165c:	e9c0 5804 	strd	r5, r8, [r0, #16]
 8001660:	e9c0 1902 	strd	r1, r9, [r0, #8]
 8001664:	f8c0 b004 	str.w	fp, [r0, #4]
 8001668:	6183      	str	r3, [r0, #24]
 800166a:	6002      	str	r2, [r0, #0]
 800166c:	f001 fa32 	bl	8002ad4 <HAL_DMA_Init>
 8001670:	4604      	mov	r4, r0
 8001672:	b108      	cbz	r0, 8001678 <main+0x188>
 8001674:	b672      	cpsid	i
 8001676:	e7fe      	b.n	8001676 <main+0x186>
 8001678:	4602      	mov	r2, r0
 800167a:	2105      	movs	r1, #5
 800167c:	200b      	movs	r0, #11
 800167e:	f001 f9e3 	bl	8002a48 <HAL_NVIC_SetPriority>
 8001682:	200b      	movs	r0, #11
 8001684:	f001 fa18 	bl	8002ab8 <HAL_NVIC_EnableIRQ>
 8001688:	4622      	mov	r2, r4
 800168a:	2105      	movs	r1, #5
 800168c:	200c      	movs	r0, #12
 800168e:	f001 f9db 	bl	8002a48 <HAL_NVIC_SetPriority>
 8001692:	200c      	movs	r0, #12
 8001694:	f001 fa10 	bl	8002ab8 <HAL_NVIC_EnableIRQ>
 8001698:	4622      	mov	r2, r4
 800169a:	2105      	movs	r1, #5
 800169c:	200d      	movs	r0, #13
 800169e:	f001 f9d3 	bl	8002a48 <HAL_NVIC_SetPriority>
 80016a2:	200d      	movs	r0, #13
 80016a4:	f001 fa08 	bl	8002ab8 <HAL_NVIC_EnableIRQ>
 80016a8:	4622      	mov	r2, r4
 80016aa:	2105      	movs	r1, #5
 80016ac:	200e      	movs	r0, #14
 80016ae:	f001 f9cb 	bl	8002a48 <HAL_NVIC_SetPriority>
 80016b2:	200e      	movs	r0, #14
 80016b4:	f001 fa00 	bl	8002ab8 <HAL_NVIC_EnableIRQ>
 80016b8:	4622      	mov	r2, r4
 80016ba:	2105      	movs	r1, #5
 80016bc:	200f      	movs	r0, #15
 80016be:	f001 f9c3 	bl	8002a48 <HAL_NVIC_SetPriority>
 80016c2:	200f      	movs	r0, #15
 80016c4:	f001 f9f8 	bl	8002ab8 <HAL_NVIC_EnableIRQ>
 80016c8:	f44f 2160 	mov.w	r1, #917504	; 0xe0000
 80016cc:	2305      	movs	r3, #5
 80016ce:	4e42      	ldr	r6, [pc, #264]	; (80017d8 <main+0x2e8>)
 80016d0:	4a42      	ldr	r2, [pc, #264]	; (80017dc <main+0x2ec>)
 80016d2:	4630      	mov	r0, r6
 80016d4:	e9cd 440c 	strd	r4, r4, [sp, #48]	; 0x30
 80016d8:	e9c6 2400 	strd	r2, r4, [r6]
 80016dc:	9408      	str	r4, [sp, #32]
 80016de:	940e      	str	r4, [sp, #56]	; 0x38
 80016e0:	61f1      	str	r1, [r6, #28]
 80016e2:	60b5      	str	r5, [r6, #8]
 80016e4:	7334      	strb	r4, [r6, #12]
 80016e6:	7534      	strb	r4, [r6, #20]
 80016e8:	6133      	str	r3, [r6, #16]
 80016ea:	f000 fe19 	bl	8002320 <HAL_ADC_Init>
 80016ee:	b108      	cbz	r0, 80016f4 <main+0x204>
 80016f0:	b672      	cpsid	i
 80016f2:	e7fe      	b.n	80016f2 <main+0x202>
 80016f4:	f44f 23c0 	mov.w	r3, #393216	; 0x60000
 80016f8:	4630      	mov	r0, r6
 80016fa:	a908      	add	r1, sp, #32
 80016fc:	9308      	str	r3, [sp, #32]
 80016fe:	f001 f95b 	bl	80029b8 <HAL_ADCEx_MultiModeConfigChannel>
 8001702:	b108      	cbz	r0, 8001708 <main+0x218>
 8001704:	b672      	cpsid	i
 8001706:	e7fe      	b.n	8001706 <main+0x216>
 8001708:	2000      	movs	r0, #0
 800170a:	2101      	movs	r1, #1
 800170c:	2307      	movs	r3, #7
 800170e:	e9cd 010c 	strd	r0, r1, [sp, #48]	; 0x30
 8001712:	4630      	mov	r0, r6
 8001714:	a90c      	add	r1, sp, #48	; 0x30
 8001716:	930e      	str	r3, [sp, #56]	; 0x38
 8001718:	f000 fef8 	bl	800250c <HAL_ADC_ConfigChannel>
 800171c:	b108      	cbz	r0, 8001722 <main+0x232>
 800171e:	b672      	cpsid	i
 8001720:	e7fe      	b.n	8001720 <main+0x230>
 8001722:	2202      	movs	r2, #2
 8001724:	2302      	movs	r3, #2
 8001726:	4630      	mov	r0, r6
 8001728:	a90c      	add	r1, sp, #48	; 0x30
 800172a:	e9cd 230c 	strd	r2, r3, [sp, #48]	; 0x30
 800172e:	f000 feed 	bl	800250c <HAL_ADC_ConfigChannel>
 8001732:	b108      	cbz	r0, 8001738 <main+0x248>
 8001734:	b672      	cpsid	i
 8001736:	e7fe      	b.n	8001736 <main+0x246>
 8001738:	2204      	movs	r2, #4
 800173a:	2303      	movs	r3, #3
 800173c:	4630      	mov	r0, r6
 800173e:	a90c      	add	r1, sp, #48	; 0x30
 8001740:	e9cd 230c 	strd	r2, r3, [sp, #48]	; 0x30
 8001744:	f000 fee2 	bl	800250c <HAL_ADC_ConfigChannel>
 8001748:	b108      	cbz	r0, 800174e <main+0x25e>
 800174a:	b672      	cpsid	i
 800174c:	e7fe      	b.n	800174c <main+0x25c>
 800174e:	2206      	movs	r2, #6
 8001750:	2304      	movs	r3, #4
 8001752:	4630      	mov	r0, r6
 8001754:	a90c      	add	r1, sp, #48	; 0x30
 8001756:	e9cd 230c 	strd	r2, r3, [sp, #48]	; 0x30
 800175a:	f000 fed7 	bl	800250c <HAL_ADC_ConfigChannel>
 800175e:	b108      	cbz	r0, 8001764 <main+0x274>
 8001760:	b672      	cpsid	i
 8001762:	e7fe      	b.n	8001762 <main+0x272>
 8001764:	2305      	movs	r3, #5
 8001766:	2208      	movs	r2, #8
 8001768:	4630      	mov	r0, r6
 800176a:	a90c      	add	r1, sp, #48	; 0x30
 800176c:	e9cd 230c 	strd	r2, r3, [sp, #48]	; 0x30
 8001770:	f000 fecc 	bl	800250c <HAL_ADC_ConfigChannel>
 8001774:	4603      	mov	r3, r0
 8001776:	b108      	cbz	r0, 800177c <main+0x28c>
 8001778:	b672      	cpsid	i
 800177a:	e7fe      	b.n	800177a <main+0x28a>
 800177c:	f44f 34e1 	mov.w	r4, #115200	; 0x1c200
 8001780:	220c      	movs	r2, #12
 8001782:	4817      	ldr	r0, [pc, #92]	; (80017e0 <main+0x2f0>)
 8001784:	4917      	ldr	r1, [pc, #92]	; (80017e4 <main+0x2f4>)
 8001786:	e9c0 4301 	strd	r4, r3, [r0, #4]
 800178a:	e9c0 3303 	strd	r3, r3, [r0, #12]
 800178e:	e9c0 3306 	strd	r3, r3, [r0, #24]
 8001792:	6001      	str	r1, [r0, #0]
 8001794:	6142      	str	r2, [r0, #20]
 8001796:	f002 fc11 	bl	8003fbc <HAL_UART_Init>
 800179a:	b338      	cbz	r0, 80017ec <main+0x2fc>
 800179c:	b672      	cpsid	i
 800179e:	e7fe      	b.n	800179e <main+0x2ae>
 80017a0:	200044d2 	.word	0x200044d2
 80017a4:	2000435c 	.word	0x2000435c
 80017a8:	20004236 	.word	0x20004236
 80017ac:	200044d4 	.word	0x200044d4
 80017b0:	2000422c 	.word	0x2000422c
 80017b4:	2000440c 	.word	0x2000440c
 80017b8:	40021000 	.word	0x40021000
 80017bc:	40011000 	.word	0x40011000
 80017c0:	40010c00 	.word	0x40010c00
 80017c4:	40010800 	.word	0x40010800
 80017c8:	20004424 	.word	0x20004424
 80017cc:	4002001c 	.word	0x4002001c
 80017d0:	2000415c 	.word	0x2000415c
 80017d4:	40020030 	.word	0x40020030
 80017d8:	200042d8 	.word	0x200042d8
 80017dc:	40012400 	.word	0x40012400
 80017e0:	20004360 	.word	0x20004360
 80017e4:	40013800 	.word	0x40013800
 80017e8:	10210000 	.word	0x10210000
 80017ec:	2300      	movs	r3, #0
 80017ee:	f04f 4280 	mov.w	r2, #1073741824	; 0x40000000
 80017f2:	f240 5a9f 	movw	sl, #1439	; 0x59f
 80017f6:	f240 39e7 	movw	r9, #999	; 0x3e7
 80017fa:	f04f 0880 	mov.w	r8, #128	; 0x80
 80017fe:	f8df b2a8 	ldr.w	fp, [pc, #680]	; 8001aa8 <main+0x5b8>
 8001802:	e9cd 3308 	strd	r3, r3, [sp, #32]
 8001806:	4658      	mov	r0, fp
 8001808:	e9cd 330a 	strd	r3, r3, [sp, #40]	; 0x28
 800180c:	e9cd 330c 	strd	r3, r3, [sp, #48]	; 0x30
 8001810:	e9cd 330e 	strd	r3, r3, [sp, #56]	; 0x38
 8001814:	e9cd 3310 	strd	r3, r3, [sp, #64]	; 0x40
 8001818:	e9cb 2a00 	strd	r2, sl, [fp]
 800181c:	9306      	str	r3, [sp, #24]
 800181e:	9312      	str	r3, [sp, #72]	; 0x48
 8001820:	9307      	str	r3, [sp, #28]
 8001822:	f8cb 3008 	str.w	r3, [fp, #8]
 8001826:	f8cb 3010 	str.w	r3, [fp, #16]
 800182a:	f8cb 900c 	str.w	r9, [fp, #12]
 800182e:	f8cb 8018 	str.w	r8, [fp, #24]
 8001832:	f001 ffe5 	bl	8003800 <HAL_TIM_Base_Init>
 8001836:	b108      	cbz	r0, 800183c <main+0x34c>
 8001838:	b672      	cpsid	i
 800183a:	e7fe      	b.n	800183a <main+0x34a>
 800183c:	f44f 5580 	mov.w	r5, #4096	; 0x1000
 8001840:	4658      	mov	r0, fp
 8001842:	a908      	add	r1, sp, #32
 8001844:	9508      	str	r5, [sp, #32]
 8001846:	f002 fa2d 	bl	8003ca4 <HAL_TIM_ConfigClockSource>
 800184a:	b108      	cbz	r0, 8001850 <main+0x360>
 800184c:	b672      	cpsid	i
 800184e:	e7fe      	b.n	800184e <main+0x35e>
 8001850:	4658      	mov	r0, fp
 8001852:	f002 f867 	bl	8003924 <HAL_TIM_PWM_Init>
 8001856:	b108      	cbz	r0, 800185c <main+0x36c>
 8001858:	b672      	cpsid	i
 800185a:	e7fe      	b.n	800185a <main+0x36a>
 800185c:	2600      	movs	r6, #0
 800185e:	2700      	movs	r7, #0
 8001860:	4658      	mov	r0, fp
 8001862:	a906      	add	r1, sp, #24
 8001864:	e9cd 6706 	strd	r6, r7, [sp, #24]
 8001868:	f002 fb72 	bl	8003f50 <HAL_TIMEx_MasterConfigSynchronization>
 800186c:	4602      	mov	r2, r0
 800186e:	b108      	cbz	r0, 8001874 <main+0x384>
 8001870:	b672      	cpsid	i
 8001872:	e7fe      	b.n	8001872 <main+0x382>
 8001874:	2360      	movs	r3, #96	; 0x60
 8001876:	2400      	movs	r4, #0
 8001878:	900e      	str	r0, [sp, #56]	; 0x38
 800187a:	9010      	str	r0, [sp, #64]	; 0x40
 800187c:	a90c      	add	r1, sp, #48	; 0x30
 800187e:	4658      	mov	r0, fp
 8001880:	e9cd 340c 	strd	r3, r4, [sp, #48]	; 0x30
 8001884:	f002 f908 	bl	8003a98 <HAL_TIM_PWM_ConfigChannel>
 8001888:	b108      	cbz	r0, 800188e <main+0x39e>
 800188a:	b672      	cpsid	i
 800188c:	e7fe      	b.n	800188c <main+0x39c>
 800188e:	2204      	movs	r2, #4
 8001890:	4658      	mov	r0, fp
 8001892:	a90c      	add	r1, sp, #48	; 0x30
 8001894:	f002 f900 	bl	8003a98 <HAL_TIM_PWM_ConfigChannel>
 8001898:	4604      	mov	r4, r0
 800189a:	b108      	cbz	r0, 80018a0 <main+0x3b0>
 800189c:	b672      	cpsid	i
 800189e:	e7fe      	b.n	800189e <main+0x3ae>
 80018a0:	4658      	mov	r0, fp
 80018a2:	f8df b1f0 	ldr.w	fp, [pc, #496]	; 8001a94 <main+0x5a4>
 80018a6:	f000 fb67 	bl	8001f78 <HAL_TIM_MspPostInit>
 80018aa:	4b79      	ldr	r3, [pc, #484]	; (8001a90 <main+0x5a0>)
 80018ac:	4658      	mov	r0, fp
 80018ae:	e9cd 4408 	strd	r4, r4, [sp, #32]
 80018b2:	e9cd 440a 	strd	r4, r4, [sp, #40]	; 0x28
 80018b6:	e9cd 4406 	strd	r4, r4, [sp, #24]
 80018ba:	e9cd 440c 	strd	r4, r4, [sp, #48]	; 0x30
 80018be:	e9cd 440e 	strd	r4, r4, [sp, #56]	; 0x38
 80018c2:	e9cd 4410 	strd	r4, r4, [sp, #64]	; 0x40
 80018c6:	e9cb 4902 	strd	r4, r9, [fp, #8]
 80018ca:	9412      	str	r4, [sp, #72]	; 0x48
 80018cc:	f8cb a004 	str.w	sl, [fp, #4]
 80018d0:	f8cb 4010 	str.w	r4, [fp, #16]
 80018d4:	f8cb 8018 	str.w	r8, [fp, #24]
 80018d8:	f8cb 3000 	str.w	r3, [fp]
 80018dc:	f001 ff90 	bl	8003800 <HAL_TIM_Base_Init>
 80018e0:	b108      	cbz	r0, 80018e6 <main+0x3f6>
 80018e2:	b672      	cpsid	i
 80018e4:	e7fe      	b.n	80018e4 <main+0x3f4>
 80018e6:	4658      	mov	r0, fp
 80018e8:	a908      	add	r1, sp, #32
 80018ea:	9508      	str	r5, [sp, #32]
 80018ec:	f002 f9da 	bl	8003ca4 <HAL_TIM_ConfigClockSource>
 80018f0:	b108      	cbz	r0, 80018f6 <main+0x406>
 80018f2:	b672      	cpsid	i
 80018f4:	e7fe      	b.n	80018f4 <main+0x404>
 80018f6:	4658      	mov	r0, fp
 80018f8:	f002 f814 	bl	8003924 <HAL_TIM_PWM_Init>
 80018fc:	b108      	cbz	r0, 8001902 <main+0x412>
 80018fe:	b672      	cpsid	i
 8001900:	e7fe      	b.n	8001900 <main+0x410>
 8001902:	4658      	mov	r0, fp
 8001904:	a906      	add	r1, sp, #24
 8001906:	e9cd 6706 	strd	r6, r7, [sp, #24]
 800190a:	f002 fb21 	bl	8003f50 <HAL_TIMEx_MasterConfigSynchronization>
 800190e:	b108      	cbz	r0, 8001914 <main+0x424>
 8001910:	b672      	cpsid	i
 8001912:	e7fe      	b.n	8001912 <main+0x422>
 8001914:	2200      	movs	r2, #0
 8001916:	2660      	movs	r6, #96	; 0x60
 8001918:	2700      	movs	r7, #0
 800191a:	485e      	ldr	r0, [pc, #376]	; (8001a94 <main+0x5a4>)
 800191c:	a90c      	add	r1, sp, #48	; 0x30
 800191e:	e9cd 670c 	strd	r6, r7, [sp, #48]	; 0x30
 8001922:	920e      	str	r2, [sp, #56]	; 0x38
 8001924:	9210      	str	r2, [sp, #64]	; 0x40
 8001926:	f002 f8b7 	bl	8003a98 <HAL_TIM_PWM_ConfigChannel>
 800192a:	b108      	cbz	r0, 8001930 <main+0x440>
 800192c:	b672      	cpsid	i
 800192e:	e7fe      	b.n	800192e <main+0x43e>
 8001930:	2204      	movs	r2, #4
 8001932:	4858      	ldr	r0, [pc, #352]	; (8001a94 <main+0x5a4>)
 8001934:	a90c      	add	r1, sp, #48	; 0x30
 8001936:	f002 f8af 	bl	8003a98 <HAL_TIM_PWM_ConfigChannel>
 800193a:	4604      	mov	r4, r0
 800193c:	b108      	cbz	r0, 8001942 <main+0x452>
 800193e:	b672      	cpsid	i
 8001940:	e7fe      	b.n	8001940 <main+0x450>
 8001942:	4854      	ldr	r0, [pc, #336]	; (8001a94 <main+0x5a4>)
 8001944:	f000 fb18 	bl	8001f78 <HAL_TIM_MspPostInit>
 8001948:	f240 519f 	movw	r1, #1439	; 0x59f
 800194c:	f240 33e7 	movw	r3, #999	; 0x3e7
 8001950:	4d51      	ldr	r5, [pc, #324]	; (8001a98 <main+0x5a8>)
 8001952:	4a52      	ldr	r2, [pc, #328]	; (8001a9c <main+0x5ac>)
 8001954:	4628      	mov	r0, r5
 8001956:	e9cd 4408 	strd	r4, r4, [sp, #32]
 800195a:	e9cd 440a 	strd	r4, r4, [sp, #40]	; 0x28
 800195e:	e9cd 4406 	strd	r4, r4, [sp, #24]
 8001962:	e9cd 440c 	strd	r4, r4, [sp, #48]	; 0x30
 8001966:	e9cd 440e 	strd	r4, r4, [sp, #56]	; 0x38
 800196a:	e9cd 4410 	strd	r4, r4, [sp, #64]	; 0x40
 800196e:	e9c5 1401 	strd	r1, r4, [r5, #4]
 8001972:	9412      	str	r4, [sp, #72]	; 0x48
 8001974:	612c      	str	r4, [r5, #16]
 8001976:	61ac      	str	r4, [r5, #24]
 8001978:	602a      	str	r2, [r5, #0]
 800197a:	60eb      	str	r3, [r5, #12]
 800197c:	f001 ff40 	bl	8003800 <HAL_TIM_Base_Init>
 8001980:	b108      	cbz	r0, 8001986 <main+0x496>
 8001982:	b672      	cpsid	i
 8001984:	e7fe      	b.n	8001984 <main+0x494>
 8001986:	f44f 5380 	mov.w	r3, #4096	; 0x1000
 800198a:	4628      	mov	r0, r5
 800198c:	a908      	add	r1, sp, #32
 800198e:	9308      	str	r3, [sp, #32]
 8001990:	f002 f988 	bl	8003ca4 <HAL_TIM_ConfigClockSource>
 8001994:	b108      	cbz	r0, 800199a <main+0x4aa>
 8001996:	b672      	cpsid	i
 8001998:	e7fe      	b.n	8001998 <main+0x4a8>
 800199a:	4628      	mov	r0, r5
 800199c:	f001 ffc2 	bl	8003924 <HAL_TIM_PWM_Init>
 80019a0:	b108      	cbz	r0, 80019a6 <main+0x4b6>
 80019a2:	b672      	cpsid	i
 80019a4:	e7fe      	b.n	80019a4 <main+0x4b4>
 80019a6:	2200      	movs	r2, #0
 80019a8:	2300      	movs	r3, #0
 80019aa:	4628      	mov	r0, r5
 80019ac:	a906      	add	r1, sp, #24
 80019ae:	e9cd 2306 	strd	r2, r3, [sp, #24]
 80019b2:	f002 facd 	bl	8003f50 <HAL_TIMEx_MasterConfigSynchronization>
 80019b6:	4602      	mov	r2, r0
 80019b8:	b108      	cbz	r0, 80019be <main+0x4ce>
 80019ba:	b672      	cpsid	i
 80019bc:	e7fe      	b.n	80019bc <main+0x4cc>
 80019be:	4628      	mov	r0, r5
 80019c0:	a90c      	add	r1, sp, #48	; 0x30
 80019c2:	e9cd 670c 	strd	r6, r7, [sp, #48]	; 0x30
 80019c6:	920e      	str	r2, [sp, #56]	; 0x38
 80019c8:	9210      	str	r2, [sp, #64]	; 0x40
 80019ca:	f002 f865 	bl	8003a98 <HAL_TIM_PWM_ConfigChannel>
 80019ce:	b108      	cbz	r0, 80019d4 <main+0x4e4>
 80019d0:	b672      	cpsid	i
 80019d2:	e7fe      	b.n	80019d2 <main+0x4e2>
 80019d4:	2204      	movs	r2, #4
 80019d6:	4628      	mov	r0, r5
 80019d8:	a90c      	add	r1, sp, #48	; 0x30
 80019da:	f002 f85d 	bl	8003a98 <HAL_TIM_PWM_ConfigChannel>
 80019de:	4606      	mov	r6, r0
 80019e0:	b108      	cbz	r0, 80019e6 <main+0x4f6>
 80019e2:	b672      	cpsid	i
 80019e4:	e7fe      	b.n	80019e4 <main+0x4f4>
 80019e6:	4628      	mov	r0, r5
 80019e8:	f000 fac6 	bl	8001f78 <HAL_TIM_MspPostInit>
 80019ec:	f44f 7080 	mov.w	r0, #256	; 0x100
 80019f0:	f44f 2260 	mov.w	r2, #917504	; 0xe0000
 80019f4:	2305      	movs	r3, #5
 80019f6:	4c2a      	ldr	r4, [pc, #168]	; (8001aa0 <main+0x5b0>)
 80019f8:	492a      	ldr	r1, [pc, #168]	; (8001aa4 <main+0x5b4>)
 80019fa:	60a0      	str	r0, [r4, #8]
 80019fc:	4620      	mov	r0, r4
 80019fe:	e9cd 660c 	strd	r6, r6, [sp, #48]	; 0x30
 8001a02:	960e      	str	r6, [sp, #56]	; 0x38
 8001a04:	7326      	strb	r6, [r4, #12]
 8001a06:	7526      	strb	r6, [r4, #20]
 8001a08:	6066      	str	r6, [r4, #4]
 8001a0a:	6021      	str	r1, [r4, #0]
 8001a0c:	61e2      	str	r2, [r4, #28]
 8001a0e:	6123      	str	r3, [r4, #16]
 8001a10:	f000 fc86 	bl	8002320 <HAL_ADC_Init>
 8001a14:	b108      	cbz	r0, 8001a1a <main+0x52a>
 8001a16:	b672      	cpsid	i
 8001a18:	e7fe      	b.n	8001a18 <main+0x528>
 8001a1a:	2601      	movs	r6, #1
 8001a1c:	2701      	movs	r7, #1
 8001a1e:	2307      	movs	r3, #7
 8001a20:	4620      	mov	r0, r4
 8001a22:	a90c      	add	r1, sp, #48	; 0x30
 8001a24:	e9cd 670c 	strd	r6, r7, [sp, #48]	; 0x30
 8001a28:	930e      	str	r3, [sp, #56]	; 0x38
 8001a2a:	f000 fd6f 	bl	800250c <HAL_ADC_ConfigChannel>
 8001a2e:	b108      	cbz	r0, 8001a34 <main+0x544>
 8001a30:	b672      	cpsid	i
 8001a32:	e7fe      	b.n	8001a32 <main+0x542>
 8001a34:	2203      	movs	r2, #3
 8001a36:	2302      	movs	r3, #2
 8001a38:	4819      	ldr	r0, [pc, #100]	; (8001aa0 <main+0x5b0>)
 8001a3a:	a90c      	add	r1, sp, #48	; 0x30
 8001a3c:	e9cd 230c 	strd	r2, r3, [sp, #48]	; 0x30
 8001a40:	f000 fd64 	bl	800250c <HAL_ADC_ConfigChannel>
 8001a44:	b108      	cbz	r0, 8001a4a <main+0x55a>
 8001a46:	b672      	cpsid	i
 8001a48:	e7fe      	b.n	8001a48 <main+0x558>
 8001a4a:	2205      	movs	r2, #5
 8001a4c:	2303      	movs	r3, #3
 8001a4e:	4814      	ldr	r0, [pc, #80]	; (8001aa0 <main+0x5b0>)
 8001a50:	a90c      	add	r1, sp, #48	; 0x30
 8001a52:	e9cd 230c 	strd	r2, r3, [sp, #48]	; 0x30
 8001a56:	f000 fd59 	bl	800250c <HAL_ADC_ConfigChannel>
 8001a5a:	b108      	cbz	r0, 8001a60 <main+0x570>
 8001a5c:	b672      	cpsid	i
 8001a5e:	e7fe      	b.n	8001a5e <main+0x56e>
 8001a60:	2207      	movs	r2, #7
 8001a62:	2304      	movs	r3, #4
 8001a64:	480e      	ldr	r0, [pc, #56]	; (8001aa0 <main+0x5b0>)
 8001a66:	a90c      	add	r1, sp, #48	; 0x30
 8001a68:	e9cd 230c 	strd	r2, r3, [sp, #48]	; 0x30
 8001a6c:	f000 fd4e 	bl	800250c <HAL_ADC_ConfigChannel>
 8001a70:	b108      	cbz	r0, 8001a76 <main+0x586>
 8001a72:	b672      	cpsid	i
 8001a74:	e7fe      	b.n	8001a74 <main+0x584>
 8001a76:	2209      	movs	r2, #9
 8001a78:	2305      	movs	r3, #5
 8001a7a:	4809      	ldr	r0, [pc, #36]	; (8001aa0 <main+0x5b0>)
 8001a7c:	a90c      	add	r1, sp, #48	; 0x30
 8001a7e:	e9cd 230c 	strd	r2, r3, [sp, #48]	; 0x30
 8001a82:	f000 fd43 	bl	800250c <HAL_ADC_ConfigChannel>
 8001a86:	4604      	mov	r4, r0
 8001a88:	b180      	cbz	r0, 8001aac <main+0x5bc>
 8001a8a:	b672      	cpsid	i
 8001a8c:	e7fe      	b.n	8001a8c <main+0x59c>
 8001a8e:	bf00      	nop
 8001a90:	40000400 	.word	0x40000400
 8001a94:	20004238 	.word	0x20004238
 8001a98:	200041a0 	.word	0x200041a0
 8001a9c:	40000800 	.word	0x40000800
 8001aa0:	200041ec 	.word	0x200041ec
 8001aa4:	40012800 	.word	0x40012800
 8001aa8:	20004484 	.word	0x20004484
 8001aac:	f002 fdae 	bl	800460c <osKernelInitialize>
 8001ab0:	4622      	mov	r2, r4
 8001ab2:	4621      	mov	r1, r4
 8001ab4:	4b4d      	ldr	r3, [pc, #308]	; (8001bec <main+0x6fc>)
 8001ab6:	484e      	ldr	r0, [pc, #312]	; (8001bf0 <main+0x700>)
 8001ab8:	f002 ff4a 	bl	8004950 <osTimerNew>
 8001abc:	4605      	mov	r5, r0
 8001abe:	4b4d      	ldr	r3, [pc, #308]	; (8001bf4 <main+0x704>)
 8001ac0:	2104      	movs	r1, #4
 8001ac2:	4a4d      	ldr	r2, [pc, #308]	; (8001bf8 <main+0x708>)
 8001ac4:	2003      	movs	r0, #3
 8001ac6:	601d      	str	r5, [r3, #0]
 8001ac8:	f003 f896 	bl	8004bf8 <osMessageQueueNew>
 8001acc:	4605      	mov	r5, r0
 8001ace:	4b4b      	ldr	r3, [pc, #300]	; (8001bfc <main+0x70c>)
 8001ad0:	2104      	movs	r1, #4
 8001ad2:	4a4b      	ldr	r2, [pc, #300]	; (8001c00 <main+0x710>)
 8001ad4:	2003      	movs	r0, #3
 8001ad6:	601d      	str	r5, [r3, #0]
 8001ad8:	f003 f88e 	bl	8004bf8 <osMessageQueueNew>
 8001adc:	4605      	mov	r5, r0
 8001ade:	4b49      	ldr	r3, [pc, #292]	; (8001c04 <main+0x714>)
 8001ae0:	4621      	mov	r1, r4
 8001ae2:	4a49      	ldr	r2, [pc, #292]	; (8001c08 <main+0x718>)
 8001ae4:	4849      	ldr	r0, [pc, #292]	; (8001c0c <main+0x71c>)
 8001ae6:	601d      	str	r5, [r3, #0]
 8001ae8:	f002 fdcc 	bl	8004684 <osThreadNew>
 8001aec:	4605      	mov	r5, r0
 8001aee:	4b48      	ldr	r3, [pc, #288]	; (8001c10 <main+0x720>)
 8001af0:	4621      	mov	r1, r4
 8001af2:	4a48      	ldr	r2, [pc, #288]	; (8001c14 <main+0x724>)
 8001af4:	4848      	ldr	r0, [pc, #288]	; (8001c18 <main+0x728>)
 8001af6:	601d      	str	r5, [r3, #0]
 8001af8:	f002 fdc4 	bl	8004684 <osThreadNew>
 8001afc:	4605      	mov	r5, r0
 8001afe:	4b47      	ldr	r3, [pc, #284]	; (8001c1c <main+0x72c>)
 8001b00:	4621      	mov	r1, r4
 8001b02:	4a47      	ldr	r2, [pc, #284]	; (8001c20 <main+0x730>)
 8001b04:	4847      	ldr	r0, [pc, #284]	; (8001c24 <main+0x734>)
 8001b06:	601d      	str	r5, [r3, #0]
 8001b08:	f002 fdbc 	bl	8004684 <osThreadNew>
 8001b0c:	4605      	mov	r5, r0
 8001b0e:	4b46      	ldr	r3, [pc, #280]	; (8001c28 <main+0x738>)
 8001b10:	4621      	mov	r1, r4
 8001b12:	4a46      	ldr	r2, [pc, #280]	; (8001c2c <main+0x73c>)
 8001b14:	4846      	ldr	r0, [pc, #280]	; (8001c30 <main+0x740>)
 8001b16:	601d      	str	r5, [r3, #0]
 8001b18:	f002 fdb4 	bl	8004684 <osThreadNew>
 8001b1c:	4605      	mov	r5, r0
 8001b1e:	4b45      	ldr	r3, [pc, #276]	; (8001c34 <main+0x744>)
 8001b20:	4621      	mov	r1, r4
 8001b22:	4a45      	ldr	r2, [pc, #276]	; (8001c38 <main+0x748>)
 8001b24:	4845      	ldr	r0, [pc, #276]	; (8001c3c <main+0x74c>)
 8001b26:	601d      	str	r5, [r3, #0]
 8001b28:	f002 fdac 	bl	8004684 <osThreadNew>
 8001b2c:	4605      	mov	r5, r0
 8001b2e:	4b44      	ldr	r3, [pc, #272]	; (8001c40 <main+0x750>)
 8001b30:	4621      	mov	r1, r4
 8001b32:	4a44      	ldr	r2, [pc, #272]	; (8001c44 <main+0x754>)
 8001b34:	4844      	ldr	r0, [pc, #272]	; (8001c48 <main+0x758>)
 8001b36:	601d      	str	r5, [r3, #0]
 8001b38:	f002 fda4 	bl	8004684 <osThreadNew>
 8001b3c:	4605      	mov	r5, r0
 8001b3e:	4b43      	ldr	r3, [pc, #268]	; (8001c4c <main+0x75c>)
 8001b40:	4621      	mov	r1, r4
 8001b42:	4a43      	ldr	r2, [pc, #268]	; (8001c50 <main+0x760>)
 8001b44:	4843      	ldr	r0, [pc, #268]	; (8001c54 <main+0x764>)
 8001b46:	601d      	str	r5, [r3, #0]
 8001b48:	f002 fd9c 	bl	8004684 <osThreadNew>
 8001b4c:	4605      	mov	r5, r0
 8001b4e:	4b42      	ldr	r3, [pc, #264]	; (8001c58 <main+0x768>)
 8001b50:	4621      	mov	r1, r4
 8001b52:	4a42      	ldr	r2, [pc, #264]	; (8001c5c <main+0x76c>)
 8001b54:	4842      	ldr	r0, [pc, #264]	; (8001c60 <main+0x770>)
 8001b56:	601d      	str	r5, [r3, #0]
 8001b58:	f002 fd94 	bl	8004684 <osThreadNew>
 8001b5c:	4605      	mov	r5, r0
 8001b5e:	4b41      	ldr	r3, [pc, #260]	; (8001c64 <main+0x774>)
 8001b60:	4621      	mov	r1, r4
 8001b62:	4a41      	ldr	r2, [pc, #260]	; (8001c68 <main+0x778>)
 8001b64:	4841      	ldr	r0, [pc, #260]	; (8001c6c <main+0x77c>)
 8001b66:	601d      	str	r5, [r3, #0]
 8001b68:	f002 fd8c 	bl	8004684 <osThreadNew>
 8001b6c:	4605      	mov	r5, r0
 8001b6e:	4b40      	ldr	r3, [pc, #256]	; (8001c70 <main+0x780>)
 8001b70:	4621      	mov	r1, r4
 8001b72:	4a40      	ldr	r2, [pc, #256]	; (8001c74 <main+0x784>)
 8001b74:	4840      	ldr	r0, [pc, #256]	; (8001c78 <main+0x788>)
 8001b76:	601d      	str	r5, [r3, #0]
 8001b78:	f002 fd84 	bl	8004684 <osThreadNew>
 8001b7c:	4605      	mov	r5, r0
 8001b7e:	4b3f      	ldr	r3, [pc, #252]	; (8001c7c <main+0x78c>)
 8001b80:	4621      	mov	r1, r4
 8001b82:	4a3f      	ldr	r2, [pc, #252]	; (8001c80 <main+0x790>)
 8001b84:	483f      	ldr	r0, [pc, #252]	; (8001c84 <main+0x794>)
 8001b86:	601d      	str	r5, [r3, #0]
 8001b88:	f002 fd7c 	bl	8004684 <osThreadNew>
 8001b8c:	4605      	mov	r5, r0
 8001b8e:	4b3e      	ldr	r3, [pc, #248]	; (8001c88 <main+0x798>)
 8001b90:	4621      	mov	r1, r4
 8001b92:	4a3e      	ldr	r2, [pc, #248]	; (8001c8c <main+0x79c>)
 8001b94:	483e      	ldr	r0, [pc, #248]	; (8001c90 <main+0x7a0>)
 8001b96:	601d      	str	r5, [r3, #0]
 8001b98:	f002 fd74 	bl	8004684 <osThreadNew>
 8001b9c:	4605      	mov	r5, r0
 8001b9e:	4b3d      	ldr	r3, [pc, #244]	; (8001c94 <main+0x7a4>)
 8001ba0:	4621      	mov	r1, r4
 8001ba2:	4a3d      	ldr	r2, [pc, #244]	; (8001c98 <main+0x7a8>)
 8001ba4:	483d      	ldr	r0, [pc, #244]	; (8001c9c <main+0x7ac>)
 8001ba6:	601d      	str	r5, [r3, #0]
 8001ba8:	f002 fd6c 	bl	8004684 <osThreadNew>
 8001bac:	4605      	mov	r5, r0
 8001bae:	4b3c      	ldr	r3, [pc, #240]	; (8001ca0 <main+0x7b0>)
 8001bb0:	4621      	mov	r1, r4
 8001bb2:	4a3c      	ldr	r2, [pc, #240]	; (8001ca4 <main+0x7b4>)
 8001bb4:	483c      	ldr	r0, [pc, #240]	; (8001ca8 <main+0x7b8>)
 8001bb6:	601d      	str	r5, [r3, #0]
 8001bb8:	f002 fd64 	bl	8004684 <osThreadNew>
 8001bbc:	4602      	mov	r2, r0
 8001bbe:	4b3b      	ldr	r3, [pc, #236]	; (8001cac <main+0x7bc>)
 8001bc0:	483b      	ldr	r0, [pc, #236]	; (8001cb0 <main+0x7c0>)
 8001bc2:	601a      	str	r2, [r3, #0]
 8001bc4:	f002 ff2e 	bl	8004a24 <osEventFlagsNew>
 8001bc8:	4602      	mov	r2, r0
 8001bca:	4b3a      	ldr	r3, [pc, #232]	; (8001cb4 <main+0x7c4>)
 8001bcc:	483a      	ldr	r0, [pc, #232]	; (8001cb8 <main+0x7c8>)
 8001bce:	601a      	str	r2, [r3, #0]
 8001bd0:	f002 ff28 	bl	8004a24 <osEventFlagsNew>
 8001bd4:	4602      	mov	r2, r0
 8001bd6:	4b39      	ldr	r3, [pc, #228]	; (8001cbc <main+0x7cc>)
 8001bd8:	4839      	ldr	r0, [pc, #228]	; (8001cc0 <main+0x7d0>)
 8001bda:	601a      	str	r2, [r3, #0]
 8001bdc:	f002 ff22 	bl	8004a24 <osEventFlagsNew>
 8001be0:	4b38      	ldr	r3, [pc, #224]	; (8001cc4 <main+0x7d4>)
 8001be2:	6018      	str	r0, [r3, #0]
 8001be4:	f002 fd2c 	bl	8004640 <osKernelStart>
 8001be8:	e7fe      	b.n	8001be8 <main+0x6f8>
 8001bea:	bf00      	nop
 8001bec:	08007f3c 	.word	0x08007f3c
 8001bf0:	080005e5 	.word	0x080005e5
 8001bf4:	20004420 	.word	0x20004420
 8001bf8:	08007f6c 	.word	0x08007f6c
 8001bfc:	20004470 	.word	0x20004470
 8001c00:	08007f24 	.word	0x08007f24
 8001c04:	2000447c 	.word	0x2000447c
 8001c08:	08007ecc 	.word	0x08007ecc
 8001c0c:	080005f1 	.word	0x080005f1
 8001c10:	200043b0 	.word	0x200043b0
 8001c14:	08007ea8 	.word	0x08007ea8
 8001c18:	080006c5 	.word	0x080006c5
 8001c1c:	20004280 	.word	0x20004280
 8001c20:	08007ef0 	.word	0x08007ef0
 8001c24:	0800076d 	.word	0x0800076d
 8001c28:	20004358 	.word	0x20004358
 8001c2c:	08007d40 	.word	0x08007d40
 8001c30:	08000829 	.word	0x08000829
 8001c34:	2000421c 	.word	0x2000421c
 8001c38:	08007e3c 	.word	0x08007e3c
 8001c3c:	08000871 	.word	0x08000871
 8001c40:	200043a4 	.word	0x200043a4
 8001c44:	08007d64 	.word	0x08007d64
 8001c48:	080008b9 	.word	0x080008b9
 8001c4c:	2000414c 	.word	0x2000414c
 8001c50:	08007e60 	.word	0x08007e60
 8001c54:	08000901 	.word	0x08000901
 8001c58:	20004478 	.word	0x20004478
 8001c5c:	08007d88 	.word	0x08007d88
 8001c60:	08000949 	.word	0x08000949
 8001c64:	200044cc 	.word	0x200044cc
 8001c68:	08007e84 	.word	0x08007e84
 8001c6c:	08000991 	.word	0x08000991
 8001c70:	20004140 	.word	0x20004140
 8001c74:	08007df4 	.word	0x08007df4
 8001c78:	080009d9 	.word	0x080009d9
 8001c7c:	200043ac 	.word	0x200043ac
 8001c80:	08007dac 	.word	0x08007dac
 8001c84:	08000b35 	.word	0x08000b35
 8001c88:	20004284 	.word	0x20004284
 8001c8c:	08007dd0 	.word	0x08007dd0
 8001c90:	08000cd5 	.word	0x08000cd5
 8001c94:	20004144 	.word	0x20004144
 8001c98:	08007d1c 	.word	0x08007d1c
 8001c9c:	080012cd 	.word	0x080012cd
 8001ca0:	200044f0 	.word	0x200044f0
 8001ca4:	08007e18 	.word	0x08007e18
 8001ca8:	08000bc5 	.word	0x08000bc5
 8001cac:	2000441c 	.word	0x2000441c
 8001cb0:	08007f14 	.word	0x08007f14
 8001cb4:	200044f8 	.word	0x200044f8
 8001cb8:	08007f5c 	.word	0x08007f5c
 8001cbc:	20004474 	.word	0x20004474
 8001cc0:	08007f4c 	.word	0x08007f4c
 8001cc4:	200044ec 	.word	0x200044ec

08001cc8 <HAL_ADC_ConvCpltCallback>:
 8001cc8:	4b04      	ldr	r3, [pc, #16]	; (8001cdc <HAL_ADC_ConvCpltCallback+0x14>)
 8001cca:	6802      	ldr	r2, [r0, #0]
 8001ccc:	429a      	cmp	r2, r3
 8001cce:	d000      	beq.n	8001cd2 <HAL_ADC_ConvCpltCallback+0xa>
 8001cd0:	4770      	bx	lr
 8001cd2:	4b03      	ldr	r3, [pc, #12]	; (8001ce0 <HAL_ADC_ConvCpltCallback+0x18>)
 8001cd4:	2101      	movs	r1, #1
 8001cd6:	6818      	ldr	r0, [r3, #0]
 8001cd8:	f002 bec6 	b.w	8004a68 <osEventFlagsSet>
 8001cdc:	40012400 	.word	0x40012400
 8001ce0:	20004474 	.word	0x20004474

08001ce4 <HAL_UART_TxCpltCallback>:
 8001ce4:	b508      	push	{r3, lr}
 8001ce6:	6802      	ldr	r2, [r0, #0]
 8001ce8:	4b05      	ldr	r3, [pc, #20]	; (8001d00 <HAL_UART_TxCpltCallback+0x1c>)
 8001cea:	429a      	cmp	r2, r3
 8001cec:	d000      	beq.n	8001cf0 <HAL_UART_TxCpltCallback+0xc>
 8001cee:	bd08      	pop	{r3, pc}
 8001cf0:	f000 fb10 	bl	8002314 <HAL_GetTick>
 8001cf4:	4a03      	ldr	r2, [pc, #12]	; (8001d04 <HAL_UART_TxCpltCallback+0x20>)
 8001cf6:	4b04      	ldr	r3, [pc, #16]	; (8001d08 <HAL_UART_TxCpltCallback+0x24>)
 8001cf8:	6812      	ldr	r2, [r2, #0]
 8001cfa:	1a80      	subs	r0, r0, r2
 8001cfc:	6018      	str	r0, [r3, #0]
 8001cfe:	bd08      	pop	{r3, pc}
 8001d00:	40013800 	.word	0x40013800
 8001d04:	20004228 	.word	0x20004228
 8001d08:	200044dc 	.word	0x200044dc

08001d0c <HAL_UART_RxCpltCallback>:
 8001d0c:	4b09      	ldr	r3, [pc, #36]	; (8001d34 <HAL_UART_RxCpltCallback+0x28>)
 8001d0e:	6802      	ldr	r2, [r0, #0]
 8001d10:	429a      	cmp	r2, r3
 8001d12:	d000      	beq.n	8001d16 <HAL_UART_RxCpltCallback+0xa>
 8001d14:	4770      	bx	lr
 8001d16:	b510      	push	{r4, lr}
 8001d18:	4604      	mov	r4, r0
 8001d1a:	4b07      	ldr	r3, [pc, #28]	; (8001d38 <HAL_UART_RxCpltCallback+0x2c>)
 8001d1c:	2101      	movs	r1, #1
 8001d1e:	6818      	ldr	r0, [r3, #0]
 8001d20:	f002 fea2 	bl	8004a68 <osEventFlagsSet>
 8001d24:	4b05      	ldr	r3, [pc, #20]	; (8001d3c <HAL_UART_RxCpltCallback+0x30>)
 8001d26:	4620      	mov	r0, r4
 8001d28:	e8bd 4010 	ldmia.w	sp!, {r4, lr}
 8001d2c:	2215      	movs	r2, #21
 8001d2e:	6819      	ldr	r1, [r3, #0]
 8001d30:	f002 b9e8 	b.w	8004104 <HAL_UART_Receive_DMA>
 8001d34:	40013800 	.word	0x40013800
 8001d38:	200044f8 	.word	0x200044f8
 8001d3c:	2000413c 	.word	0x2000413c

08001d40 <HAL_GPIO_EXTI_Callback>:
 8001d40:	b430      	push	{r4, r5}
 8001d42:	4c09      	ldr	r4, [pc, #36]	; (8001d68 <HAL_GPIO_EXTI_Callback+0x28>)
 8001d44:	8823      	ldrh	r3, [r4, #0]
 8001d46:	b29b      	uxth	r3, r3
 8001d48:	b90b      	cbnz	r3, 8001d4e <HAL_GPIO_EXTI_Callback+0xe>
 8001d4a:	bc30      	pop	{r4, r5}
 8001d4c:	4770      	bx	lr
 8001d4e:	2300      	movs	r3, #0
 8001d50:	4602      	mov	r2, r0
 8001d52:	2101      	movs	r1, #1
 8001d54:	4d05      	ldr	r5, [pc, #20]	; (8001d6c <HAL_GPIO_EXTI_Callback+0x2c>)
 8001d56:	4806      	ldr	r0, [pc, #24]	; (8001d70 <HAL_GPIO_EXTI_Callback+0x30>)
 8001d58:	8023      	strh	r3, [r4, #0]
 8001d5a:	4b06      	ldr	r3, [pc, #24]	; (8001d74 <HAL_GPIO_EXTI_Callback+0x34>)
 8001d5c:	802a      	strh	r2, [r5, #0]
 8001d5e:	6800      	ldr	r0, [r0, #0]
 8001d60:	bc30      	pop	{r4, r5}
 8001d62:	8019      	strh	r1, [r3, #0]
 8001d64:	f002 bcf0 	b.w	8004748 <osThreadFlagsSet>
 8001d68:	200044d4 	.word	0x200044d4
 8001d6c:	200044f4 	.word	0x200044f4
 8001d70:	200044f0 	.word	0x200044f0
 8001d74:	2000440c 	.word	0x2000440c

08001d78 <HAL_TIM_PeriodElapsedCallback>:
 8001d78:	4b03      	ldr	r3, [pc, #12]	; (8001d88 <HAL_TIM_PeriodElapsedCallback+0x10>)
 8001d7a:	6802      	ldr	r2, [r0, #0]
 8001d7c:	429a      	cmp	r2, r3
 8001d7e:	d000      	beq.n	8001d82 <HAL_TIM_PeriodElapsedCallback+0xa>
 8001d80:	4770      	bx	lr
 8001d82:	f000 babb 	b.w	80022fc <HAL_IncTick>
 8001d86:	bf00      	nop
 8001d88:	40012c00 	.word	0x40012c00

08001d8c <Error_Handler>:
 8001d8c:	b672      	cpsid	i
 8001d8e:	e7fe      	b.n	8001d8e <Error_Handler+0x2>

08001d90 <HAL_MspInit>:
 8001d90:	4b11      	ldr	r3, [pc, #68]	; (8001dd8 <HAL_MspInit+0x48>)
 8001d92:	b510      	push	{r4, lr}
 8001d94:	6998      	ldr	r0, [r3, #24]
 8001d96:	b082      	sub	sp, #8
 8001d98:	f040 0001 	orr.w	r0, r0, #1
 8001d9c:	6198      	str	r0, [r3, #24]
 8001d9e:	699c      	ldr	r4, [r3, #24]
 8001da0:	2200      	movs	r2, #0
 8001da2:	f004 0401 	and.w	r4, r4, #1
 8001da6:	9400      	str	r4, [sp, #0]
 8001da8:	9c00      	ldr	r4, [sp, #0]
 8001daa:	69dc      	ldr	r4, [r3, #28]
 8001dac:	210f      	movs	r1, #15
 8001dae:	f044 5480 	orr.w	r4, r4, #268435456	; 0x10000000
 8001db2:	61dc      	str	r4, [r3, #28]
 8001db4:	69db      	ldr	r3, [r3, #28]
 8001db6:	f06f 0001 	mvn.w	r0, #1
 8001dba:	f003 5380 	and.w	r3, r3, #268435456	; 0x10000000
 8001dbe:	9301      	str	r3, [sp, #4]
 8001dc0:	9b01      	ldr	r3, [sp, #4]
 8001dc2:	f000 fe41 	bl	8002a48 <HAL_NVIC_SetPriority>
 8001dc6:	4a05      	ldr	r2, [pc, #20]	; (8001ddc <HAL_MspInit+0x4c>)
 8001dc8:	6853      	ldr	r3, [r2, #4]
 8001dca:	f023 63e0 	bic.w	r3, r3, #117440512	; 0x7000000
 8001dce:	f043 7300 	orr.w	r3, r3, #33554432	; 0x2000000
 8001dd2:	6053      	str	r3, [r2, #4]
 8001dd4:	b002      	add	sp, #8
 8001dd6:	bd10      	pop	{r4, pc}
 8001dd8:	40021000 	.word	0x40021000
 8001ddc:	40010000 	.word	0x40010000

08001de0 <HAL_ADC_MspInit>:
 8001de0:	b570      	push	{r4, r5, r6, lr}
 8001de2:	2400      	movs	r4, #0
 8001de4:	6803      	ldr	r3, [r0, #0]
 8001de6:	4a41      	ldr	r2, [pc, #260]	; (8001eec <HAL_ADC_MspInit+0x10c>)
 8001de8:	b08a      	sub	sp, #40	; 0x28
 8001dea:	4293      	cmp	r3, r2
 8001dec:	e9cd 4406 	strd	r4, r4, [sp, #24]
 8001df0:	e9cd 4408 	strd	r4, r4, [sp, #32]
 8001df4:	d004      	beq.n	8001e00 <HAL_ADC_MspInit+0x20>
 8001df6:	4a3e      	ldr	r2, [pc, #248]	; (8001ef0 <HAL_ADC_MspInit+0x110>)
 8001df8:	4293      	cmp	r3, r2
 8001dfa:	d046      	beq.n	8001e8a <HAL_ADC_MspInit+0xaa>
 8001dfc:	b00a      	add	sp, #40	; 0x28
 8001dfe:	bd70      	pop	{r4, r5, r6, pc}
 8001e00:	2103      	movs	r1, #3
 8001e02:	4605      	mov	r5, r0
 8001e04:	2055      	movs	r0, #85	; 0x55
 8001e06:	4b3b      	ldr	r3, [pc, #236]	; (8001ef4 <HAL_ADC_MspInit+0x114>)
 8001e08:	4e3b      	ldr	r6, [pc, #236]	; (8001ef8 <HAL_ADC_MspInit+0x118>)
 8001e0a:	699a      	ldr	r2, [r3, #24]
 8001e0c:	f442 7200 	orr.w	r2, r2, #512	; 0x200
 8001e10:	619a      	str	r2, [r3, #24]
 8001e12:	699a      	ldr	r2, [r3, #24]
 8001e14:	f402 7200 	and.w	r2, r2, #512	; 0x200
 8001e18:	9200      	str	r2, [sp, #0]
 8001e1a:	9a00      	ldr	r2, [sp, #0]
 8001e1c:	699a      	ldr	r2, [r3, #24]
 8001e1e:	f042 0204 	orr.w	r2, r2, #4
 8001e22:	619a      	str	r2, [r3, #24]
 8001e24:	699a      	ldr	r2, [r3, #24]
 8001e26:	f002 0204 	and.w	r2, r2, #4
 8001e2a:	9201      	str	r2, [sp, #4]
 8001e2c:	9a01      	ldr	r2, [sp, #4]
 8001e2e:	699a      	ldr	r2, [r3, #24]
 8001e30:	f042 0208 	orr.w	r2, r2, #8
 8001e34:	619a      	str	r2, [r3, #24]
 8001e36:	699b      	ldr	r3, [r3, #24]
 8001e38:	e9cd 0106 	strd	r0, r1, [sp, #24]
 8001e3c:	f003 0308 	and.w	r3, r3, #8
 8001e40:	482e      	ldr	r0, [pc, #184]	; (8001efc <HAL_ADC_MspInit+0x11c>)
 8001e42:	9302      	str	r3, [sp, #8]
 8001e44:	a906      	add	r1, sp, #24
 8001e46:	9b02      	ldr	r3, [sp, #8]
 8001e48:	f000 ffb8 	bl	8002dbc <HAL_GPIO_Init>
 8001e4c:	2201      	movs	r2, #1
 8001e4e:	2303      	movs	r3, #3
 8001e50:	482b      	ldr	r0, [pc, #172]	; (8001f00 <HAL_ADC_MspInit+0x120>)
 8001e52:	a906      	add	r1, sp, #24
 8001e54:	e9cd 2306 	strd	r2, r3, [sp, #24]
 8001e58:	f000 ffb0 	bl	8002dbc <HAL_GPIO_Init>
 8001e5c:	2080      	movs	r0, #128	; 0x80
 8001e5e:	f44f 7200 	mov.w	r2, #512	; 0x200
 8001e62:	f44f 6300 	mov.w	r3, #2048	; 0x800
 8001e66:	4927      	ldr	r1, [pc, #156]	; (8001f04 <HAL_ADC_MspInit+0x124>)
 8001e68:	60f0      	str	r0, [r6, #12]
 8001e6a:	4630      	mov	r0, r6
 8001e6c:	e9c6 4401 	strd	r4, r4, [r6, #4]
 8001e70:	e9c6 4406 	strd	r4, r4, [r6, #24]
 8001e74:	e9c6 2304 	strd	r2, r3, [r6, #16]
 8001e78:	6031      	str	r1, [r6, #0]
 8001e7a:	f000 fe2b 	bl	8002ad4 <HAL_DMA_Init>
 8001e7e:	2800      	cmp	r0, #0
 8001e80:	d131      	bne.n	8001ee6 <HAL_ADC_MspInit+0x106>
 8001e82:	622e      	str	r6, [r5, #32]
 8001e84:	6275      	str	r5, [r6, #36]	; 0x24
 8001e86:	b00a      	add	sp, #40	; 0x28
 8001e88:	bd70      	pop	{r4, r5, r6, pc}
 8001e8a:	24aa      	movs	r4, #170	; 0xaa
 8001e8c:	2503      	movs	r5, #3
 8001e8e:	4b19      	ldr	r3, [pc, #100]	; (8001ef4 <HAL_ADC_MspInit+0x114>)
 8001e90:	a906      	add	r1, sp, #24
 8001e92:	699a      	ldr	r2, [r3, #24]
 8001e94:	4819      	ldr	r0, [pc, #100]	; (8001efc <HAL_ADC_MspInit+0x11c>)
 8001e96:	f442 6280 	orr.w	r2, r2, #1024	; 0x400
 8001e9a:	619a      	str	r2, [r3, #24]
 8001e9c:	699a      	ldr	r2, [r3, #24]
 8001e9e:	f402 6280 	and.w	r2, r2, #1024	; 0x400
 8001ea2:	9203      	str	r2, [sp, #12]
 8001ea4:	9a03      	ldr	r2, [sp, #12]
 8001ea6:	699a      	ldr	r2, [r3, #24]
 8001ea8:	f042 0204 	orr.w	r2, r2, #4
 8001eac:	619a      	str	r2, [r3, #24]
 8001eae:	699a      	ldr	r2, [r3, #24]
 8001eb0:	f002 0204 	and.w	r2, r2, #4
 8001eb4:	9204      	str	r2, [sp, #16]
 8001eb6:	9a04      	ldr	r2, [sp, #16]
 8001eb8:	699a      	ldr	r2, [r3, #24]
 8001eba:	f042 0208 	orr.w	r2, r2, #8
 8001ebe:	619a      	str	r2, [r3, #24]
 8001ec0:	699b      	ldr	r3, [r3, #24]
 8001ec2:	e9cd 4506 	strd	r4, r5, [sp, #24]
 8001ec6:	f003 0308 	and.w	r3, r3, #8
 8001eca:	9305      	str	r3, [sp, #20]
 8001ecc:	9b05      	ldr	r3, [sp, #20]
 8001ece:	f000 ff75 	bl	8002dbc <HAL_GPIO_Init>
 8001ed2:	2202      	movs	r2, #2
 8001ed4:	2303      	movs	r3, #3
 8001ed6:	480a      	ldr	r0, [pc, #40]	; (8001f00 <HAL_ADC_MspInit+0x120>)
 8001ed8:	a906      	add	r1, sp, #24
 8001eda:	e9cd 2306 	strd	r2, r3, [sp, #24]
 8001ede:	f000 ff6d 	bl	8002dbc <HAL_GPIO_Init>
 8001ee2:	b00a      	add	sp, #40	; 0x28
 8001ee4:	bd70      	pop	{r4, r5, r6, pc}
 8001ee6:	f7ff ff51 	bl	8001d8c <Error_Handler>
 8001eea:	e7ca      	b.n	8001e82 <HAL_ADC_MspInit+0xa2>
 8001eec:	40012400 	.word	0x40012400
 8001ef0:	40012800 	.word	0x40012800
 8001ef4:	40021000 	.word	0x40021000
 8001ef8:	200043b4 	.word	0x200043b4
 8001efc:	40010800 	.word	0x40010800
 8001f00:	40010c00 	.word	0x40010c00
 8001f04:	40020008 	.word	0x40020008

08001f08 <HAL_TIM_Base_MspInit>:
 8001f08:	6803      	ldr	r3, [r0, #0]
 8001f0a:	b084      	sub	sp, #16
 8001f0c:	f1b3 4f80 	cmp.w	r3, #1073741824	; 0x40000000
 8001f10:	d013      	beq.n	8001f3a <HAL_TIM_Base_MspInit+0x32>
 8001f12:	4a16      	ldr	r2, [pc, #88]	; (8001f6c <HAL_TIM_Base_MspInit+0x64>)
 8001f14:	4293      	cmp	r3, r2
 8001f16:	d004      	beq.n	8001f22 <HAL_TIM_Base_MspInit+0x1a>
 8001f18:	4a15      	ldr	r2, [pc, #84]	; (8001f70 <HAL_TIM_Base_MspInit+0x68>)
 8001f1a:	4293      	cmp	r3, r2
 8001f1c:	d01a      	beq.n	8001f54 <HAL_TIM_Base_MspInit+0x4c>
 8001f1e:	b004      	add	sp, #16
 8001f20:	4770      	bx	lr
 8001f22:	4b14      	ldr	r3, [pc, #80]	; (8001f74 <HAL_TIM_Base_MspInit+0x6c>)
 8001f24:	69da      	ldr	r2, [r3, #28]
 8001f26:	f042 0202 	orr.w	r2, r2, #2
 8001f2a:	61da      	str	r2, [r3, #28]
 8001f2c:	69db      	ldr	r3, [r3, #28]
 8001f2e:	f003 0302 	and.w	r3, r3, #2
 8001f32:	9302      	str	r3, [sp, #8]
 8001f34:	9b02      	ldr	r3, [sp, #8]
 8001f36:	b004      	add	sp, #16
 8001f38:	4770      	bx	lr
 8001f3a:	f503 3304 	add.w	r3, r3, #135168	; 0x21000
 8001f3e:	69da      	ldr	r2, [r3, #28]
 8001f40:	f042 0201 	orr.w	r2, r2, #1
 8001f44:	61da      	str	r2, [r3, #28]
 8001f46:	69db      	ldr	r3, [r3, #28]
 8001f48:	f003 0301 	and.w	r3, r3, #1
 8001f4c:	9301      	str	r3, [sp, #4]
 8001f4e:	9b01      	ldr	r3, [sp, #4]
 8001f50:	b004      	add	sp, #16
 8001f52:	4770      	bx	lr
 8001f54:	4b07      	ldr	r3, [pc, #28]	; (8001f74 <HAL_TIM_Base_MspInit+0x6c>)
 8001f56:	69da      	ldr	r2, [r3, #28]
 8001f58:	f042 0204 	orr.w	r2, r2, #4
 8001f5c:	61da      	str	r2, [r3, #28]
 8001f5e:	69db      	ldr	r3, [r3, #28]
 8001f60:	f003 0304 	and.w	r3, r3, #4
 8001f64:	9303      	str	r3, [sp, #12]
 8001f66:	9b03      	ldr	r3, [sp, #12]
 8001f68:	b004      	add	sp, #16
 8001f6a:	4770      	bx	lr
 8001f6c:	40000400 	.word	0x40000400
 8001f70:	40000800 	.word	0x40000800
 8001f74:	40021000 	.word	0x40021000

08001f78 <HAL_TIM_MspPostInit>:
 8001f78:	2300      	movs	r3, #0
 8001f7a:	b5d0      	push	{r4, r6, r7, lr}
 8001f7c:	6802      	ldr	r2, [r0, #0]
 8001f7e:	b088      	sub	sp, #32
 8001f80:	f1b2 4f80 	cmp.w	r2, #1073741824	; 0x40000000
 8001f84:	e9cd 3304 	strd	r3, r3, [sp, #16]
 8001f88:	e9cd 3306 	strd	r3, r3, [sp, #24]
 8001f8c:	d007      	beq.n	8001f9e <HAL_TIM_MspPostInit+0x26>
 8001f8e:	4b3b      	ldr	r3, [pc, #236]	; (800207c <HAL_TIM_MspPostInit+0x104>)
 8001f90:	429a      	cmp	r2, r3
 8001f92:	d03c      	beq.n	800200e <HAL_TIM_MspPostInit+0x96>
 8001f94:	4b3a      	ldr	r3, [pc, #232]	; (8002080 <HAL_TIM_MspPostInit+0x108>)
 8001f96:	429a      	cmp	r2, r3
 8001f98:	d059      	beq.n	800204e <HAL_TIM_MspPostInit+0xd6>
 8001f9a:	b008      	add	sp, #32
 8001f9c:	bdd0      	pop	{r4, r6, r7, pc}
 8001f9e:	f44f 4000 	mov.w	r0, #32768	; 0x8000
 8001fa2:	2102      	movs	r1, #2
 8001fa4:	2402      	movs	r4, #2
 8001fa6:	f103 4380 	add.w	r3, r3, #1073741824	; 0x40000000
 8001faa:	f503 3304 	add.w	r3, r3, #135168	; 0x21000
 8001fae:	699a      	ldr	r2, [r3, #24]
 8001fb0:	f042 0204 	orr.w	r2, r2, #4
 8001fb4:	619a      	str	r2, [r3, #24]
 8001fb6:	699a      	ldr	r2, [r3, #24]
 8001fb8:	f002 0204 	and.w	r2, r2, #4
 8001fbc:	9200      	str	r2, [sp, #0]
 8001fbe:	9a00      	ldr	r2, [sp, #0]
 8001fc0:	699a      	ldr	r2, [r3, #24]
 8001fc2:	f042 0208 	orr.w	r2, r2, #8
 8001fc6:	619a      	str	r2, [r3, #24]
 8001fc8:	699b      	ldr	r3, [r3, #24]
 8001fca:	e9cd 0104 	strd	r0, r1, [sp, #16]
 8001fce:	f003 0308 	and.w	r3, r3, #8
 8001fd2:	f100 4080 	add.w	r0, r0, #1073741824	; 0x40000000
 8001fd6:	9301      	str	r3, [sp, #4]
 8001fd8:	a904      	add	r1, sp, #16
 8001fda:	f500 4008 	add.w	r0, r0, #34816	; 0x8800
 8001fde:	9b01      	ldr	r3, [sp, #4]
 8001fe0:	9407      	str	r4, [sp, #28]
 8001fe2:	f000 feeb 	bl	8002dbc <HAL_GPIO_Init>
 8001fe6:	2208      	movs	r2, #8
 8001fe8:	2302      	movs	r3, #2
 8001fea:	4826      	ldr	r0, [pc, #152]	; (8002084 <HAL_TIM_MspPostInit+0x10c>)
 8001fec:	a904      	add	r1, sp, #16
 8001fee:	e9cd 2304 	strd	r2, r3, [sp, #16]
 8001ff2:	9407      	str	r4, [sp, #28]
 8001ff4:	f000 fee2 	bl	8002dbc <HAL_GPIO_Init>
 8001ff8:	4a23      	ldr	r2, [pc, #140]	; (8002088 <HAL_TIM_MspPostInit+0x110>)
 8001ffa:	6853      	ldr	r3, [r2, #4]
 8001ffc:	f423 7340 	bic.w	r3, r3, #768	; 0x300
 8002000:	f043 63e0 	orr.w	r3, r3, #117440512	; 0x7000000
 8002004:	f443 7380 	orr.w	r3, r3, #256	; 0x100
 8002008:	6053      	str	r3, [r2, #4]
 800200a:	b008      	add	sp, #32
 800200c:	bdd0      	pop	{r4, r6, r7, pc}
 800200e:	2630      	movs	r6, #48	; 0x30
 8002010:	2702      	movs	r7, #2
 8002012:	2402      	movs	r4, #2
 8002014:	f503 3303 	add.w	r3, r3, #134144	; 0x20c00
 8002018:	699a      	ldr	r2, [r3, #24]
 800201a:	481a      	ldr	r0, [pc, #104]	; (8002084 <HAL_TIM_MspPostInit+0x10c>)
 800201c:	f042 0208 	orr.w	r2, r2, #8
 8002020:	619a      	str	r2, [r3, #24]
 8002022:	699b      	ldr	r3, [r3, #24]
 8002024:	a904      	add	r1, sp, #16
 8002026:	f003 0308 	and.w	r3, r3, #8
 800202a:	9302      	str	r3, [sp, #8]
 800202c:	9b02      	ldr	r3, [sp, #8]
 800202e:	e9cd 6704 	strd	r6, r7, [sp, #16]
 8002032:	9407      	str	r4, [sp, #28]
 8002034:	f000 fec2 	bl	8002dbc <HAL_GPIO_Init>
 8002038:	4a13      	ldr	r2, [pc, #76]	; (8002088 <HAL_TIM_MspPostInit+0x110>)
 800203a:	6853      	ldr	r3, [r2, #4]
 800203c:	f423 6340 	bic.w	r3, r3, #3072	; 0xc00
 8002040:	f043 63e0 	orr.w	r3, r3, #117440512	; 0x7000000
 8002044:	f443 6300 	orr.w	r3, r3, #2048	; 0x800
 8002048:	6053      	str	r3, [r2, #4]
 800204a:	b008      	add	sp, #32
 800204c:	bdd0      	pop	{r4, r6, r7, pc}
 800204e:	26c0      	movs	r6, #192	; 0xc0
 8002050:	2702      	movs	r7, #2
 8002052:	2402      	movs	r4, #2
 8002054:	f503 3302 	add.w	r3, r3, #133120	; 0x20800
 8002058:	699a      	ldr	r2, [r3, #24]
 800205a:	480a      	ldr	r0, [pc, #40]	; (8002084 <HAL_TIM_MspPostInit+0x10c>)
 800205c:	f042 0208 	orr.w	r2, r2, #8
 8002060:	619a      	str	r2, [r3, #24]
 8002062:	699b      	ldr	r3, [r3, #24]
 8002064:	a904      	add	r1, sp, #16
 8002066:	f003 0308 	and.w	r3, r3, #8
 800206a:	9303      	str	r3, [sp, #12]
 800206c:	e9cd 6704 	strd	r6, r7, [sp, #16]
 8002070:	9b03      	ldr	r3, [sp, #12]
 8002072:	9407      	str	r4, [sp, #28]
 8002074:	f000 fea2 	bl	8002dbc <HAL_GPIO_Init>
 8002078:	b008      	add	sp, #32
 800207a:	bdd0      	pop	{r4, r6, r7, pc}
 800207c:	40000400 	.word	0x40000400
 8002080:	40000800 	.word	0x40000800
 8002084:	40010c00 	.word	0x40010c00
 8002088:	40010000 	.word	0x40010000

0800208c <HAL_UART_MspInit>:
 800208c:	b570      	push	{r4, r5, r6, lr}
 800208e:	2400      	movs	r4, #0
 8002090:	6802      	ldr	r2, [r0, #0]
 8002092:	4b37      	ldr	r3, [pc, #220]	; (8002170 <HAL_UART_MspInit+0xe4>)
 8002094:	b086      	sub	sp, #24
 8002096:	429a      	cmp	r2, r3
 8002098:	e9cd 4402 	strd	r4, r4, [sp, #8]
 800209c:	e9cd 4404 	strd	r4, r4, [sp, #16]
 80020a0:	d001      	beq.n	80020a6 <HAL_UART_MspInit+0x1a>
 80020a2:	b006      	add	sp, #24
 80020a4:	bd70      	pop	{r4, r5, r6, pc}
 80020a6:	2102      	movs	r1, #2
 80020a8:	4605      	mov	r5, r0
 80020aa:	f44f 7000 	mov.w	r0, #512	; 0x200
 80020ae:	2603      	movs	r6, #3
 80020b0:	f503 4358 	add.w	r3, r3, #55296	; 0xd800
 80020b4:	699a      	ldr	r2, [r3, #24]
 80020b6:	f442 4280 	orr.w	r2, r2, #16384	; 0x4000
 80020ba:	619a      	str	r2, [r3, #24]
 80020bc:	699a      	ldr	r2, [r3, #24]
 80020be:	f402 4280 	and.w	r2, r2, #16384	; 0x4000
 80020c2:	9200      	str	r2, [sp, #0]
 80020c4:	9a00      	ldr	r2, [sp, #0]
 80020c6:	699a      	ldr	r2, [r3, #24]
 80020c8:	f042 0204 	orr.w	r2, r2, #4
 80020cc:	619a      	str	r2, [r3, #24]
 80020ce:	699b      	ldr	r3, [r3, #24]
 80020d0:	e9cd 0102 	strd	r0, r1, [sp, #8]
 80020d4:	f003 0304 	and.w	r3, r3, #4
 80020d8:	f100 4080 	add.w	r0, r0, #1073741824	; 0x40000000
 80020dc:	9301      	str	r3, [sp, #4]
 80020de:	a902      	add	r1, sp, #8
 80020e0:	f500 3083 	add.w	r0, r0, #67072	; 0x10600
 80020e4:	9b01      	ldr	r3, [sp, #4]
 80020e6:	9605      	str	r6, [sp, #20]
 80020e8:	f000 fe68 	bl	8002dbc <HAL_GPIO_Init>
 80020ec:	f44f 6280 	mov.w	r2, #1024	; 0x400
 80020f0:	2300      	movs	r3, #0
 80020f2:	4820      	ldr	r0, [pc, #128]	; (8002174 <HAL_UART_MspInit+0xe8>)
 80020f4:	a902      	add	r1, sp, #8
 80020f6:	e9cd 2302 	strd	r2, r3, [sp, #8]
 80020fa:	9404      	str	r4, [sp, #16]
 80020fc:	f000 fe5e 	bl	8002dbc <HAL_GPIO_Init>
 8002100:	2010      	movs	r0, #16
 8002102:	2280      	movs	r2, #128	; 0x80
 8002104:	f44f 5300 	mov.w	r3, #8192	; 0x2000
 8002108:	4e1b      	ldr	r6, [pc, #108]	; (8002178 <HAL_UART_MspInit+0xec>)
 800210a:	491c      	ldr	r1, [pc, #112]	; (800217c <HAL_UART_MspInit+0xf0>)
 800210c:	e9c6 0401 	strd	r0, r4, [r6, #4]
 8002110:	4630      	mov	r0, r6
 8002112:	e9c6 4404 	strd	r4, r4, [r6, #16]
 8002116:	61b4      	str	r4, [r6, #24]
 8002118:	6031      	str	r1, [r6, #0]
 800211a:	60f2      	str	r2, [r6, #12]
 800211c:	61f3      	str	r3, [r6, #28]
 800211e:	f000 fcd9 	bl	8002ad4 <HAL_DMA_Init>
 8002122:	b9f8      	cbnz	r0, 8002164 <HAL_UART_MspInit+0xd8>
 8002124:	2300      	movs	r3, #0
 8002126:	2180      	movs	r1, #128	; 0x80
 8002128:	f44f 5240 	mov.w	r2, #12288	; 0x3000
 800212c:	4c14      	ldr	r4, [pc, #80]	; (8002180 <HAL_UART_MspInit+0xf4>)
 800212e:	636e      	str	r6, [r5, #52]	; 0x34
 8002130:	6275      	str	r5, [r6, #36]	; 0x24
 8002132:	4e14      	ldr	r6, [pc, #80]	; (8002184 <HAL_UART_MspInit+0xf8>)
 8002134:	4620      	mov	r0, r4
 8002136:	e9c4 3301 	strd	r3, r3, [r4, #4]
 800213a:	e9c4 3304 	strd	r3, r3, [r4, #16]
 800213e:	61a3      	str	r3, [r4, #24]
 8002140:	6026      	str	r6, [r4, #0]
 8002142:	60e1      	str	r1, [r4, #12]
 8002144:	61e2      	str	r2, [r4, #28]
 8002146:	f000 fcc5 	bl	8002ad4 <HAL_DMA_Init>
 800214a:	b970      	cbnz	r0, 800216a <HAL_UART_MspInit+0xde>
 800214c:	2200      	movs	r2, #0
 800214e:	2105      	movs	r1, #5
 8002150:	2025      	movs	r0, #37	; 0x25
 8002152:	63ac      	str	r4, [r5, #56]	; 0x38
 8002154:	6265      	str	r5, [r4, #36]	; 0x24
 8002156:	f000 fc77 	bl	8002a48 <HAL_NVIC_SetPriority>
 800215a:	2025      	movs	r0, #37	; 0x25
 800215c:	f000 fcac 	bl	8002ab8 <HAL_NVIC_EnableIRQ>
 8002160:	b006      	add	sp, #24
 8002162:	bd70      	pop	{r4, r5, r6, pc}
 8002164:	f7ff fe12 	bl	8001d8c <Error_Handler>
 8002168:	e7dc      	b.n	8002124 <HAL_UART_MspInit+0x98>
 800216a:	f7ff fe0f 	bl	8001d8c <Error_Handler>
 800216e:	e7ed      	b.n	800214c <HAL_UART_MspInit+0xc0>
 8002170:	40013800 	.word	0x40013800
 8002174:	40010800 	.word	0x40010800
 8002178:	20004290 	.word	0x20004290
 800217c:	40020044 	.word	0x40020044
 8002180:	20004310 	.word	0x20004310
 8002184:	40020058 	.word	0x40020058

08002188 <HAL_InitTick>:
 8002188:	b510      	push	{r4, lr}
 800218a:	4601      	mov	r1, r0
 800218c:	b088      	sub	sp, #32
 800218e:	2200      	movs	r2, #0
 8002190:	2019      	movs	r0, #25
 8002192:	f000 fc59 	bl	8002a48 <HAL_NVIC_SetPriority>
 8002196:	2019      	movs	r0, #25
 8002198:	f000 fc8e 	bl	8002ab8 <HAL_NVIC_EnableIRQ>
 800219c:	4b15      	ldr	r3, [pc, #84]	; (80021f4 <HAL_InitTick+0x6c>)
 800219e:	a901      	add	r1, sp, #4
 80021a0:	699a      	ldr	r2, [r3, #24]
 80021a2:	a803      	add	r0, sp, #12
 80021a4:	f442 6200 	orr.w	r2, r2, #2048	; 0x800
 80021a8:	619a      	str	r2, [r3, #24]
 80021aa:	699b      	ldr	r3, [r3, #24]
 80021ac:	4c12      	ldr	r4, [pc, #72]	; (80021f8 <HAL_InitTick+0x70>)
 80021ae:	f403 6300 	and.w	r3, r3, #2048	; 0x800
 80021b2:	9302      	str	r3, [sp, #8]
 80021b4:	9b02      	ldr	r3, [sp, #8]
 80021b6:	f001 fa0b 	bl	80035d0 <HAL_RCC_GetClockConfig>
 80021ba:	f001 f9f9 	bl	80035b0 <HAL_RCC_GetPCLK2Freq>
 80021be:	f240 31e7 	movw	r1, #999	; 0x3e7
 80021c2:	2200      	movs	r2, #0
 80021c4:	4b0d      	ldr	r3, [pc, #52]	; (80021fc <HAL_InitTick+0x74>)
 80021c6:	60e1      	str	r1, [r4, #12]
 80021c8:	fba3 1300 	umull	r1, r3, r3, r0
 80021cc:	490c      	ldr	r1, [pc, #48]	; (8002200 <HAL_InitTick+0x78>)
 80021ce:	0c9b      	lsrs	r3, r3, #18
 80021d0:	3b01      	subs	r3, #1
 80021d2:	4620      	mov	r0, r4
 80021d4:	e9c4 1300 	strd	r1, r3, [r4]
 80021d8:	6122      	str	r2, [r4, #16]
 80021da:	60a2      	str	r2, [r4, #8]
 80021dc:	f001 fb10 	bl	8003800 <HAL_TIM_Base_Init>
 80021e0:	b110      	cbz	r0, 80021e8 <HAL_InitTick+0x60>
 80021e2:	2001      	movs	r0, #1
 80021e4:	b008      	add	sp, #32
 80021e6:	bd10      	pop	{r4, pc}
 80021e8:	4620      	mov	r0, r4
 80021ea:	f001 fb6d 	bl	80038c8 <HAL_TIM_Base_Start_IT>
 80021ee:	b008      	add	sp, #32
 80021f0:	bd10      	pop	{r4, pc}
 80021f2:	bf00      	nop
 80021f4:	40021000 	.word	0x40021000
 80021f8:	20004504 	.word	0x20004504
 80021fc:	431bde83 	.word	0x431bde83
 8002200:	40012c00 	.word	0x40012c00

08002204 <NMI_Handler>:
 8002204:	e7fe      	b.n	8002204 <NMI_Handler>
 8002206:	bf00      	nop

08002208 <HardFault_Handler>:
 8002208:	e7fe      	b.n	8002208 <HardFault_Handler>
 800220a:	bf00      	nop

0800220c <MemManage_Handler>:
 800220c:	e7fe      	b.n	800220c <MemManage_Handler>
 800220e:	bf00      	nop

08002210 <BusFault_Handler>:
 8002210:	e7fe      	b.n	8002210 <BusFault_Handler>
 8002212:	bf00      	nop

08002214 <UsageFault_Handler>:
 8002214:	e7fe      	b.n	8002214 <UsageFault_Handler>
 8002216:	bf00      	nop

08002218 <DebugMon_Handler>:
 8002218:	4770      	bx	lr
 800221a:	bf00      	nop

0800221c <DMA1_Channel1_IRQHandler>:
 800221c:	4801      	ldr	r0, [pc, #4]	; (8002224 <DMA1_Channel1_IRQHandler+0x8>)
 800221e:	f000 bd39 	b.w	8002c94 <HAL_DMA_IRQHandler>
 8002222:	bf00      	nop
 8002224:	200043b4 	.word	0x200043b4

08002228 <DMA1_Channel2_IRQHandler>:
 8002228:	4801      	ldr	r0, [pc, #4]	; (8002230 <DMA1_Channel2_IRQHandler+0x8>)
 800222a:	f000 bd33 	b.w	8002c94 <HAL_DMA_IRQHandler>
 800222e:	bf00      	nop
 8002230:	20004424 	.word	0x20004424

08002234 <DMA1_Channel3_IRQHandler>:
 8002234:	4801      	ldr	r0, [pc, #4]	; (800223c <DMA1_Channel3_IRQHandler+0x8>)
 8002236:	f000 bd2d 	b.w	8002c94 <HAL_DMA_IRQHandler>
 800223a:	bf00      	nop
 800223c:	2000415c 	.word	0x2000415c

08002240 <DMA1_Channel4_IRQHandler>:
 8002240:	4801      	ldr	r0, [pc, #4]	; (8002248 <DMA1_Channel4_IRQHandler+0x8>)
 8002242:	f000 bd27 	b.w	8002c94 <HAL_DMA_IRQHandler>
 8002246:	bf00      	nop
 8002248:	20004290 	.word	0x20004290

0800224c <DMA1_Channel5_IRQHandler>:
 800224c:	4801      	ldr	r0, [pc, #4]	; (8002254 <DMA1_Channel5_IRQHandler+0x8>)
 800224e:	f000 bd21 	b.w	8002c94 <HAL_DMA_IRQHandler>
 8002252:	bf00      	nop
 8002254:	20004310 	.word	0x20004310

08002258 <TIM1_UP_IRQHandler>:
 8002258:	4801      	ldr	r0, [pc, #4]	; (8002260 <TIM1_UP_IRQHandler+0x8>)
 800225a:	f001 bdcf 	b.w	8003dfc <HAL_TIM_IRQHandler>
 800225e:	bf00      	nop
 8002260:	20004504 	.word	0x20004504

08002264 <USART1_IRQHandler>:
 8002264:	4801      	ldr	r0, [pc, #4]	; (800226c <USART1_IRQHandler+0x8>)
 8002266:	f002 b861 	b.w	800432c <HAL_UART_IRQHandler>
 800226a:	bf00      	nop
 800226c:	20004360 	.word	0x20004360

08002270 <EXTI15_10_IRQHandler>:
 8002270:	b508      	push	{r3, lr}
 8002272:	f44f 4080 	mov.w	r0, #16384	; 0x4000
 8002276:	f000 feb1 	bl	8002fdc <HAL_GPIO_EXTI_IRQHandler>
 800227a:	e8bd 4008 	ldmia.w	sp!, {r3, lr}
 800227e:	f44f 4000 	mov.w	r0, #32768	; 0x8000
 8002282:	f000 beab 	b.w	8002fdc <HAL_GPIO_EXTI_IRQHandler>
 8002286:	bf00      	nop

08002288 <SystemInit>:
 8002288:	4770      	bx	lr
 800228a:	bf00      	nop

0800228c <Reset_Handler>:
 800228c:	480c      	ldr	r0, [pc, #48]	; (80022c0 <LoopFillZerobss+0x12>)
 800228e:	490d      	ldr	r1, [pc, #52]	; (80022c4 <LoopFillZerobss+0x16>)
 8002290:	4a0d      	ldr	r2, [pc, #52]	; (80022c8 <LoopFillZerobss+0x1a>)
 8002292:	2300      	movs	r3, #0
 8002294:	e002      	b.n	800229c <LoopCopyDataInit>

08002296 <CopyDataInit>:
 8002296:	58d4      	ldr	r4, [r2, r3]
 8002298:	50c4      	str	r4, [r0, r3]
 800229a:	3304      	adds	r3, #4

0800229c <LoopCopyDataInit>:
 800229c:	18c4      	adds	r4, r0, r3
 800229e:	428c      	cmp	r4, r1
 80022a0:	d3f9      	bcc.n	8002296 <CopyDataInit>
 80022a2:	4a0a      	ldr	r2, [pc, #40]	; (80022cc <LoopFillZerobss+0x1e>)
 80022a4:	4c0a      	ldr	r4, [pc, #40]	; (80022d0 <LoopFillZerobss+0x22>)
 80022a6:	2300      	movs	r3, #0
 80022a8:	e001      	b.n	80022ae <LoopFillZerobss>

080022aa <FillZerobss>:
 80022aa:	6013      	str	r3, [r2, #0]
 80022ac:	3204      	adds	r2, #4

080022ae <LoopFillZerobss>:
 80022ae:	42a2      	cmp	r2, r4
 80022b0:	d3fb      	bcc.n	80022aa <FillZerobss>
 80022b2:	f7ff ffe9 	bl	8002288 <SystemInit>
 80022b6:	f005 fc55 	bl	8007b64 <__libc_init_array>
 80022ba:	f7ff f919 	bl	80014f0 <main>
 80022be:	4770      	bx	lr
 80022c0:	20000000 	.word	0x20000000
 80022c4:	20000038 	.word	0x20000038
 80022c8:	08007fd0 	.word	0x08007fd0
 80022cc:	20000038 	.word	0x20000038
 80022d0:	20004598 	.word	0x20004598

080022d4 <ADC1_2_IRQHandler>:
 80022d4:	e7fe      	b.n	80022d4 <ADC1_2_IRQHandler>
	...

080022d8 <HAL_Init>:
 80022d8:	4a07      	ldr	r2, [pc, #28]	; (80022f8 <HAL_Init+0x20>)
 80022da:	b508      	push	{r3, lr}
 80022dc:	6813      	ldr	r3, [r2, #0]
 80022de:	2003      	movs	r0, #3
 80022e0:	f043 0310 	orr.w	r3, r3, #16
 80022e4:	6013      	str	r3, [r2, #0]
 80022e6:	f000 fb9d 	bl	8002a24 <HAL_NVIC_SetPriorityGrouping>
 80022ea:	2000      	movs	r0, #0
 80022ec:	f7ff ff4c 	bl	8002188 <HAL_InitTick>
 80022f0:	f7ff fd4e 	bl	8001d90 <HAL_MspInit>
 80022f4:	2000      	movs	r0, #0
 80022f6:	bd08      	pop	{r3, pc}
 80022f8:	40022000 	.word	0x40022000

080022fc <HAL_IncTick>:
 80022fc:	4a03      	ldr	r2, [pc, #12]	; (800230c <HAL_IncTick+0x10>)
 80022fe:	4b04      	ldr	r3, [pc, #16]	; (8002310 <HAL_IncTick+0x14>)
 8002300:	6811      	ldr	r1, [r2, #0]
 8002302:	781b      	ldrb	r3, [r3, #0]
 8002304:	440b      	add	r3, r1
 8002306:	6013      	str	r3, [r2, #0]
 8002308:	4770      	bx	lr
 800230a:	bf00      	nop
 800230c:	2000454c 	.word	0x2000454c
 8002310:	2000002c 	.word	0x2000002c

08002314 <HAL_GetTick>:
 8002314:	4b01      	ldr	r3, [pc, #4]	; (800231c <HAL_GetTick+0x8>)
 8002316:	6818      	ldr	r0, [r3, #0]
 8002318:	4770      	bx	lr
 800231a:	bf00      	nop
 800231c:	2000454c 	.word	0x2000454c

08002320 <HAL_ADC_Init>:
 8002320:	2800      	cmp	r0, #0
 8002322:	f000 8082 	beq.w	800242a <HAL_ADC_Init+0x10a>
 8002326:	b5f8      	push	{r3, r4, r5, r6, r7, lr}
 8002328:	6a83      	ldr	r3, [r0, #40]	; 0x28
 800232a:	4604      	mov	r4, r0
 800232c:	2b00      	cmp	r3, #0
 800232e:	d065      	beq.n	80023fc <HAL_ADC_Init+0xdc>
 8002330:	6823      	ldr	r3, [r4, #0]
 8002332:	689a      	ldr	r2, [r3, #8]
 8002334:	07d5      	lsls	r5, r2, #31
 8002336:	d43e      	bmi.n	80023b6 <HAL_ADC_Init+0x96>
 8002338:	6aa2      	ldr	r2, [r4, #40]	; 0x28
 800233a:	06d2      	lsls	r2, r2, #27
 800233c:	d458      	bmi.n	80023f0 <HAL_ADC_Init+0xd0>
 800233e:	6aa2      	ldr	r2, [r4, #40]	; 0x28
 8002340:	69e0      	ldr	r0, [r4, #28]
 8002342:	6861      	ldr	r1, [r4, #4]
 8002344:	f422 5288 	bic.w	r2, r2, #4352	; 0x1100
 8002348:	4301      	orrs	r1, r0
 800234a:	68a0      	ldr	r0, [r4, #8]
 800234c:	7b26      	ldrb	r6, [r4, #12]
 800234e:	f022 0202 	bic.w	r2, r2, #2
 8002352:	f042 0202 	orr.w	r2, r2, #2
 8002356:	f5b0 7f80 	cmp.w	r0, #256	; 0x100
 800235a:	62a2      	str	r2, [r4, #40]	; 0x28
 800235c:	ea41 0246 	orr.w	r2, r1, r6, lsl #1
 8002360:	7d21      	ldrb	r1, [r4, #20]
 8002362:	d051      	beq.n	8002408 <HAL_ADC_Init+0xe8>
 8002364:	2801      	cmp	r0, #1
 8002366:	bf0c      	ite	eq
 8002368:	f44f 7780 	moveq.w	r7, #256	; 0x100
 800236c:	2700      	movne	r7, #0
 800236e:	2901      	cmp	r1, #1
 8002370:	d067      	beq.n	8002442 <HAL_ADC_Init+0x122>
 8002372:	685d      	ldr	r5, [r3, #4]
 8002374:	4943      	ldr	r1, [pc, #268]	; (8002484 <HAL_ADC_Init+0x164>)
 8002376:	f425 4569 	bic.w	r5, r5, #59648	; 0xe900
 800237a:	433d      	orrs	r5, r7
 800237c:	605d      	str	r5, [r3, #4]
 800237e:	689d      	ldr	r5, [r3, #8]
 8002380:	4029      	ands	r1, r5
 8002382:	4311      	orrs	r1, r2
 8002384:	6099      	str	r1, [r3, #8]
 8002386:	2801      	cmp	r0, #1
 8002388:	d04b      	beq.n	8002422 <HAL_ADC_Init+0x102>
 800238a:	2000      	movs	r0, #0
 800238c:	6ad9      	ldr	r1, [r3, #44]	; 0x2c
 800238e:	4d3e      	ldr	r5, [pc, #248]	; (8002488 <HAL_ADC_Init+0x168>)
 8002390:	f421 0170 	bic.w	r1, r1, #15728640	; 0xf00000
 8002394:	4301      	orrs	r1, r0
 8002396:	62d9      	str	r1, [r3, #44]	; 0x2c
 8002398:	689b      	ldr	r3, [r3, #8]
 800239a:	401d      	ands	r5, r3
 800239c:	42aa      	cmp	r2, r5
 800239e:	d046      	beq.n	800242e <HAL_ADC_Init+0x10e>
 80023a0:	2001      	movs	r0, #1
 80023a2:	6aa3      	ldr	r3, [r4, #40]	; 0x28
 80023a4:	f023 0312 	bic.w	r3, r3, #18
 80023a8:	f043 0310 	orr.w	r3, r3, #16
 80023ac:	62a3      	str	r3, [r4, #40]	; 0x28
 80023ae:	6ae3      	ldr	r3, [r4, #44]	; 0x2c
 80023b0:	4303      	orrs	r3, r0
 80023b2:	62e3      	str	r3, [r4, #44]	; 0x2c
 80023b4:	bdf8      	pop	{r3, r4, r5, r6, r7, pc}
 80023b6:	689a      	ldr	r2, [r3, #8]
 80023b8:	f022 0201 	bic.w	r2, r2, #1
 80023bc:	609a      	str	r2, [r3, #8]
 80023be:	f7ff ffa9 	bl	8002314 <HAL_GetTick>
 80023c2:	4605      	mov	r5, r0
 80023c4:	6823      	ldr	r3, [r4, #0]
 80023c6:	689a      	ldr	r2, [r3, #8]
 80023c8:	07d0      	lsls	r0, r2, #31
 80023ca:	d5b5      	bpl.n	8002338 <HAL_ADC_Init+0x18>
 80023cc:	f7ff ffa2 	bl	8002314 <HAL_GetTick>
 80023d0:	1b43      	subs	r3, r0, r5
 80023d2:	2b02      	cmp	r3, #2
 80023d4:	6823      	ldr	r3, [r4, #0]
 80023d6:	d9f6      	bls.n	80023c6 <HAL_ADC_Init+0xa6>
 80023d8:	689a      	ldr	r2, [r3, #8]
 80023da:	07d1      	lsls	r1, r2, #31
 80023dc:	d5f3      	bpl.n	80023c6 <HAL_ADC_Init+0xa6>
 80023de:	6aa3      	ldr	r3, [r4, #40]	; 0x28
 80023e0:	f043 0310 	orr.w	r3, r3, #16
 80023e4:	62a3      	str	r3, [r4, #40]	; 0x28
 80023e6:	6ae3      	ldr	r3, [r4, #44]	; 0x2c
 80023e8:	f043 0301 	orr.w	r3, r3, #1
 80023ec:	62e3      	str	r3, [r4, #44]	; 0x2c
 80023ee:	6aa3      	ldr	r3, [r4, #40]	; 0x28
 80023f0:	6aa3      	ldr	r3, [r4, #40]	; 0x28
 80023f2:	2001      	movs	r0, #1
 80023f4:	f043 0310 	orr.w	r3, r3, #16
 80023f8:	62a3      	str	r3, [r4, #40]	; 0x28
 80023fa:	bdf8      	pop	{r3, r4, r5, r6, r7, pc}
 80023fc:	62c3      	str	r3, [r0, #44]	; 0x2c
 80023fe:	f880 3024 	strb.w	r3, [r0, #36]	; 0x24
 8002402:	f7ff fced 	bl	8001de0 <HAL_ADC_MspInit>
 8002406:	e793      	b.n	8002330 <HAL_ADC_Init+0x10>
 8002408:	2901      	cmp	r1, #1
 800240a:	d019      	beq.n	8002440 <HAL_ADC_Init+0x120>
 800240c:	6858      	ldr	r0, [r3, #4]
 800240e:	491d      	ldr	r1, [pc, #116]	; (8002484 <HAL_ADC_Init+0x164>)
 8002410:	f420 4069 	bic.w	r0, r0, #59648	; 0xe900
 8002414:	f440 7080 	orr.w	r0, r0, #256	; 0x100
 8002418:	6058      	str	r0, [r3, #4]
 800241a:	6898      	ldr	r0, [r3, #8]
 800241c:	4001      	ands	r1, r0
 800241e:	4311      	orrs	r1, r2
 8002420:	6099      	str	r1, [r3, #8]
 8002422:	6921      	ldr	r1, [r4, #16]
 8002424:	3901      	subs	r1, #1
 8002426:	0508      	lsls	r0, r1, #20
 8002428:	e7b0      	b.n	800238c <HAL_ADC_Init+0x6c>
 800242a:	2001      	movs	r0, #1
 800242c:	4770      	bx	lr
 800242e:	2000      	movs	r0, #0
 8002430:	62e0      	str	r0, [r4, #44]	; 0x2c
 8002432:	6aa3      	ldr	r3, [r4, #40]	; 0x28
 8002434:	f023 0303 	bic.w	r3, r3, #3
 8002438:	f043 0301 	orr.w	r3, r3, #1
 800243c:	62a3      	str	r3, [r4, #40]	; 0x28
 800243e:	bdf8      	pop	{r3, r4, r5, r6, r7, pc}
 8002440:	4607      	mov	r7, r0
 8002442:	b1be      	cbz	r6, 8002474 <HAL_ADC_Init+0x154>
 8002444:	6aa1      	ldr	r1, [r4, #40]	; 0x28
 8002446:	f041 0120 	orr.w	r1, r1, #32
 800244a:	62a1      	str	r1, [r4, #40]	; 0x28
 800244c:	6ae1      	ldr	r1, [r4, #44]	; 0x2c
 800244e:	f041 0101 	orr.w	r1, r1, #1
 8002452:	62e1      	str	r1, [r4, #44]	; 0x2c
 8002454:	685d      	ldr	r5, [r3, #4]
 8002456:	490b      	ldr	r1, [pc, #44]	; (8002484 <HAL_ADC_Init+0x164>)
 8002458:	f425 4569 	bic.w	r5, r5, #59648	; 0xe900
 800245c:	433d      	orrs	r5, r7
 800245e:	605d      	str	r5, [r3, #4]
 8002460:	689d      	ldr	r5, [r3, #8]
 8002462:	f5b0 7f80 	cmp.w	r0, #256	; 0x100
 8002466:	ea01 0105 	and.w	r1, r1, r5
 800246a:	ea41 0102 	orr.w	r1, r1, r2
 800246e:	6099      	str	r1, [r3, #8]
 8002470:	d189      	bne.n	8002386 <HAL_ADC_Init+0x66>
 8002472:	e7d6      	b.n	8002422 <HAL_ADC_Init+0x102>
 8002474:	69a1      	ldr	r1, [r4, #24]
 8002476:	1e4d      	subs	r5, r1, #1
 8002478:	ea47 3545 	orr.w	r5, r7, r5, lsl #13
 800247c:	f445 6700 	orr.w	r7, r5, #2048	; 0x800
 8002480:	e7e8      	b.n	8002454 <HAL_ADC_Init+0x134>
 8002482:	bf00      	nop
 8002484:	ffe1f7fd 	.word	0xffe1f7fd
 8002488:	ff1f0efe 	.word	0xff1f0efe

0800248c <ADC_DMAConvCplt>:
 800248c:	6a43      	ldr	r3, [r0, #36]	; 0x24
 800248e:	6a9a      	ldr	r2, [r3, #40]	; 0x28
 8002490:	f012 0f50 	tst.w	r2, #80	; 0x50
 8002494:	d10f      	bne.n	80024b6 <ADC_DMAConvCplt+0x2a>
 8002496:	6a9a      	ldr	r2, [r3, #40]	; 0x28
 8002498:	6819      	ldr	r1, [r3, #0]
 800249a:	f442 7200 	orr.w	r2, r2, #512	; 0x200
 800249e:	b510      	push	{r4, lr}
 80024a0:	629a      	str	r2, [r3, #40]	; 0x28
 80024a2:	688a      	ldr	r2, [r1, #8]
 80024a4:	f402 2260 	and.w	r2, r2, #917504	; 0xe0000
 80024a8:	f5b2 2f60 	cmp.w	r2, #917504	; 0xe0000
 80024ac:	d006      	beq.n	80024bc <ADC_DMAConvCplt+0x30>
 80024ae:	4618      	mov	r0, r3
 80024b0:	f7ff fc0a 	bl	8001cc8 <HAL_ADC_ConvCpltCallback>
 80024b4:	bd10      	pop	{r4, pc}
 80024b6:	6a1b      	ldr	r3, [r3, #32]
 80024b8:	6b1b      	ldr	r3, [r3, #48]	; 0x30
 80024ba:	4718      	bx	r3
 80024bc:	7b1a      	ldrb	r2, [r3, #12]
 80024be:	2a00      	cmp	r2, #0
 80024c0:	d1f5      	bne.n	80024ae <ADC_DMAConvCplt+0x22>
 80024c2:	6a9a      	ldr	r2, [r3, #40]	; 0x28
 80024c4:	f422 7280 	bic.w	r2, r2, #256	; 0x100
 80024c8:	629a      	str	r2, [r3, #40]	; 0x28
 80024ca:	6a9a      	ldr	r2, [r3, #40]	; 0x28
 80024cc:	04d2      	lsls	r2, r2, #19
 80024ce:	d4ee      	bmi.n	80024ae <ADC_DMAConvCplt+0x22>
 80024d0:	6a9a      	ldr	r2, [r3, #40]	; 0x28
 80024d2:	f042 0201 	orr.w	r2, r2, #1
 80024d6:	629a      	str	r2, [r3, #40]	; 0x28
 80024d8:	e7e9      	b.n	80024ae <ADC_DMAConvCplt+0x22>
 80024da:	bf00      	nop

080024dc <HAL_ADC_ConvHalfCpltCallback>:
 80024dc:	4770      	bx	lr
 80024de:	bf00      	nop

080024e0 <ADC_DMAHalfConvCplt>:
 80024e0:	b508      	push	{r3, lr}
 80024e2:	6a40      	ldr	r0, [r0, #36]	; 0x24
 80024e4:	f7ff fffa 	bl	80024dc <HAL_ADC_ConvHalfCpltCallback>
 80024e8:	bd08      	pop	{r3, pc}
 80024ea:	bf00      	nop

080024ec <HAL_ADC_ErrorCallback>:
 80024ec:	4770      	bx	lr
 80024ee:	bf00      	nop

080024f0 <ADC_DMAError>:
 80024f0:	6a40      	ldr	r0, [r0, #36]	; 0x24
 80024f2:	b508      	push	{r3, lr}
 80024f4:	6a83      	ldr	r3, [r0, #40]	; 0x28
 80024f6:	f043 0340 	orr.w	r3, r3, #64	; 0x40
 80024fa:	6283      	str	r3, [r0, #40]	; 0x28
 80024fc:	6ac3      	ldr	r3, [r0, #44]	; 0x2c
 80024fe:	f043 0304 	orr.w	r3, r3, #4
 8002502:	62c3      	str	r3, [r0, #44]	; 0x2c
 8002504:	f7ff fff2 	bl	80024ec <HAL_ADC_ErrorCallback>
 8002508:	bd08      	pop	{r3, pc}
 800250a:	bf00      	nop

0800250c <HAL_ADC_ConfigChannel>:
 800250c:	4602      	mov	r2, r0
 800250e:	2000      	movs	r0, #0
 8002510:	b470      	push	{r4, r5, r6}
 8002512:	f892 3024 	ldrb.w	r3, [r2, #36]	; 0x24
 8002516:	b083      	sub	sp, #12
 8002518:	2b01      	cmp	r3, #1
 800251a:	9001      	str	r0, [sp, #4]
 800251c:	d05b      	beq.n	80025d6 <HAL_ADC_ConfigChannel+0xca>
 800251e:	2301      	movs	r3, #1
 8002520:	f882 3024 	strb.w	r3, [r2, #36]	; 0x24
 8002524:	684b      	ldr	r3, [r1, #4]
 8002526:	261f      	movs	r6, #31
 8002528:	2b06      	cmp	r3, #6
 800252a:	6814      	ldr	r4, [r2, #0]
 800252c:	d92d      	bls.n	800258a <HAL_ADC_ConfigChannel+0x7e>
 800252e:	2b0c      	cmp	r3, #12
 8002530:	eb03 0383 	add.w	r3, r3, r3, lsl #2
 8002534:	d844      	bhi.n	80025c0 <HAL_ADC_ConfigChannel+0xb4>
 8002536:	6b25      	ldr	r5, [r4, #48]	; 0x30
 8002538:	6808      	ldr	r0, [r1, #0]
 800253a:	3b23      	subs	r3, #35	; 0x23
 800253c:	409e      	lsls	r6, r3
 800253e:	ea25 0506 	bic.w	r5, r5, r6
 8002542:	fa00 f303 	lsl.w	r3, r0, r3
 8002546:	432b      	orrs	r3, r5
 8002548:	6323      	str	r3, [r4, #48]	; 0x30
 800254a:	2809      	cmp	r0, #9
 800254c:	d92b      	bls.n	80025a6 <HAL_ADC_ConfigChannel+0x9a>
 800254e:	2607      	movs	r6, #7
 8002550:	eb00 0340 	add.w	r3, r0, r0, lsl #1
 8002554:	688d      	ldr	r5, [r1, #8]
 8002556:	3b1e      	subs	r3, #30
 8002558:	68e1      	ldr	r1, [r4, #12]
 800255a:	409e      	lsls	r6, r3
 800255c:	409d      	lsls	r5, r3
 800255e:	ea21 0306 	bic.w	r3, r1, r6
 8002562:	f1a0 0110 	sub.w	r1, r0, #16
 8002566:	432b      	orrs	r3, r5
 8002568:	2901      	cmp	r1, #1
 800256a:	60e3      	str	r3, [r4, #12]
 800256c:	d826      	bhi.n	80025bc <HAL_ADC_ConfigChannel+0xb0>
 800256e:	4b2a      	ldr	r3, [pc, #168]	; (8002618 <HAL_ADC_ConfigChannel+0x10c>)
 8002570:	429c      	cmp	r4, r3
 8002572:	d034      	beq.n	80025de <HAL_ADC_ConfigChannel+0xd2>
 8002574:	2001      	movs	r0, #1
 8002576:	6a93      	ldr	r3, [r2, #40]	; 0x28
 8002578:	f043 0320 	orr.w	r3, r3, #32
 800257c:	6293      	str	r3, [r2, #40]	; 0x28
 800257e:	2300      	movs	r3, #0
 8002580:	f882 3024 	strb.w	r3, [r2, #36]	; 0x24
 8002584:	b003      	add	sp, #12
 8002586:	bc70      	pop	{r4, r5, r6}
 8002588:	4770      	bx	lr
 800258a:	eb03 0383 	add.w	r3, r3, r3, lsl #2
 800258e:	6808      	ldr	r0, [r1, #0]
 8002590:	6b65      	ldr	r5, [r4, #52]	; 0x34
 8002592:	3b05      	subs	r3, #5
 8002594:	409e      	lsls	r6, r3
 8002596:	ea25 0506 	bic.w	r5, r5, r6
 800259a:	fa00 f303 	lsl.w	r3, r0, r3
 800259e:	432b      	orrs	r3, r5
 80025a0:	2809      	cmp	r0, #9
 80025a2:	6363      	str	r3, [r4, #52]	; 0x34
 80025a4:	d8d3      	bhi.n	800254e <HAL_ADC_ConfigChannel+0x42>
 80025a6:	2507      	movs	r5, #7
 80025a8:	eb00 0040 	add.w	r0, r0, r0, lsl #1
 80025ac:	6889      	ldr	r1, [r1, #8]
 80025ae:	6923      	ldr	r3, [r4, #16]
 80025b0:	4085      	lsls	r5, r0
 80025b2:	4081      	lsls	r1, r0
 80025b4:	ea23 0005 	bic.w	r0, r3, r5
 80025b8:	4308      	orrs	r0, r1
 80025ba:	6120      	str	r0, [r4, #16]
 80025bc:	2000      	movs	r0, #0
 80025be:	e7de      	b.n	800257e <HAL_ADC_ConfigChannel+0x72>
 80025c0:	6ae5      	ldr	r5, [r4, #44]	; 0x2c
 80025c2:	6808      	ldr	r0, [r1, #0]
 80025c4:	3b41      	subs	r3, #65	; 0x41
 80025c6:	409e      	lsls	r6, r3
 80025c8:	ea25 0506 	bic.w	r5, r5, r6
 80025cc:	fa00 f303 	lsl.w	r3, r0, r3
 80025d0:	432b      	orrs	r3, r5
 80025d2:	62e3      	str	r3, [r4, #44]	; 0x2c
 80025d4:	e7b9      	b.n	800254a <HAL_ADC_ConfigChannel+0x3e>
 80025d6:	2002      	movs	r0, #2
 80025d8:	b003      	add	sp, #12
 80025da:	bc70      	pop	{r4, r5, r6}
 80025dc:	4770      	bx	lr
 80025de:	68a3      	ldr	r3, [r4, #8]
 80025e0:	021b      	lsls	r3, r3, #8
 80025e2:	d4eb      	bmi.n	80025bc <HAL_ADC_ConfigChannel+0xb0>
 80025e4:	68a3      	ldr	r3, [r4, #8]
 80025e6:	2810      	cmp	r0, #16
 80025e8:	f443 0300 	orr.w	r3, r3, #8388608	; 0x800000
 80025ec:	60a3      	str	r3, [r4, #8]
 80025ee:	d1e5      	bne.n	80025bc <HAL_ADC_ConfigChannel+0xb0>
 80025f0:	4b0a      	ldr	r3, [pc, #40]	; (800261c <HAL_ADC_ConfigChannel+0x110>)
 80025f2:	490b      	ldr	r1, [pc, #44]	; (8002620 <HAL_ADC_ConfigChannel+0x114>)
 80025f4:	681b      	ldr	r3, [r3, #0]
 80025f6:	fba1 1303 	umull	r1, r3, r1, r3
 80025fa:	0c9b      	lsrs	r3, r3, #18
 80025fc:	eb03 0383 	add.w	r3, r3, r3, lsl #2
 8002600:	005b      	lsls	r3, r3, #1
 8002602:	9301      	str	r3, [sp, #4]
 8002604:	9b01      	ldr	r3, [sp, #4]
 8002606:	2b00      	cmp	r3, #0
 8002608:	d0d8      	beq.n	80025bc <HAL_ADC_ConfigChannel+0xb0>
 800260a:	9b01      	ldr	r3, [sp, #4]
 800260c:	3b01      	subs	r3, #1
 800260e:	9301      	str	r3, [sp, #4]
 8002610:	9b01      	ldr	r3, [sp, #4]
 8002612:	2b00      	cmp	r3, #0
 8002614:	d1f9      	bne.n	800260a <HAL_ADC_ConfigChannel+0xfe>
 8002616:	e7d1      	b.n	80025bc <HAL_ADC_ConfigChannel+0xb0>
 8002618:	40012400 	.word	0x40012400
 800261c:	20000028 	.word	0x20000028
 8002620:	431bde83 	.word	0x431bde83

08002624 <ADC_Enable>:
 8002624:	2300      	movs	r3, #0
 8002626:	b530      	push	{r4, r5, lr}
 8002628:	6802      	ldr	r2, [r0, #0]
 800262a:	b083      	sub	sp, #12
 800262c:	9301      	str	r3, [sp, #4]
 800262e:	6893      	ldr	r3, [r2, #8]
 8002630:	07d9      	lsls	r1, r3, #31
 8002632:	d427      	bmi.n	8002684 <ADC_Enable+0x60>
 8002634:	4b1b      	ldr	r3, [pc, #108]	; (80026a4 <ADC_Enable+0x80>)
 8002636:	4604      	mov	r4, r0
 8002638:	681b      	ldr	r3, [r3, #0]
 800263a:	481b      	ldr	r0, [pc, #108]	; (80026a8 <ADC_Enable+0x84>)
 800263c:	6891      	ldr	r1, [r2, #8]
 800263e:	fba0 0303 	umull	r0, r3, r0, r3
 8002642:	f041 0101 	orr.w	r1, r1, #1
 8002646:	0c9b      	lsrs	r3, r3, #18
 8002648:	6091      	str	r1, [r2, #8]
 800264a:	9301      	str	r3, [sp, #4]
 800264c:	9b01      	ldr	r3, [sp, #4]
 800264e:	b12b      	cbz	r3, 800265c <ADC_Enable+0x38>
 8002650:	9b01      	ldr	r3, [sp, #4]
 8002652:	3b01      	subs	r3, #1
 8002654:	9301      	str	r3, [sp, #4]
 8002656:	9b01      	ldr	r3, [sp, #4]
 8002658:	2b00      	cmp	r3, #0
 800265a:	d1f9      	bne.n	8002650 <ADC_Enable+0x2c>
 800265c:	f7ff fe5a 	bl	8002314 <HAL_GetTick>
 8002660:	6823      	ldr	r3, [r4, #0]
 8002662:	4605      	mov	r5, r0
 8002664:	689b      	ldr	r3, [r3, #8]
 8002666:	07da      	lsls	r2, r3, #31
 8002668:	d40c      	bmi.n	8002684 <ADC_Enable+0x60>
 800266a:	f7ff fe53 	bl	8002314 <HAL_GetTick>
 800266e:	1b43      	subs	r3, r0, r5
 8002670:	2b02      	cmp	r3, #2
 8002672:	6823      	ldr	r3, [r4, #0]
 8002674:	d903      	bls.n	800267e <ADC_Enable+0x5a>
 8002676:	689a      	ldr	r2, [r3, #8]
 8002678:	f012 0201 	ands.w	r2, r2, #1
 800267c:	d005      	beq.n	800268a <ADC_Enable+0x66>
 800267e:	689b      	ldr	r3, [r3, #8]
 8002680:	07db      	lsls	r3, r3, #31
 8002682:	d5f2      	bpl.n	800266a <ADC_Enable+0x46>
 8002684:	2000      	movs	r0, #0
 8002686:	b003      	add	sp, #12
 8002688:	bd30      	pop	{r4, r5, pc}
 800268a:	2001      	movs	r0, #1
 800268c:	6aa3      	ldr	r3, [r4, #40]	; 0x28
 800268e:	f884 2024 	strb.w	r2, [r4, #36]	; 0x24
 8002692:	f043 0310 	orr.w	r3, r3, #16
 8002696:	62a3      	str	r3, [r4, #40]	; 0x28
 8002698:	6ae3      	ldr	r3, [r4, #44]	; 0x2c
 800269a:	4303      	orrs	r3, r0
 800269c:	62e3      	str	r3, [r4, #44]	; 0x2c
 800269e:	b003      	add	sp, #12
 80026a0:	bd30      	pop	{r4, r5, pc}
 80026a2:	bf00      	nop
 80026a4:	20000028 	.word	0x20000028
 80026a8:	431bde83 	.word	0x431bde83

080026ac <HAL_ADC_Start>:
 80026ac:	f890 3024 	ldrb.w	r3, [r0, #36]	; 0x24
 80026b0:	2b01      	cmp	r3, #1
 80026b2:	d038      	beq.n	8002726 <HAL_ADC_Start+0x7a>
 80026b4:	2301      	movs	r3, #1
 80026b6:	b510      	push	{r4, lr}
 80026b8:	f880 3024 	strb.w	r3, [r0, #36]	; 0x24
 80026bc:	4604      	mov	r4, r0
 80026be:	f7ff ffb1 	bl	8002624 <ADC_Enable>
 80026c2:	bb60      	cbnz	r0, 800271e <HAL_ADC_Start+0x72>
 80026c4:	6aa3      	ldr	r3, [r4, #40]	; 0x28
 80026c6:	6822      	ldr	r2, [r4, #0]
 80026c8:	4929      	ldr	r1, [pc, #164]	; (8002770 <HAL_ADC_Start+0xc4>)
 80026ca:	f423 7340 	bic.w	r3, r3, #768	; 0x300
 80026ce:	f023 0301 	bic.w	r3, r3, #1
 80026d2:	f443 7380 	orr.w	r3, r3, #256	; 0x100
 80026d6:	428a      	cmp	r2, r1
 80026d8:	62a3      	str	r3, [r4, #40]	; 0x28
 80026da:	d026      	beq.n	800272a <HAL_ADC_Start+0x7e>
 80026dc:	6aa3      	ldr	r3, [r4, #40]	; 0x28
 80026de:	f423 1380 	bic.w	r3, r3, #1048576	; 0x100000
 80026e2:	62a3      	str	r3, [r4, #40]	; 0x28
 80026e4:	6853      	ldr	r3, [r2, #4]
 80026e6:	0559      	lsls	r1, r3, #21
 80026e8:	d42b      	bmi.n	8002742 <HAL_ADC_Start+0x96>
 80026ea:	6aa3      	ldr	r3, [r4, #40]	; 0x28
 80026ec:	2100      	movs	r1, #0
 80026ee:	f413 5380 	ands.w	r3, r3, #4096	; 0x1000
 80026f2:	bf18      	it	ne
 80026f4:	6ae3      	ldrne	r3, [r4, #44]	; 0x2c
 80026f6:	f884 1024 	strb.w	r1, [r4, #36]	; 0x24
 80026fa:	bf18      	it	ne
 80026fc:	f023 0306 	bicne.w	r3, r3, #6
 8002700:	62e3      	str	r3, [r4, #44]	; 0x2c
 8002702:	f06f 0302 	mvn.w	r3, #2
 8002706:	6013      	str	r3, [r2, #0]
 8002708:	6893      	ldr	r3, [r2, #8]
 800270a:	f403 2360 	and.w	r3, r3, #917504	; 0xe0000
 800270e:	f5b3 2f60 	cmp.w	r3, #917504	; 0xe0000
 8002712:	d01d      	beq.n	8002750 <HAL_ADC_Start+0xa4>
 8002714:	6893      	ldr	r3, [r2, #8]
 8002716:	f443 1380 	orr.w	r3, r3, #1048576	; 0x100000
 800271a:	6093      	str	r3, [r2, #8]
 800271c:	bd10      	pop	{r4, pc}
 800271e:	2300      	movs	r3, #0
 8002720:	f884 3024 	strb.w	r3, [r4, #36]	; 0x24
 8002724:	bd10      	pop	{r4, pc}
 8002726:	2002      	movs	r0, #2
 8002728:	4770      	bx	lr
 800272a:	4b12      	ldr	r3, [pc, #72]	; (8002774 <HAL_ADC_Start+0xc8>)
 800272c:	6859      	ldr	r1, [r3, #4]
 800272e:	f411 2f70 	tst.w	r1, #983040	; 0xf0000
 8002732:	d0d3      	beq.n	80026dc <HAL_ADC_Start+0x30>
 8002734:	6aa1      	ldr	r1, [r4, #40]	; 0x28
 8002736:	f441 1180 	orr.w	r1, r1, #1048576	; 0x100000
 800273a:	62a1      	str	r1, [r4, #40]	; 0x28
 800273c:	685b      	ldr	r3, [r3, #4]
 800273e:	055b      	lsls	r3, r3, #21
 8002740:	d5d3      	bpl.n	80026ea <HAL_ADC_Start+0x3e>
 8002742:	6aa3      	ldr	r3, [r4, #40]	; 0x28
 8002744:	f423 5340 	bic.w	r3, r3, #12288	; 0x3000
 8002748:	f443 5380 	orr.w	r3, r3, #4096	; 0x1000
 800274c:	62a3      	str	r3, [r4, #40]	; 0x28
 800274e:	e7cc      	b.n	80026ea <HAL_ADC_Start+0x3e>
 8002750:	4b07      	ldr	r3, [pc, #28]	; (8002770 <HAL_ADC_Start+0xc4>)
 8002752:	429a      	cmp	r2, r3
 8002754:	d004      	beq.n	8002760 <HAL_ADC_Start+0xb4>
 8002756:	6893      	ldr	r3, [r2, #8]
 8002758:	f443 03a0 	orr.w	r3, r3, #5242880	; 0x500000
 800275c:	6093      	str	r3, [r2, #8]
 800275e:	bd10      	pop	{r4, pc}
 8002760:	f5a3 6380 	sub.w	r3, r3, #1024	; 0x400
 8002764:	685b      	ldr	r3, [r3, #4]
 8002766:	f413 2f70 	tst.w	r3, #983040	; 0xf0000
 800276a:	d1d3      	bne.n	8002714 <HAL_ADC_Start+0x68>
 800276c:	e7f3      	b.n	8002756 <HAL_ADC_Start+0xaa>
 800276e:	bf00      	nop
 8002770:	40012800 	.word	0x40012800
 8002774:	40012400 	.word	0x40012400

08002778 <ADC_ConversionStop_Disable>:
 8002778:	b538      	push	{r3, r4, r5, lr}
 800277a:	6803      	ldr	r3, [r0, #0]
 800277c:	689a      	ldr	r2, [r3, #8]
 800277e:	07d4      	lsls	r4, r2, #31
 8002780:	d401      	bmi.n	8002786 <ADC_ConversionStop_Disable+0xe>
 8002782:	2000      	movs	r0, #0
 8002784:	bd38      	pop	{r3, r4, r5, pc}
 8002786:	689a      	ldr	r2, [r3, #8]
 8002788:	4604      	mov	r4, r0
 800278a:	f022 0201 	bic.w	r2, r2, #1
 800278e:	609a      	str	r2, [r3, #8]
 8002790:	f7ff fdc0 	bl	8002314 <HAL_GetTick>
 8002794:	4605      	mov	r5, r0
 8002796:	6823      	ldr	r3, [r4, #0]
 8002798:	689b      	ldr	r3, [r3, #8]
 800279a:	07d9      	lsls	r1, r3, #31
 800279c:	d5f1      	bpl.n	8002782 <ADC_ConversionStop_Disable+0xa>
 800279e:	f7ff fdb9 	bl	8002314 <HAL_GetTick>
 80027a2:	1b43      	subs	r3, r0, r5
 80027a4:	2b02      	cmp	r3, #2
 80027a6:	6823      	ldr	r3, [r4, #0]
 80027a8:	d9f6      	bls.n	8002798 <ADC_ConversionStop_Disable+0x20>
 80027aa:	689a      	ldr	r2, [r3, #8]
 80027ac:	07d2      	lsls	r2, r2, #31
 80027ae:	d5f3      	bpl.n	8002798 <ADC_ConversionStop_Disable+0x20>
 80027b0:	2001      	movs	r0, #1
 80027b2:	6aa3      	ldr	r3, [r4, #40]	; 0x28
 80027b4:	f043 0310 	orr.w	r3, r3, #16
 80027b8:	62a3      	str	r3, [r4, #40]	; 0x28
 80027ba:	6ae3      	ldr	r3, [r4, #44]	; 0x2c
 80027bc:	4303      	orrs	r3, r0
 80027be:	62e3      	str	r3, [r4, #44]	; 0x2c
 80027c0:	bd38      	pop	{r3, r4, r5, pc}
 80027c2:	bf00      	nop

080027c4 <HAL_ADCEx_Calibration_Start>:
 80027c4:	2200      	movs	r2, #0
 80027c6:	b570      	push	{r4, r5, r6, lr}
 80027c8:	f890 3024 	ldrb.w	r3, [r0, #36]	; 0x24
 80027cc:	b082      	sub	sp, #8
 80027ce:	2b01      	cmp	r3, #1
 80027d0:	9201      	str	r2, [sp, #4]
 80027d2:	d062      	beq.n	800289a <HAL_ADCEx_Calibration_Start+0xd6>
 80027d4:	2301      	movs	r3, #1
 80027d6:	f880 3024 	strb.w	r3, [r0, #36]	; 0x24
 80027da:	4604      	mov	r4, r0
 80027dc:	f7ff ffcc 	bl	8002778 <ADC_ConversionStop_Disable>
 80027e0:	4605      	mov	r5, r0
 80027e2:	b128      	cbz	r0, 80027f0 <HAL_ADCEx_Calibration_Start+0x2c>
 80027e4:	2300      	movs	r3, #0
 80027e6:	4628      	mov	r0, r5
 80027e8:	f884 3024 	strb.w	r3, [r4, #36]	; 0x24
 80027ec:	b002      	add	sp, #8
 80027ee:	bd70      	pop	{r4, r5, r6, pc}
 80027f0:	6aa3      	ldr	r3, [r4, #40]	; 0x28
 80027f2:	4a2f      	ldr	r2, [pc, #188]	; (80028b0 <HAL_ADCEx_Calibration_Start+0xec>)
 80027f4:	f423 5388 	bic.w	r3, r3, #4352	; 0x1100
 80027f8:	f023 0302 	bic.w	r3, r3, #2
 80027fc:	f043 0302 	orr.w	r3, r3, #2
 8002800:	62a3      	str	r3, [r4, #40]	; 0x28
 8002802:	2002      	movs	r0, #2
 8002804:	6816      	ldr	r6, [r2, #0]
 8002806:	f000 ff83 	bl	8003710 <HAL_RCCEx_GetPeriphCLKFreq>
 800280a:	fbb6 f6f0 	udiv	r6, r6, r0
 800280e:	0076      	lsls	r6, r6, #1
 8002810:	9601      	str	r6, [sp, #4]
 8002812:	9b01      	ldr	r3, [sp, #4]
 8002814:	b12b      	cbz	r3, 8002822 <HAL_ADCEx_Calibration_Start+0x5e>
 8002816:	9b01      	ldr	r3, [sp, #4]
 8002818:	3b01      	subs	r3, #1
 800281a:	9301      	str	r3, [sp, #4]
 800281c:	9b01      	ldr	r3, [sp, #4]
 800281e:	2b00      	cmp	r3, #0
 8002820:	d1f9      	bne.n	8002816 <HAL_ADCEx_Calibration_Start+0x52>
 8002822:	4620      	mov	r0, r4
 8002824:	f7ff fefe 	bl	8002624 <ADC_Enable>
 8002828:	6822      	ldr	r2, [r4, #0]
 800282a:	6893      	ldr	r3, [r2, #8]
 800282c:	f043 0308 	orr.w	r3, r3, #8
 8002830:	6093      	str	r3, [r2, #8]
 8002832:	f7ff fd6f 	bl	8002314 <HAL_GetTick>
 8002836:	6823      	ldr	r3, [r4, #0]
 8002838:	4606      	mov	r6, r0
 800283a:	689a      	ldr	r2, [r3, #8]
 800283c:	0711      	lsls	r1, r2, #28
 800283e:	d50b      	bpl.n	8002858 <HAL_ADCEx_Calibration_Start+0x94>
 8002840:	f7ff fd68 	bl	8002314 <HAL_GetTick>
 8002844:	1b83      	subs	r3, r0, r6
 8002846:	2b0a      	cmp	r3, #10
 8002848:	6823      	ldr	r3, [r4, #0]
 800284a:	d902      	bls.n	8002852 <HAL_ADCEx_Calibration_Start+0x8e>
 800284c:	689a      	ldr	r2, [r3, #8]
 800284e:	0712      	lsls	r2, r2, #28
 8002850:	d416      	bmi.n	8002880 <HAL_ADCEx_Calibration_Start+0xbc>
 8002852:	689a      	ldr	r2, [r3, #8]
 8002854:	0710      	lsls	r0, r2, #28
 8002856:	d4f3      	bmi.n	8002840 <HAL_ADCEx_Calibration_Start+0x7c>
 8002858:	689a      	ldr	r2, [r3, #8]
 800285a:	f042 0204 	orr.w	r2, r2, #4
 800285e:	609a      	str	r2, [r3, #8]
 8002860:	f7ff fd58 	bl	8002314 <HAL_GetTick>
 8002864:	4606      	mov	r6, r0
 8002866:	6823      	ldr	r3, [r4, #0]
 8002868:	689b      	ldr	r3, [r3, #8]
 800286a:	0759      	lsls	r1, r3, #29
 800286c:	d519      	bpl.n	80028a2 <HAL_ADCEx_Calibration_Start+0xde>
 800286e:	f7ff fd51 	bl	8002314 <HAL_GetTick>
 8002872:	1b83      	subs	r3, r0, r6
 8002874:	2b0a      	cmp	r3, #10
 8002876:	6823      	ldr	r3, [r4, #0]
 8002878:	d9f6      	bls.n	8002868 <HAL_ADCEx_Calibration_Start+0xa4>
 800287a:	689a      	ldr	r2, [r3, #8]
 800287c:	0752      	lsls	r2, r2, #29
 800287e:	d5f3      	bpl.n	8002868 <HAL_ADCEx_Calibration_Start+0xa4>
 8002880:	2501      	movs	r5, #1
 8002882:	2200      	movs	r2, #0
 8002884:	4628      	mov	r0, r5
 8002886:	6aa3      	ldr	r3, [r4, #40]	; 0x28
 8002888:	f884 2024 	strb.w	r2, [r4, #36]	; 0x24
 800288c:	f023 0312 	bic.w	r3, r3, #18
 8002890:	f043 0310 	orr.w	r3, r3, #16
 8002894:	62a3      	str	r3, [r4, #40]	; 0x28
 8002896:	b002      	add	sp, #8
 8002898:	bd70      	pop	{r4, r5, r6, pc}
 800289a:	2502      	movs	r5, #2
 800289c:	4628      	mov	r0, r5
 800289e:	b002      	add	sp, #8
 80028a0:	bd70      	pop	{r4, r5, r6, pc}
 80028a2:	6aa3      	ldr	r3, [r4, #40]	; 0x28
 80028a4:	f023 0303 	bic.w	r3, r3, #3
 80028a8:	f043 0301 	orr.w	r3, r3, #1
 80028ac:	62a3      	str	r3, [r4, #40]	; 0x28
 80028ae:	e799      	b.n	80027e4 <HAL_ADCEx_Calibration_Start+0x20>
 80028b0:	20000028 	.word	0x20000028

080028b4 <HAL_ADCEx_MultiModeStart_DMA>:
 80028b4:	e92d 41f0 	stmdb	sp!, {r4, r5, r6, r7, r8, lr}
 80028b8:	4604      	mov	r4, r0
 80028ba:	b08c      	sub	sp, #48	; 0x30
 80028bc:	460f      	mov	r7, r1
 80028be:	4690      	mov	r8, r2
 80028c0:	4668      	mov	r0, sp
 80028c2:	2230      	movs	r2, #48	; 0x30
 80028c4:	2100      	movs	r1, #0
 80028c6:	f005 f97f 	bl	8007bc8 <memset>
 80028ca:	f894 3024 	ldrb.w	r3, [r4, #36]	; 0x24
 80028ce:	2b01      	cmp	r3, #1
 80028d0:	d062      	beq.n	8002998 <HAL_ADCEx_MultiModeStart_DMA+0xe4>
 80028d2:	2501      	movs	r5, #1
 80028d4:	4e33      	ldr	r6, [pc, #204]	; (80029a4 <HAL_ADCEx_MultiModeStart_DMA+0xf0>)
 80028d6:	f884 5024 	strb.w	r5, [r4, #36]	; 0x24
 80028da:	68b3      	ldr	r3, [r6, #8]
 80028dc:	9600      	str	r6, [sp, #0]
 80028de:	f403 2360 	and.w	r3, r3, #917504	; 0xe0000
 80028e2:	f5b3 2f60 	cmp.w	r3, #917504	; 0xe0000
 80028e6:	d00a      	beq.n	80028fe <HAL_ADCEx_MultiModeStart_DMA+0x4a>
 80028e8:	2200      	movs	r2, #0
 80028ea:	4628      	mov	r0, r5
 80028ec:	6aa3      	ldr	r3, [r4, #40]	; 0x28
 80028ee:	f884 2024 	strb.w	r2, [r4, #36]	; 0x24
 80028f2:	f043 0320 	orr.w	r3, r3, #32
 80028f6:	62a3      	str	r3, [r4, #40]	; 0x28
 80028f8:	b00c      	add	sp, #48	; 0x30
 80028fa:	e8bd 81f0 	ldmia.w	sp!, {r4, r5, r6, r7, r8, pc}
 80028fe:	4620      	mov	r0, r4
 8002900:	f7ff fe90 	bl	8002624 <ADC_Enable>
 8002904:	4605      	mov	r5, r0
 8002906:	b130      	cbz	r0, 8002916 <HAL_ADCEx_MultiModeStart_DMA+0x62>
 8002908:	2300      	movs	r3, #0
 800290a:	4628      	mov	r0, r5
 800290c:	f884 3024 	strb.w	r3, [r4, #36]	; 0x24
 8002910:	b00c      	add	sp, #48	; 0x30
 8002912:	e8bd 81f0 	ldmia.w	sp!, {r4, r5, r6, r7, r8, pc}
 8002916:	4668      	mov	r0, sp
 8002918:	f7ff fe84 	bl	8002624 <ADC_Enable>
 800291c:	4605      	mov	r5, r0
 800291e:	2800      	cmp	r0, #0
 8002920:	d1f2      	bne.n	8002908 <HAL_ADCEx_MultiModeStart_DMA+0x54>
 8002922:	6aa2      	ldr	r2, [r4, #40]	; 0x28
 8002924:	4b20      	ldr	r3, [pc, #128]	; (80029a8 <HAL_ADCEx_MultiModeStart_DMA+0xf4>)
 8002926:	6821      	ldr	r1, [r4, #0]
 8002928:	4013      	ands	r3, r2
 800292a:	f443 7380 	orr.w	r3, r3, #256	; 0x100
 800292e:	62a3      	str	r3, [r4, #40]	; 0x28
 8002930:	684b      	ldr	r3, [r1, #4]
 8002932:	055b      	lsls	r3, r3, #21
 8002934:	d505      	bpl.n	8002942 <HAL_ADCEx_MultiModeStart_DMA+0x8e>
 8002936:	6aa3      	ldr	r3, [r4, #40]	; 0x28
 8002938:	f423 5340 	bic.w	r3, r3, #12288	; 0x3000
 800293c:	f443 5380 	orr.w	r3, r3, #4096	; 0x1000
 8002940:	62a3      	str	r3, [r4, #40]	; 0x28
 8002942:	2300      	movs	r3, #0
 8002944:	f06f 0202 	mvn.w	r2, #2
 8002948:	6a20      	ldr	r0, [r4, #32]
 800294a:	4e18      	ldr	r6, [pc, #96]	; (80029ac <HAL_ADCEx_MultiModeStart_DMA+0xf8>)
 800294c:	f884 3024 	strb.w	r3, [r4, #36]	; 0x24
 8002950:	62e3      	str	r3, [r4, #44]	; 0x2c
 8002952:	6286      	str	r6, [r0, #40]	; 0x28
 8002954:	4b16      	ldr	r3, [pc, #88]	; (80029b0 <HAL_ADCEx_MultiModeStart_DMA+0xfc>)
 8002956:	4e17      	ldr	r6, [pc, #92]	; (80029b4 <HAL_ADCEx_MultiModeStart_DMA+0x100>)
 8002958:	314c      	adds	r1, #76	; 0x4c
 800295a:	e9c0 630b 	strd	r6, r3, [r0, #44]	; 0x2c
 800295e:	f841 2c4c 	str.w	r2, [r1, #-76]
 8002962:	f851 6c44 	ldr.w	r6, [r1, #-68]
 8002966:	4643      	mov	r3, r8
 8002968:	f446 7680 	orr.w	r6, r6, #256	; 0x100
 800296c:	463a      	mov	r2, r7
 800296e:	f841 6c44 	str.w	r6, [r1, #-68]
 8002972:	f000 f8e1 	bl	8002b38 <HAL_DMA_Start_IT>
 8002976:	4628      	mov	r0, r5
 8002978:	6823      	ldr	r3, [r4, #0]
 800297a:	689a      	ldr	r2, [r3, #8]
 800297c:	f402 2260 	and.w	r2, r2, #917504	; 0xe0000
 8002980:	f5b2 2f60 	cmp.w	r2, #917504	; 0xe0000
 8002984:	689a      	ldr	r2, [r3, #8]
 8002986:	bf0c      	ite	eq
 8002988:	f442 02a0 	orreq.w	r2, r2, #5242880	; 0x500000
 800298c:	f442 1280 	orrne.w	r2, r2, #1048576	; 0x100000
 8002990:	609a      	str	r2, [r3, #8]
 8002992:	b00c      	add	sp, #48	; 0x30
 8002994:	e8bd 81f0 	ldmia.w	sp!, {r4, r5, r6, r7, r8, pc}
 8002998:	2502      	movs	r5, #2
 800299a:	4628      	mov	r0, r5
 800299c:	b00c      	add	sp, #48	; 0x30
 800299e:	e8bd 81f0 	ldmia.w	sp!, {r4, r5, r6, r7, r8, pc}
 80029a2:	bf00      	nop
 80029a4:	40012800 	.word	0x40012800
 80029a8:	ffeffcfe 	.word	0xffeffcfe
 80029ac:	0800248d 	.word	0x0800248d
 80029b0:	080024f1 	.word	0x080024f1
 80029b4:	080024e1 	.word	0x080024e1

080029b8 <HAL_ADCEx_MultiModeConfigChannel>:
 80029b8:	f890 2024 	ldrb.w	r2, [r0, #36]	; 0x24
 80029bc:	2a01      	cmp	r2, #1
 80029be:	d02a      	beq.n	8002a16 <HAL_ADCEx_MultiModeConfigChannel+0x5e>
 80029c0:	4603      	mov	r3, r0
 80029c2:	2001      	movs	r0, #1
 80029c4:	681a      	ldr	r2, [r3, #0]
 80029c6:	f883 0024 	strb.w	r0, [r3, #36]	; 0x24
 80029ca:	6890      	ldr	r0, [r2, #8]
 80029cc:	07c0      	lsls	r0, r0, #31
 80029ce:	d412      	bmi.n	80029f6 <HAL_ADCEx_MultiModeConfigChannel+0x3e>
 80029d0:	4812      	ldr	r0, [pc, #72]	; (8002a1c <HAL_ADCEx_MultiModeConfigChannel+0x64>)
 80029d2:	6880      	ldr	r0, [r0, #8]
 80029d4:	f010 0001 	ands.w	r0, r0, #1
 80029d8:	d10d      	bne.n	80029f6 <HAL_ADCEx_MultiModeConfigChannel+0x3e>
 80029da:	b430      	push	{r4, r5}
 80029dc:	4c10      	ldr	r4, [pc, #64]	; (8002a20 <HAL_ADCEx_MultiModeConfigChannel+0x68>)
 80029de:	42a2      	cmp	r2, r4
 80029e0:	d012      	beq.n	8002a08 <HAL_ADCEx_MultiModeConfigChannel+0x50>
 80029e2:	2001      	movs	r0, #1
 80029e4:	6a9a      	ldr	r2, [r3, #40]	; 0x28
 80029e6:	f042 0220 	orr.w	r2, r2, #32
 80029ea:	629a      	str	r2, [r3, #40]	; 0x28
 80029ec:	2200      	movs	r2, #0
 80029ee:	f883 2024 	strb.w	r2, [r3, #36]	; 0x24
 80029f2:	bc30      	pop	{r4, r5}
 80029f4:	4770      	bx	lr
 80029f6:	6a9a      	ldr	r2, [r3, #40]	; 0x28
 80029f8:	2001      	movs	r0, #1
 80029fa:	f042 0220 	orr.w	r2, r2, #32
 80029fe:	629a      	str	r2, [r3, #40]	; 0x28
 8002a00:	2200      	movs	r2, #0
 8002a02:	f883 2024 	strb.w	r2, [r3, #36]	; 0x24
 8002a06:	4770      	bx	lr
 8002a08:	6854      	ldr	r4, [r2, #4]
 8002a0a:	680d      	ldr	r5, [r1, #0]
 8002a0c:	f424 2170 	bic.w	r1, r4, #983040	; 0xf0000
 8002a10:	4329      	orrs	r1, r5
 8002a12:	6051      	str	r1, [r2, #4]
 8002a14:	e7ea      	b.n	80029ec <HAL_ADCEx_MultiModeConfigChannel+0x34>
 8002a16:	2002      	movs	r0, #2
 8002a18:	4770      	bx	lr
 8002a1a:	bf00      	nop
 8002a1c:	40012800 	.word	0x40012800
 8002a20:	40012400 	.word	0x40012400

08002a24 <HAL_NVIC_SetPriorityGrouping>:
 8002a24:	f64f 01ff 	movw	r1, #63743	; 0xf8ff
 8002a28:	4a06      	ldr	r2, [pc, #24]	; (8002a44 <HAL_NVIC_SetPriorityGrouping+0x20>)
 8002a2a:	0203      	lsls	r3, r0, #8
 8002a2c:	68d0      	ldr	r0, [r2, #12]
 8002a2e:	f403 63e0 	and.w	r3, r3, #1792	; 0x700
 8002a32:	4008      	ands	r0, r1
 8002a34:	4303      	orrs	r3, r0
 8002a36:	f043 63bf 	orr.w	r3, r3, #100139008	; 0x5f80000
 8002a3a:	f443 3300 	orr.w	r3, r3, #131072	; 0x20000
 8002a3e:	60d3      	str	r3, [r2, #12]
 8002a40:	4770      	bx	lr
 8002a42:	bf00      	nop
 8002a44:	e000ed00 	.word	0xe000ed00

08002a48 <HAL_NVIC_SetPriority>:
 8002a48:	4b19      	ldr	r3, [pc, #100]	; (8002ab0 <HAL_NVIC_SetPriority+0x68>)
 8002a4a:	b430      	push	{r4, r5}
 8002a4c:	68db      	ldr	r3, [r3, #12]
 8002a4e:	f3c3 2302 	ubfx	r3, r3, #8, #3
 8002a52:	f1c3 0507 	rsb	r5, r3, #7
 8002a56:	2d04      	cmp	r5, #4
 8002a58:	f103 0404 	add.w	r4, r3, #4
 8002a5c:	bf28      	it	cs
 8002a5e:	2504      	movcs	r5, #4
 8002a60:	2c06      	cmp	r4, #6
 8002a62:	d919      	bls.n	8002a98 <HAL_NVIC_SetPriority+0x50>
 8002a64:	f04f 34ff 	mov.w	r4, #4294967295
 8002a68:	3b03      	subs	r3, #3
 8002a6a:	409c      	lsls	r4, r3
 8002a6c:	ea22 0204 	bic.w	r2, r2, r4
 8002a70:	f04f 34ff 	mov.w	r4, #4294967295
 8002a74:	40ac      	lsls	r4, r5
 8002a76:	ea21 0104 	bic.w	r1, r1, r4
 8002a7a:	4099      	lsls	r1, r3
 8002a7c:	2800      	cmp	r0, #0
 8002a7e:	ea41 0102 	orr.w	r1, r1, r2
 8002a82:	db0c      	blt.n	8002a9e <HAL_NVIC_SetPriority+0x56>
 8002a84:	0109      	lsls	r1, r1, #4
 8002a86:	f100 4060 	add.w	r0, r0, #3758096384	; 0xe0000000
 8002a8a:	b2c9      	uxtb	r1, r1
 8002a8c:	f500 4061 	add.w	r0, r0, #57600	; 0xe100
 8002a90:	f880 1300 	strb.w	r1, [r0, #768]	; 0x300
 8002a94:	bc30      	pop	{r4, r5}
 8002a96:	4770      	bx	lr
 8002a98:	2200      	movs	r2, #0
 8002a9a:	4613      	mov	r3, r2
 8002a9c:	e7e8      	b.n	8002a70 <HAL_NVIC_SetPriority+0x28>
 8002a9e:	4b05      	ldr	r3, [pc, #20]	; (8002ab4 <HAL_NVIC_SetPriority+0x6c>)
 8002aa0:	f000 000f 	and.w	r0, r0, #15
 8002aa4:	0109      	lsls	r1, r1, #4
 8002aa6:	b2c9      	uxtb	r1, r1
 8002aa8:	4403      	add	r3, r0
 8002aaa:	7619      	strb	r1, [r3, #24]
 8002aac:	bc30      	pop	{r4, r5}
 8002aae:	4770      	bx	lr
 8002ab0:	e000ed00 	.word	0xe000ed00
 8002ab4:	e000ecfc 	.word	0xe000ecfc

08002ab8 <HAL_NVIC_EnableIRQ>:
 8002ab8:	2800      	cmp	r0, #0
 8002aba:	db07      	blt.n	8002acc <HAL_NVIC_EnableIRQ+0x14>
 8002abc:	2301      	movs	r3, #1
 8002abe:	f000 011f 	and.w	r1, r0, #31
 8002ac2:	4a03      	ldr	r2, [pc, #12]	; (8002ad0 <HAL_NVIC_EnableIRQ+0x18>)
 8002ac4:	408b      	lsls	r3, r1
 8002ac6:	0940      	lsrs	r0, r0, #5
 8002ac8:	f842 3020 	str.w	r3, [r2, r0, lsl #2]
 8002acc:	4770      	bx	lr
 8002ace:	bf00      	nop
 8002ad0:	e000e100 	.word	0xe000e100

08002ad4 <HAL_DMA_Init>:
 8002ad4:	b340      	cbz	r0, 8002b28 <HAL_DMA_Init+0x54>
 8002ad6:	4603      	mov	r3, r0
 8002ad8:	b4f0      	push	{r4, r5, r6, r7}
 8002ada:	e9d0 2601 	ldrd	r2, r6, [r0, #4]
 8002ade:	f44f 7580 	mov.w	r5, #256	; 0x100
 8002ae2:	2400      	movs	r4, #0
 8002ae4:	4332      	orrs	r2, r6
 8002ae6:	68de      	ldr	r6, [r3, #12]
 8002ae8:	6800      	ldr	r0, [r0, #0]
 8002aea:	4332      	orrs	r2, r6
 8002aec:	490f      	ldr	r1, [pc, #60]	; (8002b2c <HAL_DMA_Init+0x58>)
 8002aee:	691e      	ldr	r6, [r3, #16]
 8002af0:	4f0f      	ldr	r7, [pc, #60]	; (8002b30 <HAL_DMA_Init+0x5c>)
 8002af2:	4401      	add	r1, r0
 8002af4:	4332      	orrs	r2, r6
 8002af6:	695e      	ldr	r6, [r3, #20]
 8002af8:	fba7 7101 	umull	r7, r1, r7, r1
 8002afc:	4332      	orrs	r2, r6
 8002afe:	699e      	ldr	r6, [r3, #24]
 8002b00:	69df      	ldr	r7, [r3, #28]
 8002b02:	4332      	orrs	r2, r6
 8002b04:	6806      	ldr	r6, [r0, #0]
 8002b06:	0909      	lsrs	r1, r1, #4
 8002b08:	0089      	lsls	r1, r1, #2
 8002b0a:	f426 567f 	bic.w	r6, r6, #16320	; 0x3fc0
 8002b0e:	433a      	orrs	r2, r7
 8002b10:	f026 0630 	bic.w	r6, r6, #48	; 0x30
 8002b14:	6419      	str	r1, [r3, #64]	; 0x40
 8002b16:	4907      	ldr	r1, [pc, #28]	; (8002b34 <HAL_DMA_Init+0x60>)
 8002b18:	4332      	orrs	r2, r6
 8002b1a:	63d9      	str	r1, [r3, #60]	; 0x3c
 8002b1c:	6002      	str	r2, [r0, #0]
 8002b1e:	841d      	strh	r5, [r3, #32]
 8002b20:	4620      	mov	r0, r4
 8002b22:	639c      	str	r4, [r3, #56]	; 0x38
 8002b24:	bcf0      	pop	{r4, r5, r6, r7}
 8002b26:	4770      	bx	lr
 8002b28:	2001      	movs	r0, #1
 8002b2a:	4770      	bx	lr
 8002b2c:	bffdfff8 	.word	0xbffdfff8
 8002b30:	cccccccd 	.word	0xcccccccd
 8002b34:	40020000 	.word	0x40020000

08002b38 <HAL_DMA_Start_IT>:
 8002b38:	b4f0      	push	{r4, r5, r6, r7}
 8002b3a:	4604      	mov	r4, r0
 8002b3c:	f890 0020 	ldrb.w	r0, [r0, #32]
 8002b40:	2801      	cmp	r0, #1
 8002b42:	d038      	beq.n	8002bb6 <HAL_DMA_Start_IT+0x7e>
 8002b44:	2501      	movs	r5, #1
 8002b46:	f894 0021 	ldrb.w	r0, [r4, #33]	; 0x21
 8002b4a:	f884 5020 	strb.w	r5, [r4, #32]
 8002b4e:	42a8      	cmp	r0, r5
 8002b50:	d005      	beq.n	8002b5e <HAL_DMA_Start_IT+0x26>
 8002b52:	2300      	movs	r3, #0
 8002b54:	f884 3020 	strb.w	r3, [r4, #32]
 8002b58:	2002      	movs	r0, #2
 8002b5a:	bcf0      	pop	{r4, r5, r6, r7}
 8002b5c:	4770      	bx	lr
 8002b5e:	2702      	movs	r7, #2
 8002b60:	2600      	movs	r6, #0
 8002b62:	6825      	ldr	r5, [r4, #0]
 8002b64:	f884 7021 	strb.w	r7, [r4, #33]	; 0x21
 8002b68:	63a6      	str	r6, [r4, #56]	; 0x38
 8002b6a:	6c27      	ldr	r7, [r4, #64]	; 0x40
 8002b6c:	682e      	ldr	r6, [r5, #0]
 8002b6e:	40b8      	lsls	r0, r7
 8002b70:	f026 0601 	bic.w	r6, r6, #1
 8002b74:	6be7      	ldr	r7, [r4, #60]	; 0x3c
 8002b76:	602e      	str	r6, [r5, #0]
 8002b78:	6866      	ldr	r6, [r4, #4]
 8002b7a:	6078      	str	r0, [r7, #4]
 8002b7c:	606b      	str	r3, [r5, #4]
 8002b7e:	6ae3      	ldr	r3, [r4, #44]	; 0x2c
 8002b80:	2e10      	cmp	r6, #16
 8002b82:	bf0b      	itete	eq
 8002b84:	60aa      	streq	r2, [r5, #8]
 8002b86:	60a9      	strne	r1, [r5, #8]
 8002b88:	60e9      	streq	r1, [r5, #12]
 8002b8a:	60ea      	strne	r2, [r5, #12]
 8002b8c:	b153      	cbz	r3, 8002ba4 <HAL_DMA_Start_IT+0x6c>
 8002b8e:	682b      	ldr	r3, [r5, #0]
 8002b90:	f043 030e 	orr.w	r3, r3, #14
 8002b94:	602b      	str	r3, [r5, #0]
 8002b96:	682b      	ldr	r3, [r5, #0]
 8002b98:	2000      	movs	r0, #0
 8002b9a:	f043 0301 	orr.w	r3, r3, #1
 8002b9e:	602b      	str	r3, [r5, #0]
 8002ba0:	bcf0      	pop	{r4, r5, r6, r7}
 8002ba2:	4770      	bx	lr
 8002ba4:	682b      	ldr	r3, [r5, #0]
 8002ba6:	f023 0304 	bic.w	r3, r3, #4
 8002baa:	602b      	str	r3, [r5, #0]
 8002bac:	682b      	ldr	r3, [r5, #0]
 8002bae:	f043 030a 	orr.w	r3, r3, #10
 8002bb2:	602b      	str	r3, [r5, #0]
 8002bb4:	e7ef      	b.n	8002b96 <HAL_DMA_Start_IT+0x5e>
 8002bb6:	2002      	movs	r0, #2
 8002bb8:	bcf0      	pop	{r4, r5, r6, r7}
 8002bba:	4770      	bx	lr

08002bbc <HAL_DMA_Abort>:
 8002bbc:	f890 2021 	ldrb.w	r2, [r0, #33]	; 0x21
 8002bc0:	4603      	mov	r3, r0
 8002bc2:	2a02      	cmp	r2, #2
 8002bc4:	d006      	beq.n	8002bd4 <HAL_DMA_Abort+0x18>
 8002bc6:	2104      	movs	r1, #4
 8002bc8:	2200      	movs	r2, #0
 8002bca:	6381      	str	r1, [r0, #56]	; 0x38
 8002bcc:	f880 2020 	strb.w	r2, [r0, #32]
 8002bd0:	2001      	movs	r0, #1
 8002bd2:	4770      	bx	lr
 8002bd4:	2101      	movs	r1, #1
 8002bd6:	b470      	push	{r4, r5, r6}
 8002bd8:	f44f 7580 	mov.w	r5, #256	; 0x100
 8002bdc:	681a      	ldr	r2, [r3, #0]
 8002bde:	6c1e      	ldr	r6, [r3, #64]	; 0x40
 8002be0:	6814      	ldr	r4, [r2, #0]
 8002be2:	40b1      	lsls	r1, r6
 8002be4:	f024 040e 	bic.w	r4, r4, #14
 8002be8:	6014      	str	r4, [r2, #0]
 8002bea:	6814      	ldr	r4, [r2, #0]
 8002bec:	2000      	movs	r0, #0
 8002bee:	f024 0401 	bic.w	r4, r4, #1
 8002bf2:	6014      	str	r4, [r2, #0]
 8002bf4:	6bda      	ldr	r2, [r3, #60]	; 0x3c
 8002bf6:	6051      	str	r1, [r2, #4]
 8002bf8:	841d      	strh	r5, [r3, #32]
 8002bfa:	bc70      	pop	{r4, r5, r6}
 8002bfc:	4770      	bx	lr
 8002bfe:	bf00      	nop

08002c00 <HAL_DMA_Abort_IT>:
 8002c00:	f890 2021 	ldrb.w	r2, [r0, #33]	; 0x21
 8002c04:	4603      	mov	r3, r0
 8002c06:	2a02      	cmp	r2, #2
 8002c08:	d003      	beq.n	8002c12 <HAL_DMA_Abort_IT+0x12>
 8002c0a:	2204      	movs	r2, #4
 8002c0c:	2001      	movs	r0, #1
 8002c0e:	639a      	str	r2, [r3, #56]	; 0x38
 8002c10:	4770      	bx	lr
 8002c12:	6802      	ldr	r2, [r0, #0]
 8002c14:	b510      	push	{r4, lr}
 8002c16:	6811      	ldr	r1, [r2, #0]
 8002c18:	481b      	ldr	r0, [pc, #108]	; (8002c88 <HAL_DMA_Abort_IT+0x88>)
 8002c1a:	f021 010e 	bic.w	r1, r1, #14
 8002c1e:	6011      	str	r1, [r2, #0]
 8002c20:	6811      	ldr	r1, [r2, #0]
 8002c22:	4282      	cmp	r2, r0
 8002c24:	f021 0101 	bic.w	r1, r1, #1
 8002c28:	6011      	str	r1, [r2, #0]
 8002c2a:	d021      	beq.n	8002c70 <HAL_DMA_Abort_IT+0x70>
 8002c2c:	4917      	ldr	r1, [pc, #92]	; (8002c8c <HAL_DMA_Abort_IT+0x8c>)
 8002c2e:	428a      	cmp	r2, r1
 8002c30:	d01a      	beq.n	8002c68 <HAL_DMA_Abort_IT+0x68>
 8002c32:	3114      	adds	r1, #20
 8002c34:	428a      	cmp	r2, r1
 8002c36:	d01d      	beq.n	8002c74 <HAL_DMA_Abort_IT+0x74>
 8002c38:	3114      	adds	r1, #20
 8002c3a:	428a      	cmp	r2, r1
 8002c3c:	d01d      	beq.n	8002c7a <HAL_DMA_Abort_IT+0x7a>
 8002c3e:	3114      	adds	r1, #20
 8002c40:	428a      	cmp	r2, r1
 8002c42:	d01d      	beq.n	8002c80 <HAL_DMA_Abort_IT+0x80>
 8002c44:	3114      	adds	r1, #20
 8002c46:	428a      	cmp	r2, r1
 8002c48:	bf0c      	ite	eq
 8002c4a:	f44f 1280 	moveq.w	r2, #1048576	; 0x100000
 8002c4e:	f04f 7280 	movne.w	r2, #16777216	; 0x1000000
 8002c52:	f44f 7080 	mov.w	r0, #256	; 0x100
 8002c56:	4c0e      	ldr	r4, [pc, #56]	; (8002c90 <HAL_DMA_Abort_IT+0x90>)
 8002c58:	6b59      	ldr	r1, [r3, #52]	; 0x34
 8002c5a:	6062      	str	r2, [r4, #4]
 8002c5c:	8418      	strh	r0, [r3, #32]
 8002c5e:	b129      	cbz	r1, 8002c6c <HAL_DMA_Abort_IT+0x6c>
 8002c60:	4618      	mov	r0, r3
 8002c62:	4788      	blx	r1
 8002c64:	2000      	movs	r0, #0
 8002c66:	bd10      	pop	{r4, pc}
 8002c68:	2210      	movs	r2, #16
 8002c6a:	e7f2      	b.n	8002c52 <HAL_DMA_Abort_IT+0x52>
 8002c6c:	4608      	mov	r0, r1
 8002c6e:	bd10      	pop	{r4, pc}
 8002c70:	2201      	movs	r2, #1
 8002c72:	e7ee      	b.n	8002c52 <HAL_DMA_Abort_IT+0x52>
 8002c74:	f44f 7280 	mov.w	r2, #256	; 0x100
 8002c78:	e7eb      	b.n	8002c52 <HAL_DMA_Abort_IT+0x52>
 8002c7a:	f44f 5280 	mov.w	r2, #4096	; 0x1000
 8002c7e:	e7e8      	b.n	8002c52 <HAL_DMA_Abort_IT+0x52>
 8002c80:	f44f 3280 	mov.w	r2, #65536	; 0x10000
 8002c84:	e7e5      	b.n	8002c52 <HAL_DMA_Abort_IT+0x52>
 8002c86:	bf00      	nop
 8002c88:	40020008 	.word	0x40020008
 8002c8c:	4002001c 	.word	0x4002001c
 8002c90:	40020000 	.word	0x40020000

08002c94 <HAL_DMA_IRQHandler>:
 8002c94:	2204      	movs	r2, #4
 8002c96:	b470      	push	{r4, r5, r6}
 8002c98:	e9d0 610f 	ldrd	r6, r1, [r0, #60]	; 0x3c
 8002c9c:	6834      	ldr	r4, [r6, #0]
 8002c9e:	6803      	ldr	r3, [r0, #0]
 8002ca0:	408a      	lsls	r2, r1
 8002ca2:	4222      	tst	r2, r4
 8002ca4:	681d      	ldr	r5, [r3, #0]
 8002ca6:	d01f      	beq.n	8002ce8 <HAL_DMA_IRQHandler+0x54>
 8002ca8:	076a      	lsls	r2, r5, #29
 8002caa:	d51d      	bpl.n	8002ce8 <HAL_DMA_IRQHandler+0x54>
 8002cac:	681a      	ldr	r2, [r3, #0]
 8002cae:	0691      	lsls	r1, r2, #26
 8002cb0:	d403      	bmi.n	8002cba <HAL_DMA_IRQHandler+0x26>
 8002cb2:	681a      	ldr	r2, [r3, #0]
 8002cb4:	f022 0204 	bic.w	r2, r2, #4
 8002cb8:	601a      	str	r2, [r3, #0]
 8002cba:	4a3e      	ldr	r2, [pc, #248]	; (8002db4 <HAL_DMA_IRQHandler+0x120>)
 8002cbc:	4293      	cmp	r3, r2
 8002cbe:	d05a      	beq.n	8002d76 <HAL_DMA_IRQHandler+0xe2>
 8002cc0:	3214      	adds	r2, #20
 8002cc2:	4293      	cmp	r3, r2
 8002cc4:	d05f      	beq.n	8002d86 <HAL_DMA_IRQHandler+0xf2>
 8002cc6:	3214      	adds	r2, #20
 8002cc8:	4293      	cmp	r3, r2
 8002cca:	d066      	beq.n	8002d9a <HAL_DMA_IRQHandler+0x106>
 8002ccc:	3214      	adds	r2, #20
 8002cce:	4293      	cmp	r3, r2
 8002cd0:	d069      	beq.n	8002da6 <HAL_DMA_IRQHandler+0x112>
 8002cd2:	3214      	adds	r2, #20
 8002cd4:	4293      	cmp	r3, r2
 8002cd6:	d05b      	beq.n	8002d90 <HAL_DMA_IRQHandler+0xfc>
 8002cd8:	3214      	adds	r2, #20
 8002cda:	4293      	cmp	r3, r2
 8002cdc:	bf0c      	ite	eq
 8002cde:	f44f 0380 	moveq.w	r3, #4194304	; 0x400000
 8002ce2:	f04f 6380 	movne.w	r3, #67108864	; 0x4000000
 8002ce6:	e047      	b.n	8002d78 <HAL_DMA_IRQHandler+0xe4>
 8002ce8:	2202      	movs	r2, #2
 8002cea:	408a      	lsls	r2, r1
 8002cec:	4222      	tst	r2, r4
 8002cee:	d022      	beq.n	8002d36 <HAL_DMA_IRQHandler+0xa2>
 8002cf0:	07aa      	lsls	r2, r5, #30
 8002cf2:	d520      	bpl.n	8002d36 <HAL_DMA_IRQHandler+0xa2>
 8002cf4:	681a      	ldr	r2, [r3, #0]
 8002cf6:	0691      	lsls	r1, r2, #26
 8002cf8:	d406      	bmi.n	8002d08 <HAL_DMA_IRQHandler+0x74>
 8002cfa:	2101      	movs	r1, #1
 8002cfc:	681a      	ldr	r2, [r3, #0]
 8002cfe:	f022 020a 	bic.w	r2, r2, #10
 8002d02:	601a      	str	r2, [r3, #0]
 8002d04:	f880 1021 	strb.w	r1, [r0, #33]	; 0x21
 8002d08:	4a2a      	ldr	r2, [pc, #168]	; (8002db4 <HAL_DMA_IRQHandler+0x120>)
 8002d0a:	4293      	cmp	r3, r2
 8002d0c:	d029      	beq.n	8002d62 <HAL_DMA_IRQHandler+0xce>
 8002d0e:	3214      	adds	r2, #20
 8002d10:	4293      	cmp	r3, r2
 8002d12:	d040      	beq.n	8002d96 <HAL_DMA_IRQHandler+0x102>
 8002d14:	3214      	adds	r2, #20
 8002d16:	4293      	cmp	r3, r2
 8002d18:	d042      	beq.n	8002da0 <HAL_DMA_IRQHandler+0x10c>
 8002d1a:	3214      	adds	r2, #20
 8002d1c:	4293      	cmp	r3, r2
 8002d1e:	d034      	beq.n	8002d8a <HAL_DMA_IRQHandler+0xf6>
 8002d20:	3214      	adds	r2, #20
 8002d22:	4293      	cmp	r3, r2
 8002d24:	d042      	beq.n	8002dac <HAL_DMA_IRQHandler+0x118>
 8002d26:	3214      	adds	r2, #20
 8002d28:	4293      	cmp	r3, r2
 8002d2a:	bf0c      	ite	eq
 8002d2c:	f44f 1300 	moveq.w	r3, #2097152	; 0x200000
 8002d30:	f04f 7300 	movne.w	r3, #33554432	; 0x2000000
 8002d34:	e016      	b.n	8002d64 <HAL_DMA_IRQHandler+0xd0>
 8002d36:	2208      	movs	r2, #8
 8002d38:	408a      	lsls	r2, r1
 8002d3a:	4222      	tst	r2, r4
 8002d3c:	d019      	beq.n	8002d72 <HAL_DMA_IRQHandler+0xde>
 8002d3e:	072a      	lsls	r2, r5, #28
 8002d40:	d517      	bpl.n	8002d72 <HAL_DMA_IRQHandler+0xde>
 8002d42:	2401      	movs	r4, #1
 8002d44:	f44f 7580 	mov.w	r5, #256	; 0x100
 8002d48:	681a      	ldr	r2, [r3, #0]
 8002d4a:	fa04 f101 	lsl.w	r1, r4, r1
 8002d4e:	f022 020e 	bic.w	r2, r2, #14
 8002d52:	601a      	str	r2, [r3, #0]
 8002d54:	6b03      	ldr	r3, [r0, #48]	; 0x30
 8002d56:	6071      	str	r1, [r6, #4]
 8002d58:	6384      	str	r4, [r0, #56]	; 0x38
 8002d5a:	8405      	strh	r5, [r0, #32]
 8002d5c:	b14b      	cbz	r3, 8002d72 <HAL_DMA_IRQHandler+0xde>
 8002d5e:	bc70      	pop	{r4, r5, r6}
 8002d60:	4718      	bx	r3
 8002d62:	2302      	movs	r3, #2
 8002d64:	2100      	movs	r1, #0
 8002d66:	4c14      	ldr	r4, [pc, #80]	; (8002db8 <HAL_DMA_IRQHandler+0x124>)
 8002d68:	6a82      	ldr	r2, [r0, #40]	; 0x28
 8002d6a:	6063      	str	r3, [r4, #4]
 8002d6c:	f880 1020 	strb.w	r1, [r0, #32]
 8002d70:	b93a      	cbnz	r2, 8002d82 <HAL_DMA_IRQHandler+0xee>
 8002d72:	bc70      	pop	{r4, r5, r6}
 8002d74:	4770      	bx	lr
 8002d76:	2304      	movs	r3, #4
 8002d78:	490f      	ldr	r1, [pc, #60]	; (8002db8 <HAL_DMA_IRQHandler+0x124>)
 8002d7a:	6ac2      	ldr	r2, [r0, #44]	; 0x2c
 8002d7c:	604b      	str	r3, [r1, #4]
 8002d7e:	2a00      	cmp	r2, #0
 8002d80:	d0f7      	beq.n	8002d72 <HAL_DMA_IRQHandler+0xde>
 8002d82:	bc70      	pop	{r4, r5, r6}
 8002d84:	4710      	bx	r2
 8002d86:	2340      	movs	r3, #64	; 0x40
 8002d88:	e7f6      	b.n	8002d78 <HAL_DMA_IRQHandler+0xe4>
 8002d8a:	f44f 5300 	mov.w	r3, #8192	; 0x2000
 8002d8e:	e7e9      	b.n	8002d64 <HAL_DMA_IRQHandler+0xd0>
 8002d90:	f44f 2380 	mov.w	r3, #262144	; 0x40000
 8002d94:	e7f0      	b.n	8002d78 <HAL_DMA_IRQHandler+0xe4>
 8002d96:	2320      	movs	r3, #32
 8002d98:	e7e4      	b.n	8002d64 <HAL_DMA_IRQHandler+0xd0>
 8002d9a:	f44f 6380 	mov.w	r3, #1024	; 0x400
 8002d9e:	e7eb      	b.n	8002d78 <HAL_DMA_IRQHandler+0xe4>
 8002da0:	f44f 7300 	mov.w	r3, #512	; 0x200
 8002da4:	e7de      	b.n	8002d64 <HAL_DMA_IRQHandler+0xd0>
 8002da6:	f44f 4380 	mov.w	r3, #16384	; 0x4000
 8002daa:	e7e5      	b.n	8002d78 <HAL_DMA_IRQHandler+0xe4>
 8002dac:	f44f 3300 	mov.w	r3, #131072	; 0x20000
 8002db0:	e7d8      	b.n	8002d64 <HAL_DMA_IRQHandler+0xd0>
 8002db2:	bf00      	nop
 8002db4:	40020008 	.word	0x40020008
 8002db8:	40020000 	.word	0x40020000

08002dbc <HAL_GPIO_Init>:
 8002dbc:	e92d 4ff0 	stmdb	sp!, {r4, r5, r6, r7, r8, r9, sl, fp, lr}
 8002dc0:	680c      	ldr	r4, [r1, #0]
 8002dc2:	b085      	sub	sp, #20
 8002dc4:	2c00      	cmp	r4, #0
 8002dc6:	f000 809e 	beq.w	8002f06 <HAL_GPIO_Init+0x14a>
 8002dca:	2600      	movs	r6, #0
 8002dcc:	f8df c1f4 	ldr.w	ip, [pc, #500]	; 8002fc4 <HAL_GPIO_Init+0x208>
 8002dd0:	4633      	mov	r3, r6
 8002dd2:	4f77      	ldr	r7, [pc, #476]	; (8002fb0 <HAL_GPIO_Init+0x1f4>)
 8002dd4:	f8df 81f0 	ldr.w	r8, [pc, #496]	; 8002fc8 <HAL_GPIO_Init+0x20c>
 8002dd8:	f8df e1f0 	ldr.w	lr, [pc, #496]	; 8002fcc <HAL_GPIO_Init+0x210>
 8002ddc:	9000      	str	r0, [sp, #0]
 8002dde:	e004      	b.n	8002dea <HAL_GPIO_Init+0x2e>
 8002de0:	3301      	adds	r3, #1
 8002de2:	fa34 f203 	lsrs.w	r2, r4, r3
 8002de6:	f000 808e 	beq.w	8002f06 <HAL_GPIO_Init+0x14a>
 8002dea:	2201      	movs	r2, #1
 8002dec:	409a      	lsls	r2, r3
 8002dee:	ea32 0004 	bics.w	r0, r2, r4
 8002df2:	ea02 0504 	and.w	r5, r2, r4
 8002df6:	d1f3      	bne.n	8002de0 <HAL_GPIO_Init+0x24>
 8002df8:	684c      	ldr	r4, [r1, #4]
 8002dfa:	2c12      	cmp	r4, #18
 8002dfc:	f200 8086 	bhi.w	8002f0c <HAL_GPIO_Init+0x150>
 8002e00:	2c12      	cmp	r4, #18
 8002e02:	d80c      	bhi.n	8002e1e <HAL_GPIO_Init+0x62>
 8002e04:	e8df f004 	tbb	[pc, r4]
 8002e08:	0abcbf8a 	.word	0x0abcbf8a
 8002e0c:	0b0b0b0b 	.word	0x0b0b0b0b
 8002e10:	0b0b0b0b 	.word	0x0b0b0b0b
 8002e14:	0b0b0b0b 	.word	0x0b0b0b0b
 8002e18:	b90b      	.short	0xb90b
 8002e1a:	b6          	.byte	0xb6
 8002e1b:	00          	.byte	0x00
 8002e1c:	2600      	movs	r6, #0
 8002e1e:	2dff      	cmp	r5, #255	; 0xff
 8002e20:	f200 8083 	bhi.w	8002f2a <HAL_GPIO_Init+0x16e>
 8002e24:	f8dd 9000 	ldr.w	r9, [sp]
 8002e28:	ea4f 0a83 	mov.w	sl, r3, lsl #2
 8002e2c:	240f      	movs	r4, #15
 8002e2e:	f8d9 2000 	ldr.w	r2, [r9]
 8002e32:	fa04 fb0a 	lsl.w	fp, r4, sl
 8002e36:	ea22 020b 	bic.w	r2, r2, fp
 8002e3a:	fa06 fa0a 	lsl.w	sl, r6, sl
 8002e3e:	ea42 020a 	orr.w	r2, r2, sl
 8002e42:	f8c9 2000 	str.w	r2, [r9]
 8002e46:	f8d1 9004 	ldr.w	r9, [r1, #4]
 8002e4a:	f019 5f80 	tst.w	r9, #268435456	; 0x10000000
 8002e4e:	f000 808f 	beq.w	8002f70 <HAL_GPIO_Init+0x1b4>
 8002e52:	f8dc a018 	ldr.w	sl, [ip, #24]
 8002e56:	f023 0203 	bic.w	r2, r3, #3
 8002e5a:	f04a 0a01 	orr.w	sl, sl, #1
 8002e5e:	f8cc a018 	str.w	sl, [ip, #24]
 8002e62:	f8dc a018 	ldr.w	sl, [ip, #24]
 8002e66:	f102 4280 	add.w	r2, r2, #1073741824	; 0x40000000
 8002e6a:	f00a 0a01 	and.w	sl, sl, #1
 8002e6e:	f8cd a00c 	str.w	sl, [sp, #12]
 8002e72:	f502 3280 	add.w	r2, r2, #65536	; 0x10000
 8002e76:	f003 0a03 	and.w	sl, r3, #3
 8002e7a:	f8dd b00c 	ldr.w	fp, [sp, #12]
 8002e7e:	ea4f 0a8a 	mov.w	sl, sl, lsl #2
 8002e82:	f8d2 b008 	ldr.w	fp, [r2, #8]
 8002e86:	fa04 f40a 	lsl.w	r4, r4, sl
 8002e8a:	ea2b 0004 	bic.w	r0, fp, r4
 8002e8e:	9001      	str	r0, [sp, #4]
 8002e90:	9c00      	ldr	r4, [sp, #0]
 8002e92:	4848      	ldr	r0, [pc, #288]	; (8002fb4 <HAL_GPIO_Init+0x1f8>)
 8002e94:	4284      	cmp	r4, r0
 8002e96:	d013      	beq.n	8002ec0 <HAL_GPIO_Init+0x104>
 8002e98:	f500 6080 	add.w	r0, r0, #1024	; 0x400
 8002e9c:	4284      	cmp	r4, r0
 8002e9e:	d07d      	beq.n	8002f9c <HAL_GPIO_Init+0x1e0>
 8002ea0:	4845      	ldr	r0, [pc, #276]	; (8002fb8 <HAL_GPIO_Init+0x1fc>)
 8002ea2:	4284      	cmp	r4, r0
 8002ea4:	d071      	beq.n	8002f8a <HAL_GPIO_Init+0x1ce>
 8002ea6:	4845      	ldr	r0, [pc, #276]	; (8002fbc <HAL_GPIO_Init+0x200>)
 8002ea8:	4284      	cmp	r4, r0
 8002eaa:	bf0c      	ite	eq
 8002eac:	f04f 0b03 	moveq.w	fp, #3
 8002eb0:	f04f 0b04 	movne.w	fp, #4
 8002eb4:	9801      	ldr	r0, [sp, #4]
 8002eb6:	fa0b fa0a 	lsl.w	sl, fp, sl
 8002eba:	ea40 000a 	orr.w	r0, r0, sl
 8002ebe:	9001      	str	r0, [sp, #4]
 8002ec0:	9801      	ldr	r0, [sp, #4]
 8002ec2:	f419 3f80 	tst.w	r9, #65536	; 0x10000
 8002ec6:	6090      	str	r0, [r2, #8]
 8002ec8:	683a      	ldr	r2, [r7, #0]
 8002eca:	bf14      	ite	ne
 8002ecc:	432a      	orrne	r2, r5
 8002ece:	43aa      	biceq	r2, r5
 8002ed0:	603a      	str	r2, [r7, #0]
 8002ed2:	687a      	ldr	r2, [r7, #4]
 8002ed4:	f419 3f00 	tst.w	r9, #131072	; 0x20000
 8002ed8:	bf14      	ite	ne
 8002eda:	432a      	orrne	r2, r5
 8002edc:	43aa      	biceq	r2, r5
 8002ede:	607a      	str	r2, [r7, #4]
 8002ee0:	68ba      	ldr	r2, [r7, #8]
 8002ee2:	f419 1f80 	tst.w	r9, #1048576	; 0x100000
 8002ee6:	bf14      	ite	ne
 8002ee8:	432a      	orrne	r2, r5
 8002eea:	43aa      	biceq	r2, r5
 8002eec:	60ba      	str	r2, [r7, #8]
 8002eee:	f419 1f00 	tst.w	r9, #2097152	; 0x200000
 8002ef2:	68fa      	ldr	r2, [r7, #12]
 8002ef4:	d039      	beq.n	8002f6a <HAL_GPIO_Init+0x1ae>
 8002ef6:	4315      	orrs	r5, r2
 8002ef8:	60fd      	str	r5, [r7, #12]
 8002efa:	680c      	ldr	r4, [r1, #0]
 8002efc:	3301      	adds	r3, #1
 8002efe:	fa34 f203 	lsrs.w	r2, r4, r3
 8002f02:	f47f af72 	bne.w	8002dea <HAL_GPIO_Init+0x2e>
 8002f06:	b005      	add	sp, #20
 8002f08:	e8bd 8ff0 	ldmia.w	sp!, {r4, r5, r6, r7, r8, r9, sl, fp, pc}
 8002f0c:	4544      	cmp	r4, r8
 8002f0e:	d005      	beq.n	8002f1c <HAL_GPIO_Init+0x160>
 8002f10:	d913      	bls.n	8002f3a <HAL_GPIO_Init+0x17e>
 8002f12:	4574      	cmp	r4, lr
 8002f14:	d002      	beq.n	8002f1c <HAL_GPIO_Init+0x160>
 8002f16:	482a      	ldr	r0, [pc, #168]	; (8002fc0 <HAL_GPIO_Init+0x204>)
 8002f18:	4284      	cmp	r4, r0
 8002f1a:	d180      	bne.n	8002e1e <HAL_GPIO_Init+0x62>
 8002f1c:	688c      	ldr	r4, [r1, #8]
 8002f1e:	b9e4      	cbnz	r4, 8002f5a <HAL_GPIO_Init+0x19e>
 8002f20:	2dff      	cmp	r5, #255	; 0xff
 8002f22:	f04f 0604 	mov.w	r6, #4
 8002f26:	f67f af7d 	bls.w	8002e24 <HAL_GPIO_Init+0x68>
 8002f2a:	9a00      	ldr	r2, [sp, #0]
 8002f2c:	ea4f 0a83 	mov.w	sl, r3, lsl #2
 8002f30:	f1aa 0a20 	sub.w	sl, sl, #32
 8002f34:	f102 0904 	add.w	r9, r2, #4
 8002f38:	e778      	b.n	8002e2c <HAL_GPIO_Init+0x70>
 8002f3a:	f8df 9094 	ldr.w	r9, [pc, #148]	; 8002fd0 <HAL_GPIO_Init+0x214>
 8002f3e:	454c      	cmp	r4, r9
 8002f40:	d0ec      	beq.n	8002f1c <HAL_GPIO_Init+0x160>
 8002f42:	f509 2970 	add.w	r9, r9, #983040	; 0xf0000
 8002f46:	454c      	cmp	r4, r9
 8002f48:	d0e8      	beq.n	8002f1c <HAL_GPIO_Init+0x160>
 8002f4a:	f5a9 1980 	sub.w	r9, r9, #1048576	; 0x100000
 8002f4e:	454c      	cmp	r4, r9
 8002f50:	f47f af65 	bne.w	8002e1e <HAL_GPIO_Init+0x62>
 8002f54:	688c      	ldr	r4, [r1, #8]
 8002f56:	2c00      	cmp	r4, #0
 8002f58:	d0e2      	beq.n	8002f20 <HAL_GPIO_Init+0x164>
 8002f5a:	9800      	ldr	r0, [sp, #0]
 8002f5c:	2c01      	cmp	r4, #1
 8002f5e:	f04f 0608 	mov.w	r6, #8
 8002f62:	bf0c      	ite	eq
 8002f64:	6102      	streq	r2, [r0, #16]
 8002f66:	6142      	strne	r2, [r0, #20]
 8002f68:	e759      	b.n	8002e1e <HAL_GPIO_Init+0x62>
 8002f6a:	ea22 0505 	bic.w	r5, r2, r5
 8002f6e:	60fd      	str	r5, [r7, #12]
 8002f70:	680c      	ldr	r4, [r1, #0]
 8002f72:	e735      	b.n	8002de0 <HAL_GPIO_Init+0x24>
 8002f74:	68ce      	ldr	r6, [r1, #12]
 8002f76:	360c      	adds	r6, #12
 8002f78:	e751      	b.n	8002e1e <HAL_GPIO_Init+0x62>
 8002f7a:	68ce      	ldr	r6, [r1, #12]
 8002f7c:	3604      	adds	r6, #4
 8002f7e:	e74e      	b.n	8002e1e <HAL_GPIO_Init+0x62>
 8002f80:	68ce      	ldr	r6, [r1, #12]
 8002f82:	3608      	adds	r6, #8
 8002f84:	e74b      	b.n	8002e1e <HAL_GPIO_Init+0x62>
 8002f86:	68ce      	ldr	r6, [r1, #12]
 8002f88:	e749      	b.n	8002e1e <HAL_GPIO_Init+0x62>
 8002f8a:	f04f 0b02 	mov.w	fp, #2
 8002f8e:	9801      	ldr	r0, [sp, #4]
 8002f90:	fa0b fa0a 	lsl.w	sl, fp, sl
 8002f94:	ea40 000a 	orr.w	r0, r0, sl
 8002f98:	9001      	str	r0, [sp, #4]
 8002f9a:	e791      	b.n	8002ec0 <HAL_GPIO_Init+0x104>
 8002f9c:	f04f 0b01 	mov.w	fp, #1
 8002fa0:	9801      	ldr	r0, [sp, #4]
 8002fa2:	fa0b fa0a 	lsl.w	sl, fp, sl
 8002fa6:	ea40 000a 	orr.w	r0, r0, sl
 8002faa:	9001      	str	r0, [sp, #4]
 8002fac:	e788      	b.n	8002ec0 <HAL_GPIO_Init+0x104>
 8002fae:	bf00      	nop
 8002fb0:	40010400 	.word	0x40010400
 8002fb4:	40010800 	.word	0x40010800
 8002fb8:	40011000 	.word	0x40011000
 8002fbc:	40011400 	.word	0x40011400
 8002fc0:	10320000 	.word	0x10320000
 8002fc4:	40021000 	.word	0x40021000
 8002fc8:	10220000 	.word	0x10220000
 8002fcc:	10310000 	.word	0x10310000
 8002fd0:	10120000 	.word	0x10120000

08002fd4 <HAL_GPIO_WritePin>:
 8002fd4:	b902      	cbnz	r2, 8002fd8 <HAL_GPIO_WritePin+0x4>
 8002fd6:	0409      	lsls	r1, r1, #16
 8002fd8:	6101      	str	r1, [r0, #16]
 8002fda:	4770      	bx	lr

08002fdc <HAL_GPIO_EXTI_IRQHandler>:
 8002fdc:	4a04      	ldr	r2, [pc, #16]	; (8002ff0 <HAL_GPIO_EXTI_IRQHandler+0x14>)
 8002fde:	6951      	ldr	r1, [r2, #20]
 8002fe0:	4201      	tst	r1, r0
 8002fe2:	d100      	bne.n	8002fe6 <HAL_GPIO_EXTI_IRQHandler+0xa>
 8002fe4:	4770      	bx	lr
 8002fe6:	b508      	push	{r3, lr}
 8002fe8:	6150      	str	r0, [r2, #20]
 8002fea:	f7fe fea9 	bl	8001d40 <HAL_GPIO_EXTI_Callback>
 8002fee:	bd08      	pop	{r3, pc}
 8002ff0:	40010400 	.word	0x40010400

08002ff4 <HAL_RCC_OscConfig>:
 8002ff4:	2800      	cmp	r0, #0
 8002ff6:	f000 81c3 	beq.w	8003380 <HAL_RCC_OscConfig+0x38c>
 8002ffa:	e92d 41f0 	stmdb	sp!, {r4, r5, r6, r7, r8, lr}
 8002ffe:	6803      	ldr	r3, [r0, #0]
 8003000:	4604      	mov	r4, r0
 8003002:	07dd      	lsls	r5, r3, #31
 8003004:	b082      	sub	sp, #8
 8003006:	d535      	bpl.n	8003074 <HAL_RCC_OscConfig+0x80>
 8003008:	49a6      	ldr	r1, [pc, #664]	; (80032a4 <HAL_RCC_OscConfig+0x2b0>)
 800300a:	684a      	ldr	r2, [r1, #4]
 800300c:	f002 020c 	and.w	r2, r2, #12
 8003010:	2a04      	cmp	r2, #4
 8003012:	f000 80ef 	beq.w	80031f4 <HAL_RCC_OscConfig+0x200>
 8003016:	684a      	ldr	r2, [r1, #4]
 8003018:	f002 020c 	and.w	r2, r2, #12
 800301c:	2a08      	cmp	r2, #8
 800301e:	f000 80e5 	beq.w	80031ec <HAL_RCC_OscConfig+0x1f8>
 8003022:	6863      	ldr	r3, [r4, #4]
 8003024:	f5b3 3f80 	cmp.w	r3, #65536	; 0x10000
 8003028:	d010      	beq.n	800304c <HAL_RCC_OscConfig+0x58>
 800302a:	2b00      	cmp	r3, #0
 800302c:	f000 810d 	beq.w	800324a <HAL_RCC_OscConfig+0x256>
 8003030:	f5b3 2fa0 	cmp.w	r3, #327680	; 0x50000
 8003034:	f000 818f 	beq.w	8003356 <HAL_RCC_OscConfig+0x362>
 8003038:	4b9a      	ldr	r3, [pc, #616]	; (80032a4 <HAL_RCC_OscConfig+0x2b0>)
 800303a:	681a      	ldr	r2, [r3, #0]
 800303c:	f422 3280 	bic.w	r2, r2, #65536	; 0x10000
 8003040:	601a      	str	r2, [r3, #0]
 8003042:	681a      	ldr	r2, [r3, #0]
 8003044:	f422 2280 	bic.w	r2, r2, #262144	; 0x40000
 8003048:	601a      	str	r2, [r3, #0]
 800304a:	e004      	b.n	8003056 <HAL_RCC_OscConfig+0x62>
 800304c:	4a95      	ldr	r2, [pc, #596]	; (80032a4 <HAL_RCC_OscConfig+0x2b0>)
 800304e:	6813      	ldr	r3, [r2, #0]
 8003050:	f443 3380 	orr.w	r3, r3, #65536	; 0x10000
 8003054:	6013      	str	r3, [r2, #0]
 8003056:	f7ff f95d 	bl	8002314 <HAL_GetTick>
 800305a:	4e92      	ldr	r6, [pc, #584]	; (80032a4 <HAL_RCC_OscConfig+0x2b0>)
 800305c:	4605      	mov	r5, r0
 800305e:	e005      	b.n	800306c <HAL_RCC_OscConfig+0x78>
 8003060:	f7ff f958 	bl	8002314 <HAL_GetTick>
 8003064:	1b40      	subs	r0, r0, r5
 8003066:	2864      	cmp	r0, #100	; 0x64
 8003068:	f200 80eb 	bhi.w	8003242 <HAL_RCC_OscConfig+0x24e>
 800306c:	6833      	ldr	r3, [r6, #0]
 800306e:	039a      	lsls	r2, r3, #14
 8003070:	d5f6      	bpl.n	8003060 <HAL_RCC_OscConfig+0x6c>
 8003072:	6823      	ldr	r3, [r4, #0]
 8003074:	079f      	lsls	r7, r3, #30
 8003076:	d528      	bpl.n	80030ca <HAL_RCC_OscConfig+0xd6>
 8003078:	4a8a      	ldr	r2, [pc, #552]	; (80032a4 <HAL_RCC_OscConfig+0x2b0>)
 800307a:	6851      	ldr	r1, [r2, #4]
 800307c:	f011 0f0c 	tst.w	r1, #12
 8003080:	f000 808e 	beq.w	80031a0 <HAL_RCC_OscConfig+0x1ac>
 8003084:	6851      	ldr	r1, [r2, #4]
 8003086:	f001 010c 	and.w	r1, r1, #12
 800308a:	2908      	cmp	r1, #8
 800308c:	f000 8084 	beq.w	8003198 <HAL_RCC_OscConfig+0x1a4>
 8003090:	6923      	ldr	r3, [r4, #16]
 8003092:	2b00      	cmp	r3, #0
 8003094:	f000 8125 	beq.w	80032e2 <HAL_RCC_OscConfig+0x2ee>
 8003098:	2201      	movs	r2, #1
 800309a:	4b83      	ldr	r3, [pc, #524]	; (80032a8 <HAL_RCC_OscConfig+0x2b4>)
 800309c:	4e81      	ldr	r6, [pc, #516]	; (80032a4 <HAL_RCC_OscConfig+0x2b0>)
 800309e:	601a      	str	r2, [r3, #0]
 80030a0:	f7ff f938 	bl	8002314 <HAL_GetTick>
 80030a4:	4605      	mov	r5, r0
 80030a6:	e005      	b.n	80030b4 <HAL_RCC_OscConfig+0xc0>
 80030a8:	f7ff f934 	bl	8002314 <HAL_GetTick>
 80030ac:	1b40      	subs	r0, r0, r5
 80030ae:	2802      	cmp	r0, #2
 80030b0:	f200 80c7 	bhi.w	8003242 <HAL_RCC_OscConfig+0x24e>
 80030b4:	6833      	ldr	r3, [r6, #0]
 80030b6:	0798      	lsls	r0, r3, #30
 80030b8:	d5f6      	bpl.n	80030a8 <HAL_RCC_OscConfig+0xb4>
 80030ba:	6833      	ldr	r3, [r6, #0]
 80030bc:	6962      	ldr	r2, [r4, #20]
 80030be:	f023 03f8 	bic.w	r3, r3, #248	; 0xf8
 80030c2:	ea43 03c2 	orr.w	r3, r3, r2, lsl #3
 80030c6:	6033      	str	r3, [r6, #0]
 80030c8:	6823      	ldr	r3, [r4, #0]
 80030ca:	071a      	lsls	r2, r3, #28
 80030cc:	d41f      	bmi.n	800310e <HAL_RCC_OscConfig+0x11a>
 80030ce:	075d      	lsls	r5, r3, #29
 80030d0:	d541      	bpl.n	8003156 <HAL_RCC_OscConfig+0x162>
 80030d2:	4b74      	ldr	r3, [pc, #464]	; (80032a4 <HAL_RCC_OscConfig+0x2b0>)
 80030d4:	69da      	ldr	r2, [r3, #28]
 80030d6:	00d0      	lsls	r0, r2, #3
 80030d8:	d57d      	bpl.n	80031d6 <HAL_RCC_OscConfig+0x1e2>
 80030da:	2500      	movs	r5, #0
 80030dc:	4b73      	ldr	r3, [pc, #460]	; (80032ac <HAL_RCC_OscConfig+0x2b8>)
 80030de:	681a      	ldr	r2, [r3, #0]
 80030e0:	05d1      	lsls	r1, r2, #23
 80030e2:	f140 809d 	bpl.w	8003220 <HAL_RCC_OscConfig+0x22c>
 80030e6:	68e3      	ldr	r3, [r4, #12]
 80030e8:	2b01      	cmp	r3, #1
 80030ea:	f000 810b 	beq.w	8003304 <HAL_RCC_OscConfig+0x310>
 80030ee:	2b00      	cmp	r3, #0
 80030f0:	f000 80c5 	beq.w	800327e <HAL_RCC_OscConfig+0x28a>
 80030f4:	2b05      	cmp	r3, #5
 80030f6:	4b6b      	ldr	r3, [pc, #428]	; (80032a4 <HAL_RCC_OscConfig+0x2b0>)
 80030f8:	6a1a      	ldr	r2, [r3, #32]
 80030fa:	f000 8139 	beq.w	8003370 <HAL_RCC_OscConfig+0x37c>
 80030fe:	f022 0201 	bic.w	r2, r2, #1
 8003102:	621a      	str	r2, [r3, #32]
 8003104:	6a1a      	ldr	r2, [r3, #32]
 8003106:	f022 0204 	bic.w	r2, r2, #4
 800310a:	621a      	str	r2, [r3, #32]
 800310c:	e0ff      	b.n	800330e <HAL_RCC_OscConfig+0x31a>
 800310e:	69a3      	ldr	r3, [r4, #24]
 8003110:	2b00      	cmp	r3, #0
 8003112:	d050      	beq.n	80031b6 <HAL_RCC_OscConfig+0x1c2>
 8003114:	2201      	movs	r2, #1
 8003116:	4b66      	ldr	r3, [pc, #408]	; (80032b0 <HAL_RCC_OscConfig+0x2bc>)
 8003118:	4e62      	ldr	r6, [pc, #392]	; (80032a4 <HAL_RCC_OscConfig+0x2b0>)
 800311a:	601a      	str	r2, [r3, #0]
 800311c:	f7ff f8fa 	bl	8002314 <HAL_GetTick>
 8003120:	4605      	mov	r5, r0
 8003122:	e005      	b.n	8003130 <HAL_RCC_OscConfig+0x13c>
 8003124:	f7ff f8f6 	bl	8002314 <HAL_GetTick>
 8003128:	1b40      	subs	r0, r0, r5
 800312a:	2802      	cmp	r0, #2
 800312c:	f200 8089 	bhi.w	8003242 <HAL_RCC_OscConfig+0x24e>
 8003130:	6a73      	ldr	r3, [r6, #36]	; 0x24
 8003132:	079b      	lsls	r3, r3, #30
 8003134:	d5f6      	bpl.n	8003124 <HAL_RCC_OscConfig+0x130>
 8003136:	4b5f      	ldr	r3, [pc, #380]	; (80032b4 <HAL_RCC_OscConfig+0x2c0>)
 8003138:	4a5f      	ldr	r2, [pc, #380]	; (80032b8 <HAL_RCC_OscConfig+0x2c4>)
 800313a:	681b      	ldr	r3, [r3, #0]
 800313c:	fba2 2303 	umull	r2, r3, r2, r3
 8003140:	0a5b      	lsrs	r3, r3, #9
 8003142:	9301      	str	r3, [sp, #4]
 8003144:	bf00      	nop
 8003146:	9b01      	ldr	r3, [sp, #4]
 8003148:	1e5a      	subs	r2, r3, #1
 800314a:	9201      	str	r2, [sp, #4]
 800314c:	2b00      	cmp	r3, #0
 800314e:	d1f9      	bne.n	8003144 <HAL_RCC_OscConfig+0x150>
 8003150:	6823      	ldr	r3, [r4, #0]
 8003152:	075d      	lsls	r5, r3, #29
 8003154:	d4bd      	bmi.n	80030d2 <HAL_RCC_OscConfig+0xde>
 8003156:	69e0      	ldr	r0, [r4, #28]
 8003158:	b1d0      	cbz	r0, 8003190 <HAL_RCC_OscConfig+0x19c>
 800315a:	4d52      	ldr	r5, [pc, #328]	; (80032a4 <HAL_RCC_OscConfig+0x2b0>)
 800315c:	686a      	ldr	r2, [r5, #4]
 800315e:	f002 020c 	and.w	r2, r2, #12
 8003162:	2a08      	cmp	r2, #8
 8003164:	f000 80e6 	beq.w	8003334 <HAL_RCC_OscConfig+0x340>
 8003168:	2802      	cmp	r0, #2
 800316a:	f04f 0100 	mov.w	r1, #0
 800316e:	4a53      	ldr	r2, [pc, #332]	; (80032bc <HAL_RCC_OscConfig+0x2c8>)
 8003170:	f000 8108 	beq.w	8003384 <HAL_RCC_OscConfig+0x390>
 8003174:	6011      	str	r1, [r2, #0]
 8003176:	f7ff f8cd 	bl	8002314 <HAL_GetTick>
 800317a:	462c      	mov	r4, r5
 800317c:	4605      	mov	r5, r0
 800317e:	e004      	b.n	800318a <HAL_RCC_OscConfig+0x196>
 8003180:	f7ff f8c8 	bl	8002314 <HAL_GetTick>
 8003184:	1b40      	subs	r0, r0, r5
 8003186:	2802      	cmp	r0, #2
 8003188:	d85b      	bhi.n	8003242 <HAL_RCC_OscConfig+0x24e>
 800318a:	6823      	ldr	r3, [r4, #0]
 800318c:	019b      	lsls	r3, r3, #6
 800318e:	d4f7      	bmi.n	8003180 <HAL_RCC_OscConfig+0x18c>
 8003190:	2000      	movs	r0, #0
 8003192:	b002      	add	sp, #8
 8003194:	e8bd 81f0 	ldmia.w	sp!, {r4, r5, r6, r7, r8, pc}
 8003198:	6852      	ldr	r2, [r2, #4]
 800319a:	03d6      	lsls	r6, r2, #15
 800319c:	f53f af78 	bmi.w	8003090 <HAL_RCC_OscConfig+0x9c>
 80031a0:	4a40      	ldr	r2, [pc, #256]	; (80032a4 <HAL_RCC_OscConfig+0x2b0>)
 80031a2:	6812      	ldr	r2, [r2, #0]
 80031a4:	0795      	lsls	r5, r2, #30
 80031a6:	d52f      	bpl.n	8003208 <HAL_RCC_OscConfig+0x214>
 80031a8:	6922      	ldr	r2, [r4, #16]
 80031aa:	2a01      	cmp	r2, #1
 80031ac:	d02c      	beq.n	8003208 <HAL_RCC_OscConfig+0x214>
 80031ae:	2001      	movs	r0, #1
 80031b0:	b002      	add	sp, #8
 80031b2:	e8bd 81f0 	ldmia.w	sp!, {r4, r5, r6, r7, r8, pc}
 80031b6:	4a3e      	ldr	r2, [pc, #248]	; (80032b0 <HAL_RCC_OscConfig+0x2bc>)
 80031b8:	4e3a      	ldr	r6, [pc, #232]	; (80032a4 <HAL_RCC_OscConfig+0x2b0>)
 80031ba:	6013      	str	r3, [r2, #0]
 80031bc:	f7ff f8aa 	bl	8002314 <HAL_GetTick>
 80031c0:	4605      	mov	r5, r0
 80031c2:	e004      	b.n	80031ce <HAL_RCC_OscConfig+0x1da>
 80031c4:	f7ff f8a6 	bl	8002314 <HAL_GetTick>
 80031c8:	1b40      	subs	r0, r0, r5
 80031ca:	2802      	cmp	r0, #2
 80031cc:	d839      	bhi.n	8003242 <HAL_RCC_OscConfig+0x24e>
 80031ce:	6a73      	ldr	r3, [r6, #36]	; 0x24
 80031d0:	079f      	lsls	r7, r3, #30
 80031d2:	d4f7      	bmi.n	80031c4 <HAL_RCC_OscConfig+0x1d0>
 80031d4:	e7bc      	b.n	8003150 <HAL_RCC_OscConfig+0x15c>
 80031d6:	69da      	ldr	r2, [r3, #28]
 80031d8:	2501      	movs	r5, #1
 80031da:	f042 5280 	orr.w	r2, r2, #268435456	; 0x10000000
 80031de:	61da      	str	r2, [r3, #28]
 80031e0:	69db      	ldr	r3, [r3, #28]
 80031e2:	f003 5380 	and.w	r3, r3, #268435456	; 0x10000000
 80031e6:	9300      	str	r3, [sp, #0]
 80031e8:	9b00      	ldr	r3, [sp, #0]
 80031ea:	e777      	b.n	80030dc <HAL_RCC_OscConfig+0xe8>
 80031ec:	684a      	ldr	r2, [r1, #4]
 80031ee:	03d0      	lsls	r0, r2, #15
 80031f0:	f57f af17 	bpl.w	8003022 <HAL_RCC_OscConfig+0x2e>
 80031f4:	4a2b      	ldr	r2, [pc, #172]	; (80032a4 <HAL_RCC_OscConfig+0x2b0>)
 80031f6:	6812      	ldr	r2, [r2, #0]
 80031f8:	0391      	lsls	r1, r2, #14
 80031fa:	f57f af3b 	bpl.w	8003074 <HAL_RCC_OscConfig+0x80>
 80031fe:	6862      	ldr	r2, [r4, #4]
 8003200:	2a00      	cmp	r2, #0
 8003202:	f47f af37 	bne.w	8003074 <HAL_RCC_OscConfig+0x80>
 8003206:	e7d2      	b.n	80031ae <HAL_RCC_OscConfig+0x1ba>
 8003208:	4926      	ldr	r1, [pc, #152]	; (80032a4 <HAL_RCC_OscConfig+0x2b0>)
 800320a:	6960      	ldr	r0, [r4, #20]
 800320c:	680a      	ldr	r2, [r1, #0]
 800320e:	f022 02f8 	bic.w	r2, r2, #248	; 0xf8
 8003212:	ea42 02c0 	orr.w	r2, r2, r0, lsl #3
 8003216:	600a      	str	r2, [r1, #0]
 8003218:	071a      	lsls	r2, r3, #28
 800321a:	f57f af58 	bpl.w	80030ce <HAL_RCC_OscConfig+0xda>
 800321e:	e776      	b.n	800310e <HAL_RCC_OscConfig+0x11a>
 8003220:	681a      	ldr	r2, [r3, #0]
 8003222:	461f      	mov	r7, r3
 8003224:	f442 7280 	orr.w	r2, r2, #256	; 0x100
 8003228:	601a      	str	r2, [r3, #0]
 800322a:	f7ff f873 	bl	8002314 <HAL_GetTick>
 800322e:	4606      	mov	r6, r0
 8003230:	683b      	ldr	r3, [r7, #0]
 8003232:	05da      	lsls	r2, r3, #23
 8003234:	f53f af57 	bmi.w	80030e6 <HAL_RCC_OscConfig+0xf2>
 8003238:	f7ff f86c 	bl	8002314 <HAL_GetTick>
 800323c:	1b80      	subs	r0, r0, r6
 800323e:	2864      	cmp	r0, #100	; 0x64
 8003240:	d9f6      	bls.n	8003230 <HAL_RCC_OscConfig+0x23c>
 8003242:	2003      	movs	r0, #3
 8003244:	b002      	add	sp, #8
 8003246:	e8bd 81f0 	ldmia.w	sp!, {r4, r5, r6, r7, r8, pc}
 800324a:	f103 4380 	add.w	r3, r3, #1073741824	; 0x40000000
 800324e:	f503 3304 	add.w	r3, r3, #135168	; 0x21000
 8003252:	681a      	ldr	r2, [r3, #0]
 8003254:	461e      	mov	r6, r3
 8003256:	f422 3280 	bic.w	r2, r2, #65536	; 0x10000
 800325a:	601a      	str	r2, [r3, #0]
 800325c:	681a      	ldr	r2, [r3, #0]
 800325e:	f422 2280 	bic.w	r2, r2, #262144	; 0x40000
 8003262:	601a      	str	r2, [r3, #0]
 8003264:	f7ff f856 	bl	8002314 <HAL_GetTick>
 8003268:	4605      	mov	r5, r0
 800326a:	e004      	b.n	8003276 <HAL_RCC_OscConfig+0x282>
 800326c:	f7ff f852 	bl	8002314 <HAL_GetTick>
 8003270:	1b40      	subs	r0, r0, r5
 8003272:	2864      	cmp	r0, #100	; 0x64
 8003274:	d8e5      	bhi.n	8003242 <HAL_RCC_OscConfig+0x24e>
 8003276:	6833      	ldr	r3, [r6, #0]
 8003278:	039b      	lsls	r3, r3, #14
 800327a:	d4f7      	bmi.n	800326c <HAL_RCC_OscConfig+0x278>
 800327c:	e6f9      	b.n	8003072 <HAL_RCC_OscConfig+0x7e>
 800327e:	f103 4380 	add.w	r3, r3, #1073741824	; 0x40000000
 8003282:	f503 3304 	add.w	r3, r3, #135168	; 0x21000
 8003286:	6a1a      	ldr	r2, [r3, #32]
 8003288:	461f      	mov	r7, r3
 800328a:	f022 0201 	bic.w	r2, r2, #1
 800328e:	621a      	str	r2, [r3, #32]
 8003290:	6a1a      	ldr	r2, [r3, #32]
 8003292:	f241 3888 	movw	r8, #5000	; 0x1388
 8003296:	f022 0204 	bic.w	r2, r2, #4
 800329a:	621a      	str	r2, [r3, #32]
 800329c:	f7ff f83a 	bl	8002314 <HAL_GetTick>
 80032a0:	4606      	mov	r6, r0
 80032a2:	e012      	b.n	80032ca <HAL_RCC_OscConfig+0x2d6>
 80032a4:	40021000 	.word	0x40021000
 80032a8:	42420000 	.word	0x42420000
 80032ac:	40007000 	.word	0x40007000
 80032b0:	42420480 	.word	0x42420480
 80032b4:	20000028 	.word	0x20000028
 80032b8:	10624dd3 	.word	0x10624dd3
 80032bc:	42420060 	.word	0x42420060
 80032c0:	f7ff f828 	bl	8002314 <HAL_GetTick>
 80032c4:	1b80      	subs	r0, r0, r6
 80032c6:	4540      	cmp	r0, r8
 80032c8:	d8bb      	bhi.n	8003242 <HAL_RCC_OscConfig+0x24e>
 80032ca:	6a3b      	ldr	r3, [r7, #32]
 80032cc:	0798      	lsls	r0, r3, #30
 80032ce:	d4f7      	bmi.n	80032c0 <HAL_RCC_OscConfig+0x2cc>
 80032d0:	2d00      	cmp	r5, #0
 80032d2:	f43f af40 	beq.w	8003156 <HAL_RCC_OscConfig+0x162>
 80032d6:	4a44      	ldr	r2, [pc, #272]	; (80033e8 <HAL_RCC_OscConfig+0x3f4>)
 80032d8:	69d3      	ldr	r3, [r2, #28]
 80032da:	f023 5380 	bic.w	r3, r3, #268435456	; 0x10000000
 80032de:	61d3      	str	r3, [r2, #28]
 80032e0:	e739      	b.n	8003156 <HAL_RCC_OscConfig+0x162>
 80032e2:	4a42      	ldr	r2, [pc, #264]	; (80033ec <HAL_RCC_OscConfig+0x3f8>)
 80032e4:	4e40      	ldr	r6, [pc, #256]	; (80033e8 <HAL_RCC_OscConfig+0x3f4>)
 80032e6:	6013      	str	r3, [r2, #0]
 80032e8:	f7ff f814 	bl	8002314 <HAL_GetTick>
 80032ec:	4605      	mov	r5, r0
 80032ee:	e004      	b.n	80032fa <HAL_RCC_OscConfig+0x306>
 80032f0:	f7ff f810 	bl	8002314 <HAL_GetTick>
 80032f4:	1b40      	subs	r0, r0, r5
 80032f6:	2802      	cmp	r0, #2
 80032f8:	d8a3      	bhi.n	8003242 <HAL_RCC_OscConfig+0x24e>
 80032fa:	6833      	ldr	r3, [r6, #0]
 80032fc:	0799      	lsls	r1, r3, #30
 80032fe:	d4f7      	bmi.n	80032f0 <HAL_RCC_OscConfig+0x2fc>
 8003300:	6823      	ldr	r3, [r4, #0]
 8003302:	e6e2      	b.n	80030ca <HAL_RCC_OscConfig+0xd6>
 8003304:	4a38      	ldr	r2, [pc, #224]	; (80033e8 <HAL_RCC_OscConfig+0x3f4>)
 8003306:	6a13      	ldr	r3, [r2, #32]
 8003308:	f043 0301 	orr.w	r3, r3, #1
 800330c:	6213      	str	r3, [r2, #32]
 800330e:	f7ff f801 	bl	8002314 <HAL_GetTick>
 8003312:	f241 3888 	movw	r8, #5000	; 0x1388
 8003316:	4606      	mov	r6, r0
 8003318:	4f33      	ldr	r7, [pc, #204]	; (80033e8 <HAL_RCC_OscConfig+0x3f4>)
 800331a:	e004      	b.n	8003326 <HAL_RCC_OscConfig+0x332>
 800331c:	f7fe fffa 	bl	8002314 <HAL_GetTick>
 8003320:	1b80      	subs	r0, r0, r6
 8003322:	4540      	cmp	r0, r8
 8003324:	d88d      	bhi.n	8003242 <HAL_RCC_OscConfig+0x24e>
 8003326:	6a3b      	ldr	r3, [r7, #32]
 8003328:	079b      	lsls	r3, r3, #30
 800332a:	d5f7      	bpl.n	800331c <HAL_RCC_OscConfig+0x328>
 800332c:	2d00      	cmp	r5, #0
 800332e:	f43f af12 	beq.w	8003156 <HAL_RCC_OscConfig+0x162>
 8003332:	e7d0      	b.n	80032d6 <HAL_RCC_OscConfig+0x2e2>
 8003334:	2801      	cmp	r0, #1
 8003336:	f43f af2c 	beq.w	8003192 <HAL_RCC_OscConfig+0x19e>
 800333a:	686b      	ldr	r3, [r5, #4]
 800333c:	6a22      	ldr	r2, [r4, #32]
 800333e:	f403 3180 	and.w	r1, r3, #65536	; 0x10000
 8003342:	4291      	cmp	r1, r2
 8003344:	f47f af33 	bne.w	80031ae <HAL_RCC_OscConfig+0x1ba>
 8003348:	6a60      	ldr	r0, [r4, #36]	; 0x24
 800334a:	f403 1370 	and.w	r3, r3, #3932160	; 0x3c0000
 800334e:	1a18      	subs	r0, r3, r0
 8003350:	bf18      	it	ne
 8003352:	2001      	movne	r0, #1
 8003354:	e71d      	b.n	8003192 <HAL_RCC_OscConfig+0x19e>
 8003356:	f103 4380 	add.w	r3, r3, #1073741824	; 0x40000000
 800335a:	f5a3 333c 	sub.w	r3, r3, #192512	; 0x2f000
 800335e:	681a      	ldr	r2, [r3, #0]
 8003360:	f442 2280 	orr.w	r2, r2, #262144	; 0x40000
 8003364:	601a      	str	r2, [r3, #0]
 8003366:	681a      	ldr	r2, [r3, #0]
 8003368:	f442 3280 	orr.w	r2, r2, #65536	; 0x10000
 800336c:	601a      	str	r2, [r3, #0]
 800336e:	e672      	b.n	8003056 <HAL_RCC_OscConfig+0x62>
 8003370:	f042 0204 	orr.w	r2, r2, #4
 8003374:	621a      	str	r2, [r3, #32]
 8003376:	6a1a      	ldr	r2, [r3, #32]
 8003378:	f042 0201 	orr.w	r2, r2, #1
 800337c:	621a      	str	r2, [r3, #32]
 800337e:	e7c6      	b.n	800330e <HAL_RCC_OscConfig+0x31a>
 8003380:	2001      	movs	r0, #1
 8003382:	4770      	bx	lr
 8003384:	6011      	str	r1, [r2, #0]
 8003386:	f7fe ffc5 	bl	8002314 <HAL_GetTick>
 800338a:	4606      	mov	r6, r0
 800338c:	e005      	b.n	800339a <HAL_RCC_OscConfig+0x3a6>
 800338e:	f7fe ffc1 	bl	8002314 <HAL_GetTick>
 8003392:	1b80      	subs	r0, r0, r6
 8003394:	2802      	cmp	r0, #2
 8003396:	f63f af54 	bhi.w	8003242 <HAL_RCC_OscConfig+0x24e>
 800339a:	682b      	ldr	r3, [r5, #0]
 800339c:	0199      	lsls	r1, r3, #6
 800339e:	d4f6      	bmi.n	800338e <HAL_RCC_OscConfig+0x39a>
 80033a0:	6a23      	ldr	r3, [r4, #32]
 80033a2:	f5b3 3f80 	cmp.w	r3, #65536	; 0x10000
 80033a6:	d105      	bne.n	80033b4 <HAL_RCC_OscConfig+0x3c0>
 80033a8:	686a      	ldr	r2, [r5, #4]
 80033aa:	68a1      	ldr	r1, [r4, #8]
 80033ac:	f422 3200 	bic.w	r2, r2, #131072	; 0x20000
 80033b0:	430a      	orrs	r2, r1
 80033b2:	606a      	str	r2, [r5, #4]
 80033b4:	2001      	movs	r0, #1
 80033b6:	4d0c      	ldr	r5, [pc, #48]	; (80033e8 <HAL_RCC_OscConfig+0x3f4>)
 80033b8:	6a61      	ldr	r1, [r4, #36]	; 0x24
 80033ba:	686a      	ldr	r2, [r5, #4]
 80033bc:	430b      	orrs	r3, r1
 80033be:	f422 1274 	bic.w	r2, r2, #3997696	; 0x3d0000
 80033c2:	490b      	ldr	r1, [pc, #44]	; (80033f0 <HAL_RCC_OscConfig+0x3fc>)
 80033c4:	4313      	orrs	r3, r2
 80033c6:	606b      	str	r3, [r5, #4]
 80033c8:	6008      	str	r0, [r1, #0]
 80033ca:	f7fe ffa3 	bl	8002314 <HAL_GetTick>
 80033ce:	462c      	mov	r4, r5
 80033d0:	4605      	mov	r5, r0
 80033d2:	e005      	b.n	80033e0 <HAL_RCC_OscConfig+0x3ec>
 80033d4:	f7fe ff9e 	bl	8002314 <HAL_GetTick>
 80033d8:	1b40      	subs	r0, r0, r5
 80033da:	2802      	cmp	r0, #2
 80033dc:	f63f af31 	bhi.w	8003242 <HAL_RCC_OscConfig+0x24e>
 80033e0:	6823      	ldr	r3, [r4, #0]
 80033e2:	019a      	lsls	r2, r3, #6
 80033e4:	d5f6      	bpl.n	80033d4 <HAL_RCC_OscConfig+0x3e0>
 80033e6:	e6d3      	b.n	8003190 <HAL_RCC_OscConfig+0x19c>
 80033e8:	40021000 	.word	0x40021000
 80033ec:	42420000 	.word	0x42420000
 80033f0:	42420060 	.word	0x42420060

080033f4 <HAL_RCC_ClockConfig>:
 80033f4:	2800      	cmp	r0, #0
 80033f6:	f000 80af 	beq.w	8003558 <HAL_RCC_ClockConfig+0x164>
 80033fa:	4a5d      	ldr	r2, [pc, #372]	; (8003570 <HAL_RCC_ClockConfig+0x17c>)
 80033fc:	e92d 41f0 	stmdb	sp!, {r4, r5, r6, r7, r8, lr}
 8003400:	6813      	ldr	r3, [r2, #0]
 8003402:	4604      	mov	r4, r0
 8003404:	f003 0307 	and.w	r3, r3, #7
 8003408:	428b      	cmp	r3, r1
 800340a:	460d      	mov	r5, r1
 800340c:	b086      	sub	sp, #24
 800340e:	d20d      	bcs.n	800342c <HAL_RCC_ClockConfig+0x38>
 8003410:	6813      	ldr	r3, [r2, #0]
 8003412:	f023 0307 	bic.w	r3, r3, #7
 8003416:	430b      	orrs	r3, r1
 8003418:	6013      	str	r3, [r2, #0]
 800341a:	6813      	ldr	r3, [r2, #0]
 800341c:	f003 0307 	and.w	r3, r3, #7
 8003420:	428b      	cmp	r3, r1
 8003422:	d003      	beq.n	800342c <HAL_RCC_ClockConfig+0x38>
 8003424:	2001      	movs	r0, #1
 8003426:	b006      	add	sp, #24
 8003428:	e8bd 81f0 	ldmia.w	sp!, {r4, r5, r6, r7, r8, pc}
 800342c:	6823      	ldr	r3, [r4, #0]
 800342e:	0798      	lsls	r0, r3, #30
 8003430:	d514      	bpl.n	800345c <HAL_RCC_ClockConfig+0x68>
 8003432:	0759      	lsls	r1, r3, #29
 8003434:	d504      	bpl.n	8003440 <HAL_RCC_ClockConfig+0x4c>
 8003436:	494f      	ldr	r1, [pc, #316]	; (8003574 <HAL_RCC_ClockConfig+0x180>)
 8003438:	684a      	ldr	r2, [r1, #4]
 800343a:	f442 62e0 	orr.w	r2, r2, #1792	; 0x700
 800343e:	604a      	str	r2, [r1, #4]
 8003440:	071a      	lsls	r2, r3, #28
 8003442:	d504      	bpl.n	800344e <HAL_RCC_ClockConfig+0x5a>
 8003444:	494b      	ldr	r1, [pc, #300]	; (8003574 <HAL_RCC_ClockConfig+0x180>)
 8003446:	684a      	ldr	r2, [r1, #4]
 8003448:	f442 5260 	orr.w	r2, r2, #14336	; 0x3800
 800344c:	604a      	str	r2, [r1, #4]
 800344e:	4949      	ldr	r1, [pc, #292]	; (8003574 <HAL_RCC_ClockConfig+0x180>)
 8003450:	68a0      	ldr	r0, [r4, #8]
 8003452:	684a      	ldr	r2, [r1, #4]
 8003454:	f022 02f0 	bic.w	r2, r2, #240	; 0xf0
 8003458:	4302      	orrs	r2, r0
 800345a:	604a      	str	r2, [r1, #4]
 800345c:	07db      	lsls	r3, r3, #31
 800345e:	d520      	bpl.n	80034a2 <HAL_RCC_ClockConfig+0xae>
 8003460:	6862      	ldr	r2, [r4, #4]
 8003462:	4b44      	ldr	r3, [pc, #272]	; (8003574 <HAL_RCC_ClockConfig+0x180>)
 8003464:	2a01      	cmp	r2, #1
 8003466:	681b      	ldr	r3, [r3, #0]
 8003468:	d078      	beq.n	800355c <HAL_RCC_ClockConfig+0x168>
 800346a:	2a02      	cmp	r2, #2
 800346c:	d071      	beq.n	8003552 <HAL_RCC_ClockConfig+0x15e>
 800346e:	0798      	lsls	r0, r3, #30
 8003470:	d5d8      	bpl.n	8003424 <HAL_RCC_ClockConfig+0x30>
 8003472:	4e40      	ldr	r6, [pc, #256]	; (8003574 <HAL_RCC_ClockConfig+0x180>)
 8003474:	f241 3888 	movw	r8, #5000	; 0x1388
 8003478:	6873      	ldr	r3, [r6, #4]
 800347a:	f023 0303 	bic.w	r3, r3, #3
 800347e:	4313      	orrs	r3, r2
 8003480:	6073      	str	r3, [r6, #4]
 8003482:	f7fe ff47 	bl	8002314 <HAL_GetTick>
 8003486:	4607      	mov	r7, r0
 8003488:	e004      	b.n	8003494 <HAL_RCC_ClockConfig+0xa0>
 800348a:	f7fe ff43 	bl	8002314 <HAL_GetTick>
 800348e:	1bc0      	subs	r0, r0, r7
 8003490:	4540      	cmp	r0, r8
 8003492:	d866      	bhi.n	8003562 <HAL_RCC_ClockConfig+0x16e>
 8003494:	6873      	ldr	r3, [r6, #4]
 8003496:	6862      	ldr	r2, [r4, #4]
 8003498:	f003 030c 	and.w	r3, r3, #12
 800349c:	ebb3 0f82 	cmp.w	r3, r2, lsl #2
 80034a0:	d1f3      	bne.n	800348a <HAL_RCC_ClockConfig+0x96>
 80034a2:	4a33      	ldr	r2, [pc, #204]	; (8003570 <HAL_RCC_ClockConfig+0x17c>)
 80034a4:	6813      	ldr	r3, [r2, #0]
 80034a6:	f003 0307 	and.w	r3, r3, #7
 80034aa:	42ab      	cmp	r3, r5
 80034ac:	d909      	bls.n	80034c2 <HAL_RCC_ClockConfig+0xce>
 80034ae:	6813      	ldr	r3, [r2, #0]
 80034b0:	f023 0307 	bic.w	r3, r3, #7
 80034b4:	432b      	orrs	r3, r5
 80034b6:	6013      	str	r3, [r2, #0]
 80034b8:	6813      	ldr	r3, [r2, #0]
 80034ba:	f003 0307 	and.w	r3, r3, #7
 80034be:	42ab      	cmp	r3, r5
 80034c0:	d1b0      	bne.n	8003424 <HAL_RCC_ClockConfig+0x30>
 80034c2:	6823      	ldr	r3, [r4, #0]
 80034c4:	0759      	lsls	r1, r3, #29
 80034c6:	d506      	bpl.n	80034d6 <HAL_RCC_ClockConfig+0xe2>
 80034c8:	492a      	ldr	r1, [pc, #168]	; (8003574 <HAL_RCC_ClockConfig+0x180>)
 80034ca:	68e0      	ldr	r0, [r4, #12]
 80034cc:	684a      	ldr	r2, [r1, #4]
 80034ce:	f422 62e0 	bic.w	r2, r2, #1792	; 0x700
 80034d2:	4302      	orrs	r2, r0
 80034d4:	604a      	str	r2, [r1, #4]
 80034d6:	071a      	lsls	r2, r3, #28
 80034d8:	d507      	bpl.n	80034ea <HAL_RCC_ClockConfig+0xf6>
 80034da:	4a26      	ldr	r2, [pc, #152]	; (8003574 <HAL_RCC_ClockConfig+0x180>)
 80034dc:	6921      	ldr	r1, [r4, #16]
 80034de:	6853      	ldr	r3, [r2, #4]
 80034e0:	f423 5360 	bic.w	r3, r3, #14336	; 0x3800
 80034e4:	ea43 03c1 	orr.w	r3, r3, r1, lsl #3
 80034e8:	6053      	str	r3, [r2, #4]
 80034ea:	f240 2201 	movw	r2, #513	; 0x201
 80034ee:	4b22      	ldr	r3, [pc, #136]	; (8003578 <HAL_RCC_ClockConfig+0x184>)
 80034f0:	ac06      	add	r4, sp, #24
 80034f2:	f8ad 2004 	strh.w	r2, [sp, #4]
 80034f6:	cb0f      	ldmia	r3, {r0, r1, r2, r3}
 80034f8:	e904 000f 	stmdb	r4, {r0, r1, r2, r3}
 80034fc:	491d      	ldr	r1, [pc, #116]	; (8003574 <HAL_RCC_ClockConfig+0x180>)
 80034fe:	684a      	ldr	r2, [r1, #4]
 8003500:	f002 030c 	and.w	r3, r2, #12
 8003504:	2b08      	cmp	r3, #8
 8003506:	d011      	beq.n	800352c <HAL_RCC_ClockConfig+0x138>
 8003508:	4b1c      	ldr	r3, [pc, #112]	; (800357c <HAL_RCC_ClockConfig+0x188>)
 800350a:	4a1a      	ldr	r2, [pc, #104]	; (8003574 <HAL_RCC_ClockConfig+0x180>)
 800350c:	481c      	ldr	r0, [pc, #112]	; (8003580 <HAL_RCC_ClockConfig+0x18c>)
 800350e:	6852      	ldr	r2, [r2, #4]
 8003510:	491c      	ldr	r1, [pc, #112]	; (8003584 <HAL_RCC_ClockConfig+0x190>)
 8003512:	f3c2 1203 	ubfx	r2, r2, #4, #4
 8003516:	5c80      	ldrb	r0, [r0, r2]
 8003518:	4a1b      	ldr	r2, [pc, #108]	; (8003588 <HAL_RCC_ClockConfig+0x194>)
 800351a:	40c3      	lsrs	r3, r0
 800351c:	6808      	ldr	r0, [r1, #0]
 800351e:	6013      	str	r3, [r2, #0]
 8003520:	f7fe fe32 	bl	8002188 <HAL_InitTick>
 8003524:	2000      	movs	r0, #0
 8003526:	b006      	add	sp, #24
 8003528:	e8bd 81f0 	ldmia.w	sp!, {r4, r5, r6, r7, r8, pc}
 800352c:	f3c2 4383 	ubfx	r3, r2, #18, #4
 8003530:	4423      	add	r3, r4
 8003532:	f813 0c10 	ldrb.w	r0, [r3, #-16]
 8003536:	03d3      	lsls	r3, r2, #15
 8003538:	d515      	bpl.n	8003566 <HAL_RCC_ClockConfig+0x172>
 800353a:	684a      	ldr	r2, [r1, #4]
 800353c:	4b0f      	ldr	r3, [pc, #60]	; (800357c <HAL_RCC_ClockConfig+0x188>)
 800353e:	f3c2 4240 	ubfx	r2, r2, #17, #1
 8003542:	fb03 f300 	mul.w	r3, r3, r0
 8003546:	4422      	add	r2, r4
 8003548:	f812 2c14 	ldrb.w	r2, [r2, #-20]
 800354c:	fbb3 f3f2 	udiv	r3, r3, r2
 8003550:	e7db      	b.n	800350a <HAL_RCC_ClockConfig+0x116>
 8003552:	019e      	lsls	r6, r3, #6
 8003554:	d48d      	bmi.n	8003472 <HAL_RCC_ClockConfig+0x7e>
 8003556:	e765      	b.n	8003424 <HAL_RCC_ClockConfig+0x30>
 8003558:	2001      	movs	r0, #1
 800355a:	4770      	bx	lr
 800355c:	039f      	lsls	r7, r3, #14
 800355e:	d488      	bmi.n	8003472 <HAL_RCC_ClockConfig+0x7e>
 8003560:	e760      	b.n	8003424 <HAL_RCC_ClockConfig+0x30>
 8003562:	2003      	movs	r0, #3
 8003564:	e75f      	b.n	8003426 <HAL_RCC_ClockConfig+0x32>
 8003566:	4b09      	ldr	r3, [pc, #36]	; (800358c <HAL_RCC_ClockConfig+0x198>)
 8003568:	fb03 f300 	mul.w	r3, r3, r0
 800356c:	e7cd      	b.n	800350a <HAL_RCC_ClockConfig+0x116>
 800356e:	bf00      	nop
 8003570:	40022000 	.word	0x40022000
 8003574:	40021000 	.word	0x40021000
 8003578:	08007f9c 	.word	0x08007f9c
 800357c:	007a1200 	.word	0x007a1200
 8003580:	08007f84 	.word	0x08007f84
 8003584:	20000030 	.word	0x20000030
 8003588:	20000028 	.word	0x20000028
 800358c:	003d0900 	.word	0x003d0900

08003590 <HAL_RCC_GetPCLK1Freq>:
 8003590:	4b04      	ldr	r3, [pc, #16]	; (80035a4 <HAL_RCC_GetPCLK1Freq+0x14>)
 8003592:	4905      	ldr	r1, [pc, #20]	; (80035a8 <HAL_RCC_GetPCLK1Freq+0x18>)
 8003594:	685b      	ldr	r3, [r3, #4]
 8003596:	4a05      	ldr	r2, [pc, #20]	; (80035ac <HAL_RCC_GetPCLK1Freq+0x1c>)
 8003598:	f3c3 2302 	ubfx	r3, r3, #8, #3
 800359c:	5ccb      	ldrb	r3, [r1, r3]
 800359e:	6810      	ldr	r0, [r2, #0]
 80035a0:	40d8      	lsrs	r0, r3
 80035a2:	4770      	bx	lr
 80035a4:	40021000 	.word	0x40021000
 80035a8:	08007f94 	.word	0x08007f94
 80035ac:	20000028 	.word	0x20000028

080035b0 <HAL_RCC_GetPCLK2Freq>:
 80035b0:	4b04      	ldr	r3, [pc, #16]	; (80035c4 <HAL_RCC_GetPCLK2Freq+0x14>)
 80035b2:	4905      	ldr	r1, [pc, #20]	; (80035c8 <HAL_RCC_GetPCLK2Freq+0x18>)
 80035b4:	685b      	ldr	r3, [r3, #4]
 80035b6:	4a05      	ldr	r2, [pc, #20]	; (80035cc <HAL_RCC_GetPCLK2Freq+0x1c>)
 80035b8:	f3c3 23c2 	ubfx	r3, r3, #11, #3
 80035bc:	5ccb      	ldrb	r3, [r1, r3]
 80035be:	6810      	ldr	r0, [r2, #0]
 80035c0:	40d8      	lsrs	r0, r3
 80035c2:	4770      	bx	lr
 80035c4:	40021000 	.word	0x40021000
 80035c8:	08007f94 	.word	0x08007f94
 80035cc:	20000028 	.word	0x20000028

080035d0 <HAL_RCC_GetClockConfig>:
 80035d0:	220f      	movs	r2, #15
 80035d2:	4b0d      	ldr	r3, [pc, #52]	; (8003608 <HAL_RCC_GetClockConfig+0x38>)
 80035d4:	6002      	str	r2, [r0, #0]
 80035d6:	685a      	ldr	r2, [r3, #4]
 80035d8:	b410      	push	{r4}
 80035da:	f002 0203 	and.w	r2, r2, #3
 80035de:	6042      	str	r2, [r0, #4]
 80035e0:	685a      	ldr	r2, [r3, #4]
 80035e2:	4c0a      	ldr	r4, [pc, #40]	; (800360c <HAL_RCC_GetClockConfig+0x3c>)
 80035e4:	f002 02f0 	and.w	r2, r2, #240	; 0xf0
 80035e8:	6082      	str	r2, [r0, #8]
 80035ea:	685a      	ldr	r2, [r3, #4]
 80035ec:	f402 62e0 	and.w	r2, r2, #1792	; 0x700
 80035f0:	60c2      	str	r2, [r0, #12]
 80035f2:	685b      	ldr	r3, [r3, #4]
 80035f4:	08db      	lsrs	r3, r3, #3
 80035f6:	f403 63e0 	and.w	r3, r3, #1792	; 0x700
 80035fa:	6103      	str	r3, [r0, #16]
 80035fc:	6823      	ldr	r3, [r4, #0]
 80035fe:	bc10      	pop	{r4}
 8003600:	f003 0307 	and.w	r3, r3, #7
 8003604:	600b      	str	r3, [r1, #0]
 8003606:	4770      	bx	lr
 8003608:	40021000 	.word	0x40021000
 800360c:	40022000 	.word	0x40022000

08003610 <HAL_RCCEx_PeriphCLKConfig>:
 8003610:	e92d 41f0 	stmdb	sp!, {r4, r5, r6, r7, r8, lr}
 8003614:	4604      	mov	r4, r0
 8003616:	6800      	ldr	r0, [r0, #0]
 8003618:	b082      	sub	sp, #8
 800361a:	07c3      	lsls	r3, r0, #31
 800361c:	d52a      	bpl.n	8003674 <HAL_RCCEx_PeriphCLKConfig+0x64>
 800361e:	4b39      	ldr	r3, [pc, #228]	; (8003704 <HAL_RCCEx_PeriphCLKConfig+0xf4>)
 8003620:	69da      	ldr	r2, [r3, #28]
 8003622:	00d7      	lsls	r7, r2, #3
 8003624:	d53d      	bpl.n	80036a2 <HAL_RCCEx_PeriphCLKConfig+0x92>
 8003626:	4b38      	ldr	r3, [pc, #224]	; (8003708 <HAL_RCCEx_PeriphCLKConfig+0xf8>)
 8003628:	2500      	movs	r5, #0
 800362a:	681a      	ldr	r2, [r3, #0]
 800362c:	05d6      	lsls	r6, r2, #23
 800362e:	d546      	bpl.n	80036be <HAL_RCCEx_PeriphCLKConfig+0xae>
 8003630:	4e34      	ldr	r6, [pc, #208]	; (8003704 <HAL_RCCEx_PeriphCLKConfig+0xf4>)
 8003632:	6a33      	ldr	r3, [r6, #32]
 8003634:	f413 7340 	ands.w	r3, r3, #768	; 0x300
 8003638:	d00f      	beq.n	800365a <HAL_RCCEx_PeriphCLKConfig+0x4a>
 800363a:	6861      	ldr	r1, [r4, #4]
 800363c:	f401 7240 	and.w	r2, r1, #768	; 0x300
 8003640:	429a      	cmp	r2, r3
 8003642:	d00b      	beq.n	800365c <HAL_RCCEx_PeriphCLKConfig+0x4c>
 8003644:	2701      	movs	r7, #1
 8003646:	2000      	movs	r0, #0
 8003648:	6a33      	ldr	r3, [r6, #32]
 800364a:	4a30      	ldr	r2, [pc, #192]	; (800370c <HAL_RCCEx_PeriphCLKConfig+0xfc>)
 800364c:	f423 7140 	bic.w	r1, r3, #768	; 0x300
 8003650:	6017      	str	r7, [r2, #0]
 8003652:	6010      	str	r0, [r2, #0]
 8003654:	6231      	str	r1, [r6, #32]
 8003656:	07d9      	lsls	r1, r3, #31
 8003658:	d445      	bmi.n	80036e6 <HAL_RCCEx_PeriphCLKConfig+0xd6>
 800365a:	6861      	ldr	r1, [r4, #4]
 800365c:	4a29      	ldr	r2, [pc, #164]	; (8003704 <HAL_RCCEx_PeriphCLKConfig+0xf4>)
 800365e:	6a13      	ldr	r3, [r2, #32]
 8003660:	f423 7340 	bic.w	r3, r3, #768	; 0x300
 8003664:	430b      	orrs	r3, r1
 8003666:	6213      	str	r3, [r2, #32]
 8003668:	b11d      	cbz	r5, 8003672 <HAL_RCCEx_PeriphCLKConfig+0x62>
 800366a:	69d3      	ldr	r3, [r2, #28]
 800366c:	f023 5380 	bic.w	r3, r3, #268435456	; 0x10000000
 8003670:	61d3      	str	r3, [r2, #28]
 8003672:	6820      	ldr	r0, [r4, #0]
 8003674:	0783      	lsls	r3, r0, #30
 8003676:	d506      	bpl.n	8003686 <HAL_RCCEx_PeriphCLKConfig+0x76>
 8003678:	4922      	ldr	r1, [pc, #136]	; (8003704 <HAL_RCCEx_PeriphCLKConfig+0xf4>)
 800367a:	68a3      	ldr	r3, [r4, #8]
 800367c:	684a      	ldr	r2, [r1, #4]
 800367e:	f422 4240 	bic.w	r2, r2, #49152	; 0xc000
 8003682:	431a      	orrs	r2, r3
 8003684:	604a      	str	r2, [r1, #4]
 8003686:	f010 0010 	ands.w	r0, r0, #16
 800368a:	d007      	beq.n	800369c <HAL_RCCEx_PeriphCLKConfig+0x8c>
 800368c:	2000      	movs	r0, #0
 800368e:	4a1d      	ldr	r2, [pc, #116]	; (8003704 <HAL_RCCEx_PeriphCLKConfig+0xf4>)
 8003690:	68e1      	ldr	r1, [r4, #12]
 8003692:	6853      	ldr	r3, [r2, #4]
 8003694:	f423 0380 	bic.w	r3, r3, #4194304	; 0x400000
 8003698:	430b      	orrs	r3, r1
 800369a:	6053      	str	r3, [r2, #4]
 800369c:	b002      	add	sp, #8
 800369e:	e8bd 81f0 	ldmia.w	sp!, {r4, r5, r6, r7, r8, pc}
 80036a2:	69da      	ldr	r2, [r3, #28]
 80036a4:	2501      	movs	r5, #1
 80036a6:	f042 5280 	orr.w	r2, r2, #268435456	; 0x10000000
 80036aa:	61da      	str	r2, [r3, #28]
 80036ac:	69db      	ldr	r3, [r3, #28]
 80036ae:	f003 5380 	and.w	r3, r3, #268435456	; 0x10000000
 80036b2:	9301      	str	r3, [sp, #4]
 80036b4:	9b01      	ldr	r3, [sp, #4]
 80036b6:	4b14      	ldr	r3, [pc, #80]	; (8003708 <HAL_RCCEx_PeriphCLKConfig+0xf8>)
 80036b8:	681a      	ldr	r2, [r3, #0]
 80036ba:	05d6      	lsls	r6, r2, #23
 80036bc:	d4b8      	bmi.n	8003630 <HAL_RCCEx_PeriphCLKConfig+0x20>
 80036be:	681a      	ldr	r2, [r3, #0]
 80036c0:	461f      	mov	r7, r3
 80036c2:	f442 7280 	orr.w	r2, r2, #256	; 0x100
 80036c6:	601a      	str	r2, [r3, #0]
 80036c8:	f7fe fe24 	bl	8002314 <HAL_GetTick>
 80036cc:	4606      	mov	r6, r0
 80036ce:	683b      	ldr	r3, [r7, #0]
 80036d0:	05d8      	lsls	r0, r3, #23
 80036d2:	d4ad      	bmi.n	8003630 <HAL_RCCEx_PeriphCLKConfig+0x20>
 80036d4:	f7fe fe1e 	bl	8002314 <HAL_GetTick>
 80036d8:	1b83      	subs	r3, r0, r6
 80036da:	2b64      	cmp	r3, #100	; 0x64
 80036dc:	d9f7      	bls.n	80036ce <HAL_RCCEx_PeriphCLKConfig+0xbe>
 80036de:	2003      	movs	r0, #3
 80036e0:	b002      	add	sp, #8
 80036e2:	e8bd 81f0 	ldmia.w	sp!, {r4, r5, r6, r7, r8, pc}
 80036e6:	f7fe fe15 	bl	8002314 <HAL_GetTick>
 80036ea:	f241 3888 	movw	r8, #5000	; 0x1388
 80036ee:	4607      	mov	r7, r0
 80036f0:	e004      	b.n	80036fc <HAL_RCCEx_PeriphCLKConfig+0xec>
 80036f2:	f7fe fe0f 	bl	8002314 <HAL_GetTick>
 80036f6:	1bc0      	subs	r0, r0, r7
 80036f8:	4540      	cmp	r0, r8
 80036fa:	d8f0      	bhi.n	80036de <HAL_RCCEx_PeriphCLKConfig+0xce>
 80036fc:	6a33      	ldr	r3, [r6, #32]
 80036fe:	079a      	lsls	r2, r3, #30
 8003700:	d5f7      	bpl.n	80036f2 <HAL_RCCEx_PeriphCLKConfig+0xe2>
 8003702:	e7aa      	b.n	800365a <HAL_RCCEx_PeriphCLKConfig+0x4a>
 8003704:	40021000 	.word	0x40021000
 8003708:	40007000 	.word	0x40007000
 800370c:	42420440 	.word	0x42420440

08003710 <HAL_RCCEx_GetPeriphCLKFreq>:
 8003710:	b510      	push	{r4, lr}
 8003712:	4604      	mov	r4, r0
 8003714:	f240 2201 	movw	r2, #513	; 0x201
 8003718:	b086      	sub	sp, #24
 800371a:	4b34      	ldr	r3, [pc, #208]	; (80037ec <HAL_RCCEx_GetPeriphCLKFreq+0xdc>)
 800371c:	f10d 0c18 	add.w	ip, sp, #24
 8003720:	2c02      	cmp	r4, #2
 8003722:	f8ad 2004 	strh.w	r2, [sp, #4]
 8003726:	cb0f      	ldmia	r3, {r0, r1, r2, r3}
 8003728:	e90c 000f 	stmdb	ip, {r0, r1, r2, r3}
 800372c:	d006      	beq.n	800373c <HAL_RCCEx_GetPeriphCLKFreq+0x2c>
 800372e:	2c10      	cmp	r4, #16
 8003730:	d028      	beq.n	8003784 <HAL_RCCEx_GetPeriphCLKFreq+0x74>
 8003732:	2c01      	cmp	r4, #1
 8003734:	d00e      	beq.n	8003754 <HAL_RCCEx_GetPeriphCLKFreq+0x44>
 8003736:	2000      	movs	r0, #0
 8003738:	b006      	add	sp, #24
 800373a:	bd10      	pop	{r4, pc}
 800373c:	f7ff ff38 	bl	80035b0 <HAL_RCC_GetPCLK2Freq>
 8003740:	4b2b      	ldr	r3, [pc, #172]	; (80037f0 <HAL_RCCEx_GetPeriphCLKFreq+0xe0>)
 8003742:	685b      	ldr	r3, [r3, #4]
 8003744:	f3c3 3381 	ubfx	r3, r3, #14, #2
 8003748:	3301      	adds	r3, #1
 800374a:	005b      	lsls	r3, r3, #1
 800374c:	fbb0 f0f3 	udiv	r0, r0, r3
 8003750:	b006      	add	sp, #24
 8003752:	bd10      	pop	{r4, pc}
 8003754:	f240 3202 	movw	r2, #770	; 0x302
 8003758:	4925      	ldr	r1, [pc, #148]	; (80037f0 <HAL_RCCEx_GetPeriphCLKFreq+0xe0>)
 800375a:	6a0b      	ldr	r3, [r1, #32]
 800375c:	401a      	ands	r2, r3
 800375e:	f5b2 7f81 	cmp.w	r2, #258	; 0x102
 8003762:	d033      	beq.n	80037cc <HAL_RCCEx_GetPeriphCLKFreq+0xbc>
 8003764:	f403 7340 	and.w	r3, r3, #768	; 0x300
 8003768:	f5b3 7f00 	cmp.w	r3, #512	; 0x200
 800376c:	d031      	beq.n	80037d2 <HAL_RCCEx_GetPeriphCLKFreq+0xc2>
 800376e:	f5b3 7f40 	cmp.w	r3, #768	; 0x300
 8003772:	d1e0      	bne.n	8003736 <HAL_RCCEx_GetPeriphCLKFreq+0x26>
 8003774:	f24f 4324 	movw	r3, #62500	; 0xf424
 8003778:	6808      	ldr	r0, [r1, #0]
 800377a:	f410 3000 	ands.w	r0, r0, #131072	; 0x20000
 800377e:	bf18      	it	ne
 8003780:	4618      	movne	r0, r3
 8003782:	e7d9      	b.n	8003738 <HAL_RCCEx_GetPeriphCLKFreq+0x28>
 8003784:	4b1a      	ldr	r3, [pc, #104]	; (80037f0 <HAL_RCCEx_GetPeriphCLKFreq+0xe0>)
 8003786:	685a      	ldr	r2, [r3, #4]
 8003788:	6818      	ldr	r0, [r3, #0]
 800378a:	f010 7080 	ands.w	r0, r0, #16777216	; 0x1000000
 800378e:	d0d3      	beq.n	8003738 <HAL_RCCEx_GetPeriphCLKFreq+0x28>
 8003790:	f3c2 4183 	ubfx	r1, r2, #18, #4
 8003794:	a806      	add	r0, sp, #24
 8003796:	4401      	add	r1, r0
 8003798:	03d2      	lsls	r2, r2, #15
 800379a:	f811 0c10 	ldrb.w	r0, [r1, #-16]
 800379e:	d520      	bpl.n	80037e2 <HAL_RCCEx_GetPeriphCLKFreq+0xd2>
 80037a0:	685b      	ldr	r3, [r3, #4]
 80037a2:	a906      	add	r1, sp, #24
 80037a4:	f3c3 4340 	ubfx	r3, r3, #17, #1
 80037a8:	440b      	add	r3, r1
 80037aa:	4a12      	ldr	r2, [pc, #72]	; (80037f4 <HAL_RCCEx_GetPeriphCLKFreq+0xe4>)
 80037ac:	f813 3c14 	ldrb.w	r3, [r3, #-20]
 80037b0:	fbb2 f3f3 	udiv	r3, r2, r3
 80037b4:	fb00 f003 	mul.w	r0, r0, r3
 80037b8:	4b0d      	ldr	r3, [pc, #52]	; (80037f0 <HAL_RCCEx_GetPeriphCLKFreq+0xe0>)
 80037ba:	685b      	ldr	r3, [r3, #4]
 80037bc:	025b      	lsls	r3, r3, #9
 80037be:	d4bb      	bmi.n	8003738 <HAL_RCCEx_GetPeriphCLKFreq+0x28>
 80037c0:	4b0d      	ldr	r3, [pc, #52]	; (80037f8 <HAL_RCCEx_GetPeriphCLKFreq+0xe8>)
 80037c2:	0040      	lsls	r0, r0, #1
 80037c4:	fba3 3000 	umull	r3, r0, r3, r0
 80037c8:	0840      	lsrs	r0, r0, #1
 80037ca:	e7b5      	b.n	8003738 <HAL_RCCEx_GetPeriphCLKFreq+0x28>
 80037cc:	f44f 4000 	mov.w	r0, #32768	; 0x8000
 80037d0:	e7b2      	b.n	8003738 <HAL_RCCEx_GetPeriphCLKFreq+0x28>
 80037d2:	f649 4340 	movw	r3, #40000	; 0x9c40
 80037d6:	6a48      	ldr	r0, [r1, #36]	; 0x24
 80037d8:	f010 0002 	ands.w	r0, r0, #2
 80037dc:	bf18      	it	ne
 80037de:	4618      	movne	r0, r3
 80037e0:	e7aa      	b.n	8003738 <HAL_RCCEx_GetPeriphCLKFreq+0x28>
 80037e2:	4b06      	ldr	r3, [pc, #24]	; (80037fc <HAL_RCCEx_GetPeriphCLKFreq+0xec>)
 80037e4:	fb03 f000 	mul.w	r0, r3, r0
 80037e8:	e7e6      	b.n	80037b8 <HAL_RCCEx_GetPeriphCLKFreq+0xa8>
 80037ea:	bf00      	nop
 80037ec:	08007f9c 	.word	0x08007f9c
 80037f0:	40021000 	.word	0x40021000
 80037f4:	007a1200 	.word	0x007a1200
 80037f8:	aaaaaaab 	.word	0xaaaaaaab
 80037fc:	003d0900 	.word	0x003d0900

08003800 <HAL_TIM_Base_Init>:
 8003800:	2800      	cmp	r0, #0
 8003802:	d05d      	beq.n	80038c0 <HAL_TIM_Base_Init+0xc0>
 8003804:	b538      	push	{r3, r4, r5, lr}
 8003806:	f890 303d 	ldrb.w	r3, [r0, #61]	; 0x3d
 800380a:	4604      	mov	r4, r0
 800380c:	f003 02ff 	and.w	r2, r3, #255	; 0xff
 8003810:	2b00      	cmp	r3, #0
 8003812:	d03c      	beq.n	800388e <HAL_TIM_Base_Init+0x8e>
 8003814:	2302      	movs	r3, #2
 8003816:	6822      	ldr	r2, [r4, #0]
 8003818:	492a      	ldr	r1, [pc, #168]	; (80038c4 <HAL_TIM_Base_Init+0xc4>)
 800381a:	f884 303d 	strb.w	r3, [r4, #61]	; 0x3d
 800381e:	428a      	cmp	r2, r1
 8003820:	6813      	ldr	r3, [r2, #0]
 8003822:	d039      	beq.n	8003898 <HAL_TIM_Base_Init+0x98>
 8003824:	f1b2 4f80 	cmp.w	r2, #1073741824	; 0x40000000
 8003828:	d028      	beq.n	800387c <HAL_TIM_Base_Init+0x7c>
 800382a:	f5a1 3194 	sub.w	r1, r1, #75776	; 0x12800
 800382e:	428a      	cmp	r2, r1
 8003830:	d024      	beq.n	800387c <HAL_TIM_Base_Init+0x7c>
 8003832:	f501 6180 	add.w	r1, r1, #1024	; 0x400
 8003836:	428a      	cmp	r2, r1
 8003838:	d020      	beq.n	800387c <HAL_TIM_Base_Init+0x7c>
 800383a:	69a5      	ldr	r5, [r4, #24]
 800383c:	68e0      	ldr	r0, [r4, #12]
 800383e:	6861      	ldr	r1, [r4, #4]
 8003840:	f023 0380 	bic.w	r3, r3, #128	; 0x80
 8003844:	432b      	orrs	r3, r5
 8003846:	6013      	str	r3, [r2, #0]
 8003848:	62d0      	str	r0, [r2, #44]	; 0x2c
 800384a:	6291      	str	r1, [r2, #40]	; 0x28
 800384c:	2301      	movs	r3, #1
 800384e:	6153      	str	r3, [r2, #20]
 8003850:	f884 3046 	strb.w	r3, [r4, #70]	; 0x46
 8003854:	f884 303e 	strb.w	r3, [r4, #62]	; 0x3e
 8003858:	f884 303f 	strb.w	r3, [r4, #63]	; 0x3f
 800385c:	f884 3040 	strb.w	r3, [r4, #64]	; 0x40
 8003860:	f884 3041 	strb.w	r3, [r4, #65]	; 0x41
 8003864:	f884 3042 	strb.w	r3, [r4, #66]	; 0x42
 8003868:	f884 3043 	strb.w	r3, [r4, #67]	; 0x43
 800386c:	f884 3044 	strb.w	r3, [r4, #68]	; 0x44
 8003870:	f884 3045 	strb.w	r3, [r4, #69]	; 0x45
 8003874:	f884 303d 	strb.w	r3, [r4, #61]	; 0x3d
 8003878:	2000      	movs	r0, #0
 800387a:	bd38      	pop	{r3, r4, r5, pc}
 800387c:	68a1      	ldr	r1, [r4, #8]
 800387e:	f023 0370 	bic.w	r3, r3, #112	; 0x70
 8003882:	430b      	orrs	r3, r1
 8003884:	6921      	ldr	r1, [r4, #16]
 8003886:	f423 7340 	bic.w	r3, r3, #768	; 0x300
 800388a:	430b      	orrs	r3, r1
 800388c:	e7d5      	b.n	800383a <HAL_TIM_Base_Init+0x3a>
 800388e:	f880 203c 	strb.w	r2, [r0, #60]	; 0x3c
 8003892:	f7fe fb39 	bl	8001f08 <HAL_TIM_Base_MspInit>
 8003896:	e7bd      	b.n	8003814 <HAL_TIM_Base_Init+0x14>
 8003898:	68a1      	ldr	r1, [r4, #8]
 800389a:	f023 0370 	bic.w	r3, r3, #112	; 0x70
 800389e:	430b      	orrs	r3, r1
 80038a0:	6921      	ldr	r1, [r4, #16]
 80038a2:	f423 7340 	bic.w	r3, r3, #768	; 0x300
 80038a6:	430b      	orrs	r3, r1
 80038a8:	69a1      	ldr	r1, [r4, #24]
 80038aa:	f023 0380 	bic.w	r3, r3, #128	; 0x80
 80038ae:	430b      	orrs	r3, r1
 80038b0:	6013      	str	r3, [r2, #0]
 80038b2:	68e3      	ldr	r3, [r4, #12]
 80038b4:	62d3      	str	r3, [r2, #44]	; 0x2c
 80038b6:	6863      	ldr	r3, [r4, #4]
 80038b8:	6293      	str	r3, [r2, #40]	; 0x28
 80038ba:	6963      	ldr	r3, [r4, #20]
 80038bc:	6313      	str	r3, [r2, #48]	; 0x30
 80038be:	e7c5      	b.n	800384c <HAL_TIM_Base_Init+0x4c>
 80038c0:	2001      	movs	r0, #1
 80038c2:	4770      	bx	lr
 80038c4:	40012c00 	.word	0x40012c00

080038c8 <HAL_TIM_Base_Start_IT>:
 80038c8:	f890 303d 	ldrb.w	r3, [r0, #61]	; 0x3d
 80038cc:	2b01      	cmp	r3, #1
 80038ce:	d11f      	bne.n	8003910 <HAL_TIM_Base_Start_IT+0x48>
 80038d0:	2202      	movs	r2, #2
 80038d2:	6803      	ldr	r3, [r0, #0]
 80038d4:	f880 203d 	strb.w	r2, [r0, #61]	; 0x3d
 80038d8:	68da      	ldr	r2, [r3, #12]
 80038da:	490f      	ldr	r1, [pc, #60]	; (8003918 <HAL_TIM_Base_Start_IT+0x50>)
 80038dc:	f042 0201 	orr.w	r2, r2, #1
 80038e0:	428b      	cmp	r3, r1
 80038e2:	60da      	str	r2, [r3, #12]
 80038e4:	d009      	beq.n	80038fa <HAL_TIM_Base_Start_IT+0x32>
 80038e6:	f1b3 4f80 	cmp.w	r3, #1073741824	; 0x40000000
 80038ea:	d006      	beq.n	80038fa <HAL_TIM_Base_Start_IT+0x32>
 80038ec:	4a0b      	ldr	r2, [pc, #44]	; (800391c <HAL_TIM_Base_Start_IT+0x54>)
 80038ee:	4293      	cmp	r3, r2
 80038f0:	d003      	beq.n	80038fa <HAL_TIM_Base_Start_IT+0x32>
 80038f2:	f502 6280 	add.w	r2, r2, #1024	; 0x400
 80038f6:	4293      	cmp	r3, r2
 80038f8:	d104      	bne.n	8003904 <HAL_TIM_Base_Start_IT+0x3c>
 80038fa:	689a      	ldr	r2, [r3, #8]
 80038fc:	f002 0207 	and.w	r2, r2, #7
 8003900:	2a06      	cmp	r2, #6
 8003902:	d007      	beq.n	8003914 <HAL_TIM_Base_Start_IT+0x4c>
 8003904:	681a      	ldr	r2, [r3, #0]
 8003906:	2000      	movs	r0, #0
 8003908:	f042 0201 	orr.w	r2, r2, #1
 800390c:	601a      	str	r2, [r3, #0]
 800390e:	4770      	bx	lr
 8003910:	2001      	movs	r0, #1
 8003912:	4770      	bx	lr
 8003914:	2000      	movs	r0, #0
 8003916:	4770      	bx	lr
 8003918:	40012c00 	.word	0x40012c00
 800391c:	40000400 	.word	0x40000400

08003920 <HAL_TIM_PWM_MspInit>:
 8003920:	4770      	bx	lr
 8003922:	bf00      	nop

08003924 <HAL_TIM_PWM_Init>:
 8003924:	2800      	cmp	r0, #0
 8003926:	d05d      	beq.n	80039e4 <HAL_TIM_PWM_Init+0xc0>
 8003928:	b538      	push	{r3, r4, r5, lr}
 800392a:	f890 303d 	ldrb.w	r3, [r0, #61]	; 0x3d
 800392e:	4604      	mov	r4, r0
 8003930:	f003 02ff 	and.w	r2, r3, #255	; 0xff
 8003934:	2b00      	cmp	r3, #0
 8003936:	d03c      	beq.n	80039b2 <HAL_TIM_PWM_Init+0x8e>
 8003938:	2302      	movs	r3, #2
 800393a:	6822      	ldr	r2, [r4, #0]
 800393c:	492a      	ldr	r1, [pc, #168]	; (80039e8 <HAL_TIM_PWM_Init+0xc4>)
 800393e:	f884 303d 	strb.w	r3, [r4, #61]	; 0x3d
 8003942:	428a      	cmp	r2, r1
 8003944:	6813      	ldr	r3, [r2, #0]
 8003946:	d039      	beq.n	80039bc <HAL_TIM_PWM_Init+0x98>
 8003948:	f1b2 4f80 	cmp.w	r2, #1073741824	; 0x40000000
 800394c:	d028      	beq.n	80039a0 <HAL_TIM_PWM_Init+0x7c>
 800394e:	f5a1 3194 	sub.w	r1, r1, #75776	; 0x12800
 8003952:	428a      	cmp	r2, r1
 8003954:	d024      	beq.n	80039a0 <HAL_TIM_PWM_Init+0x7c>
 8003956:	f501 6180 	add.w	r1, r1, #1024	; 0x400
 800395a:	428a      	cmp	r2, r1
 800395c:	d020      	beq.n	80039a0 <HAL_TIM_PWM_Init+0x7c>
 800395e:	69a5      	ldr	r5, [r4, #24]
 8003960:	68e0      	ldr	r0, [r4, #12]
 8003962:	6861      	ldr	r1, [r4, #4]
 8003964:	f023 0380 	bic.w	r3, r3, #128	; 0x80
 8003968:	432b      	orrs	r3, r5
 800396a:	6013      	str	r3, [r2, #0]
 800396c:	62d0      	str	r0, [r2, #44]	; 0x2c
 800396e:	6291      	str	r1, [r2, #40]	; 0x28
 8003970:	2301      	movs	r3, #1
 8003972:	6153      	str	r3, [r2, #20]
 8003974:	f884 3046 	strb.w	r3, [r4, #70]	; 0x46
 8003978:	f884 303e 	strb.w	r3, [r4, #62]	; 0x3e
 800397c:	f884 303f 	strb.w	r3, [r4, #63]	; 0x3f
 8003980:	f884 3040 	strb.w	r3, [r4, #64]	; 0x40
 8003984:	f884 3041 	strb.w	r3, [r4, #65]	; 0x41
 8003988:	f884 3042 	strb.w	r3, [r4, #66]	; 0x42
 800398c:	f884 3043 	strb.w	r3, [r4, #67]	; 0x43
 8003990:	f884 3044 	strb.w	r3, [r4, #68]	; 0x44
 8003994:	f884 3045 	strb.w	r3, [r4, #69]	; 0x45
 8003998:	f884 303d 	strb.w	r3, [r4, #61]	; 0x3d
 800399c:	2000      	movs	r0, #0
 800399e:	bd38      	pop	{r3, r4, r5, pc}
 80039a0:	68a1      	ldr	r1, [r4, #8]
 80039a2:	f023 0370 	bic.w	r3, r3, #112	; 0x70
 80039a6:	430b      	orrs	r3, r1
 80039a8:	6921      	ldr	r1, [r4, #16]
 80039aa:	f423 7340 	bic.w	r3, r3, #768	; 0x300
 80039ae:	430b      	orrs	r3, r1
 80039b0:	e7d5      	b.n	800395e <HAL_TIM_PWM_Init+0x3a>
 80039b2:	f880 203c 	strb.w	r2, [r0, #60]	; 0x3c
 80039b6:	f7ff ffb3 	bl	8003920 <HAL_TIM_PWM_MspInit>
 80039ba:	e7bd      	b.n	8003938 <HAL_TIM_PWM_Init+0x14>
 80039bc:	68a1      	ldr	r1, [r4, #8]
 80039be:	f023 0370 	bic.w	r3, r3, #112	; 0x70
 80039c2:	430b      	orrs	r3, r1
 80039c4:	6921      	ldr	r1, [r4, #16]
 80039c6:	f423 7340 	bic.w	r3, r3, #768	; 0x300
 80039ca:	430b      	orrs	r3, r1
 80039cc:	69a1      	ldr	r1, [r4, #24]
 80039ce:	f023 0380 	bic.w	r3, r3, #128	; 0x80
 80039d2:	430b      	orrs	r3, r1
 80039d4:	6013      	str	r3, [r2, #0]
 80039d6:	68e3      	ldr	r3, [r4, #12]
 80039d8:	62d3      	str	r3, [r2, #44]	; 0x2c
 80039da:	6863      	ldr	r3, [r4, #4]
 80039dc:	6293      	str	r3, [r2, #40]	; 0x28
 80039de:	6963      	ldr	r3, [r4, #20]
 80039e0:	6313      	str	r3, [r2, #48]	; 0x30
 80039e2:	e7c5      	b.n	8003970 <HAL_TIM_PWM_Init+0x4c>
 80039e4:	2001      	movs	r0, #1
 80039e6:	4770      	bx	lr
 80039e8:	40012c00 	.word	0x40012c00

080039ec <HAL_TIM_PWM_Start>:
 80039ec:	bb31      	cbnz	r1, 8003a3c <HAL_TIM_PWM_Start+0x50>
 80039ee:	f890 303e 	ldrb.w	r3, [r0, #62]	; 0x3e
 80039f2:	2b01      	cmp	r3, #1
 80039f4:	d12e      	bne.n	8003a54 <HAL_TIM_PWM_Start+0x68>
 80039f6:	2302      	movs	r3, #2
 80039f8:	f880 303e 	strb.w	r3, [r0, #62]	; 0x3e
 80039fc:	2201      	movs	r2, #1
 80039fe:	6803      	ldr	r3, [r0, #0]
 8003a00:	f001 011f 	and.w	r1, r1, #31
 8003a04:	6a18      	ldr	r0, [r3, #32]
 8003a06:	fa02 f101 	lsl.w	r1, r2, r1
 8003a0a:	ea20 0001 	bic.w	r0, r0, r1
 8003a0e:	6218      	str	r0, [r3, #32]
 8003a10:	6a18      	ldr	r0, [r3, #32]
 8003a12:	4a1f      	ldr	r2, [pc, #124]	; (8003a90 <HAL_TIM_PWM_Start+0xa4>)
 8003a14:	4301      	orrs	r1, r0
 8003a16:	4293      	cmp	r3, r2
 8003a18:	6219      	str	r1, [r3, #32]
 8003a1a:	d01d      	beq.n	8003a58 <HAL_TIM_PWM_Start+0x6c>
 8003a1c:	f1b3 4f80 	cmp.w	r3, #1073741824	; 0x40000000
 8003a20:	d01e      	beq.n	8003a60 <HAL_TIM_PWM_Start+0x74>
 8003a22:	4a1c      	ldr	r2, [pc, #112]	; (8003a94 <HAL_TIM_PWM_Start+0xa8>)
 8003a24:	4293      	cmp	r3, r2
 8003a26:	d01b      	beq.n	8003a60 <HAL_TIM_PWM_Start+0x74>
 8003a28:	f502 6280 	add.w	r2, r2, #1024	; 0x400
 8003a2c:	4293      	cmp	r3, r2
 8003a2e:	d017      	beq.n	8003a60 <HAL_TIM_PWM_Start+0x74>
 8003a30:	681a      	ldr	r2, [r3, #0]
 8003a32:	2000      	movs	r0, #0
 8003a34:	f042 0201 	orr.w	r2, r2, #1
 8003a38:	601a      	str	r2, [r3, #0]
 8003a3a:	4770      	bx	lr
 8003a3c:	2904      	cmp	r1, #4
 8003a3e:	d016      	beq.n	8003a6e <HAL_TIM_PWM_Start+0x82>
 8003a40:	2908      	cmp	r1, #8
 8003a42:	d01c      	beq.n	8003a7e <HAL_TIM_PWM_Start+0x92>
 8003a44:	f890 3041 	ldrb.w	r3, [r0, #65]	; 0x41
 8003a48:	2b01      	cmp	r3, #1
 8003a4a:	d103      	bne.n	8003a54 <HAL_TIM_PWM_Start+0x68>
 8003a4c:	2302      	movs	r3, #2
 8003a4e:	f880 3041 	strb.w	r3, [r0, #65]	; 0x41
 8003a52:	e7d3      	b.n	80039fc <HAL_TIM_PWM_Start+0x10>
 8003a54:	2001      	movs	r0, #1
 8003a56:	4770      	bx	lr
 8003a58:	6c5a      	ldr	r2, [r3, #68]	; 0x44
 8003a5a:	f442 4200 	orr.w	r2, r2, #32768	; 0x8000
 8003a5e:	645a      	str	r2, [r3, #68]	; 0x44
 8003a60:	689a      	ldr	r2, [r3, #8]
 8003a62:	f002 0207 	and.w	r2, r2, #7
 8003a66:	2a06      	cmp	r2, #6
 8003a68:	d1e2      	bne.n	8003a30 <HAL_TIM_PWM_Start+0x44>
 8003a6a:	2000      	movs	r0, #0
 8003a6c:	4770      	bx	lr
 8003a6e:	f890 303f 	ldrb.w	r3, [r0, #63]	; 0x3f
 8003a72:	2b01      	cmp	r3, #1
 8003a74:	d1ee      	bne.n	8003a54 <HAL_TIM_PWM_Start+0x68>
 8003a76:	2302      	movs	r3, #2
 8003a78:	f880 303f 	strb.w	r3, [r0, #63]	; 0x3f
 8003a7c:	e7be      	b.n	80039fc <HAL_TIM_PWM_Start+0x10>
 8003a7e:	f890 3040 	ldrb.w	r3, [r0, #64]	; 0x40
 8003a82:	2b01      	cmp	r3, #1
 8003a84:	d1e6      	bne.n	8003a54 <HAL_TIM_PWM_Start+0x68>
 8003a86:	2302      	movs	r3, #2
 8003a88:	f880 3040 	strb.w	r3, [r0, #64]	; 0x40
 8003a8c:	e7b6      	b.n	80039fc <HAL_TIM_PWM_Start+0x10>
 8003a8e:	bf00      	nop
 8003a90:	40012c00 	.word	0x40012c00
 8003a94:	40000400 	.word	0x40000400

08003a98 <HAL_TIM_PWM_ConfigChannel>:
 8003a98:	f890 303c 	ldrb.w	r3, [r0, #60]	; 0x3c
 8003a9c:	2b01      	cmp	r3, #1
 8003a9e:	f000 80cb 	beq.w	8003c38 <HAL_TIM_PWM_ConfigChannel+0x1a0>
 8003aa2:	2301      	movs	r3, #1
 8003aa4:	b4f0      	push	{r4, r5, r6, r7}
 8003aa6:	f880 303c 	strb.w	r3, [r0, #60]	; 0x3c
 8003aaa:	2a0c      	cmp	r2, #12
 8003aac:	d831      	bhi.n	8003b12 <HAL_TIM_PWM_ConfigChannel+0x7a>
 8003aae:	e8df f002 	tbb	[pc, r2]
 8003ab2:	3007      	.short	0x3007
 8003ab4:	30663030 	.word	0x30663030
 8003ab8:	30953030 	.word	0x30953030
 8003abc:	3030      	.short	0x3030
 8003abe:	36          	.byte	0x36
 8003abf:	00          	.byte	0x00
 8003ac0:	6803      	ldr	r3, [r0, #0]
 8003ac2:	688f      	ldr	r7, [r1, #8]
 8003ac4:	6a1d      	ldr	r5, [r3, #32]
 8003ac6:	680e      	ldr	r6, [r1, #0]
 8003ac8:	f025 0501 	bic.w	r5, r5, #1
 8003acc:	621d      	str	r5, [r3, #32]
 8003ace:	6a1a      	ldr	r2, [r3, #32]
 8003ad0:	4d73      	ldr	r5, [pc, #460]	; (8003ca0 <HAL_TIM_PWM_ConfigChannel+0x208>)
 8003ad2:	f8d3 c004 	ldr.w	ip, [r3, #4]
 8003ad6:	699c      	ldr	r4, [r3, #24]
 8003ad8:	f022 0202 	bic.w	r2, r2, #2
 8003adc:	f024 0473 	bic.w	r4, r4, #115	; 0x73
 8003ae0:	42ab      	cmp	r3, r5
 8003ae2:	ea42 0207 	orr.w	r2, r2, r7
 8003ae6:	ea44 0406 	orr.w	r4, r4, r6
 8003aea:	f000 80a7 	beq.w	8003c3c <HAL_TIM_PWM_ConfigChannel+0x1a4>
 8003aee:	684d      	ldr	r5, [r1, #4]
 8003af0:	f8c3 c004 	str.w	ip, [r3, #4]
 8003af4:	619c      	str	r4, [r3, #24]
 8003af6:	635d      	str	r5, [r3, #52]	; 0x34
 8003af8:	621a      	str	r2, [r3, #32]
 8003afa:	699c      	ldr	r4, [r3, #24]
 8003afc:	690d      	ldr	r5, [r1, #16]
 8003afe:	f044 0408 	orr.w	r4, r4, #8
 8003b02:	619c      	str	r4, [r3, #24]
 8003b04:	6999      	ldr	r1, [r3, #24]
 8003b06:	f021 0104 	bic.w	r1, r1, #4
 8003b0a:	6199      	str	r1, [r3, #24]
 8003b0c:	699a      	ldr	r2, [r3, #24]
 8003b0e:	432a      	orrs	r2, r5
 8003b10:	619a      	str	r2, [r3, #24]
 8003b12:	2300      	movs	r3, #0
 8003b14:	f880 303c 	strb.w	r3, [r0, #60]	; 0x3c
 8003b18:	bcf0      	pop	{r4, r5, r6, r7}
 8003b1a:	4618      	mov	r0, r3
 8003b1c:	4770      	bx	lr
 8003b1e:	6803      	ldr	r3, [r0, #0]
 8003b20:	688f      	ldr	r7, [r1, #8]
 8003b22:	6a1d      	ldr	r5, [r3, #32]
 8003b24:	680e      	ldr	r6, [r1, #0]
 8003b26:	f425 5580 	bic.w	r5, r5, #4096	; 0x1000
 8003b2a:	621d      	str	r5, [r3, #32]
 8003b2c:	6a1a      	ldr	r2, [r3, #32]
 8003b2e:	4d5c      	ldr	r5, [pc, #368]	; (8003ca0 <HAL_TIM_PWM_ConfigChannel+0x208>)
 8003b30:	f8d3 c004 	ldr.w	ip, [r3, #4]
 8003b34:	69dc      	ldr	r4, [r3, #28]
 8003b36:	f422 5200 	bic.w	r2, r2, #8192	; 0x2000
 8003b3a:	f424 44e6 	bic.w	r4, r4, #29440	; 0x7300
 8003b3e:	42ab      	cmp	r3, r5
 8003b40:	ea42 3207 	orr.w	r2, r2, r7, lsl #12
 8003b44:	ea44 2406 	orr.w	r4, r4, r6, lsl #8
 8003b48:	f000 8095 	beq.w	8003c76 <HAL_TIM_PWM_ConfigChannel+0x1de>
 8003b4c:	684d      	ldr	r5, [r1, #4]
 8003b4e:	f8c3 c004 	str.w	ip, [r3, #4]
 8003b52:	61dc      	str	r4, [r3, #28]
 8003b54:	641d      	str	r5, [r3, #64]	; 0x40
 8003b56:	621a      	str	r2, [r3, #32]
 8003b58:	69dc      	ldr	r4, [r3, #28]
 8003b5a:	690d      	ldr	r5, [r1, #16]
 8003b5c:	f444 6400 	orr.w	r4, r4, #2048	; 0x800
 8003b60:	61dc      	str	r4, [r3, #28]
 8003b62:	69d9      	ldr	r1, [r3, #28]
 8003b64:	f421 6180 	bic.w	r1, r1, #1024	; 0x400
 8003b68:	61d9      	str	r1, [r3, #28]
 8003b6a:	69da      	ldr	r2, [r3, #28]
 8003b6c:	ea42 2205 	orr.w	r2, r2, r5, lsl #8
 8003b70:	61da      	str	r2, [r3, #28]
 8003b72:	2300      	movs	r3, #0
 8003b74:	f880 303c 	strb.w	r3, [r0, #60]	; 0x3c
 8003b78:	bcf0      	pop	{r4, r5, r6, r7}
 8003b7a:	4618      	mov	r0, r3
 8003b7c:	4770      	bx	lr
 8003b7e:	6803      	ldr	r3, [r0, #0]
 8003b80:	688f      	ldr	r7, [r1, #8]
 8003b82:	6a1d      	ldr	r5, [r3, #32]
 8003b84:	680e      	ldr	r6, [r1, #0]
 8003b86:	f025 0510 	bic.w	r5, r5, #16
 8003b8a:	621d      	str	r5, [r3, #32]
 8003b8c:	6a1a      	ldr	r2, [r3, #32]
 8003b8e:	4d44      	ldr	r5, [pc, #272]	; (8003ca0 <HAL_TIM_PWM_ConfigChannel+0x208>)
 8003b90:	f8d3 c004 	ldr.w	ip, [r3, #4]
 8003b94:	699c      	ldr	r4, [r3, #24]
 8003b96:	f022 0220 	bic.w	r2, r2, #32
 8003b9a:	f424 44e6 	bic.w	r4, r4, #29440	; 0x7300
 8003b9e:	42ab      	cmp	r3, r5
 8003ba0:	ea42 1207 	orr.w	r2, r2, r7, lsl #4
 8003ba4:	ea44 2406 	orr.w	r4, r4, r6, lsl #8
 8003ba8:	d056      	beq.n	8003c58 <HAL_TIM_PWM_ConfigChannel+0x1c0>
 8003baa:	684d      	ldr	r5, [r1, #4]
 8003bac:	f8c3 c004 	str.w	ip, [r3, #4]
 8003bb0:	619c      	str	r4, [r3, #24]
 8003bb2:	639d      	str	r5, [r3, #56]	; 0x38
 8003bb4:	621a      	str	r2, [r3, #32]
 8003bb6:	699c      	ldr	r4, [r3, #24]
 8003bb8:	690d      	ldr	r5, [r1, #16]
 8003bba:	f444 6400 	orr.w	r4, r4, #2048	; 0x800
 8003bbe:	619c      	str	r4, [r3, #24]
 8003bc0:	6999      	ldr	r1, [r3, #24]
 8003bc2:	f421 6180 	bic.w	r1, r1, #1024	; 0x400
 8003bc6:	6199      	str	r1, [r3, #24]
 8003bc8:	699a      	ldr	r2, [r3, #24]
 8003bca:	ea42 2205 	orr.w	r2, r2, r5, lsl #8
 8003bce:	619a      	str	r2, [r3, #24]
 8003bd0:	2300      	movs	r3, #0
 8003bd2:	f880 303c 	strb.w	r3, [r0, #60]	; 0x3c
 8003bd6:	bcf0      	pop	{r4, r5, r6, r7}
 8003bd8:	4618      	mov	r0, r3
 8003bda:	4770      	bx	lr
 8003bdc:	6803      	ldr	r3, [r0, #0]
 8003bde:	688f      	ldr	r7, [r1, #8]
 8003be0:	6a1d      	ldr	r5, [r3, #32]
 8003be2:	680e      	ldr	r6, [r1, #0]
 8003be4:	f425 7580 	bic.w	r5, r5, #256	; 0x100
 8003be8:	621d      	str	r5, [r3, #32]
 8003bea:	6a1a      	ldr	r2, [r3, #32]
 8003bec:	4d2c      	ldr	r5, [pc, #176]	; (8003ca0 <HAL_TIM_PWM_ConfigChannel+0x208>)
 8003bee:	f8d3 c004 	ldr.w	ip, [r3, #4]
 8003bf2:	69dc      	ldr	r4, [r3, #28]
 8003bf4:	f422 7200 	bic.w	r2, r2, #512	; 0x200
 8003bf8:	f024 0473 	bic.w	r4, r4, #115	; 0x73
 8003bfc:	42ab      	cmp	r3, r5
 8003bfe:	ea42 2207 	orr.w	r2, r2, r7, lsl #8
 8003c02:	ea44 0406 	orr.w	r4, r4, r6
 8003c06:	d03c      	beq.n	8003c82 <HAL_TIM_PWM_ConfigChannel+0x1ea>
 8003c08:	684d      	ldr	r5, [r1, #4]
 8003c0a:	f8c3 c004 	str.w	ip, [r3, #4]
 8003c0e:	61dc      	str	r4, [r3, #28]
 8003c10:	63dd      	str	r5, [r3, #60]	; 0x3c
 8003c12:	621a      	str	r2, [r3, #32]
 8003c14:	69dc      	ldr	r4, [r3, #28]
 8003c16:	690d      	ldr	r5, [r1, #16]
 8003c18:	f044 0408 	orr.w	r4, r4, #8
 8003c1c:	61dc      	str	r4, [r3, #28]
 8003c1e:	69d9      	ldr	r1, [r3, #28]
 8003c20:	f021 0104 	bic.w	r1, r1, #4
 8003c24:	61d9      	str	r1, [r3, #28]
 8003c26:	69da      	ldr	r2, [r3, #28]
 8003c28:	432a      	orrs	r2, r5
 8003c2a:	61da      	str	r2, [r3, #28]
 8003c2c:	2300      	movs	r3, #0
 8003c2e:	f880 303c 	strb.w	r3, [r0, #60]	; 0x3c
 8003c32:	bcf0      	pop	{r4, r5, r6, r7}
 8003c34:	4618      	mov	r0, r3
 8003c36:	4770      	bx	lr
 8003c38:	2002      	movs	r0, #2
 8003c3a:	4770      	bx	lr
 8003c3c:	68cf      	ldr	r7, [r1, #12]
 8003c3e:	f022 0208 	bic.w	r2, r2, #8
 8003c42:	f42c 7c40 	bic.w	ip, ip, #768	; 0x300
 8003c46:	433a      	orrs	r2, r7
 8003c48:	e9d1 5605 	ldrd	r5, r6, [r1, #20]
 8003c4c:	4335      	orrs	r5, r6
 8003c4e:	f022 0204 	bic.w	r2, r2, #4
 8003c52:	ea45 0c0c 	orr.w	ip, r5, ip
 8003c56:	e74a      	b.n	8003aee <HAL_TIM_PWM_ConfigChannel+0x56>
 8003c58:	68ce      	ldr	r6, [r1, #12]
 8003c5a:	f022 0280 	bic.w	r2, r2, #128	; 0x80
 8003c5e:	f42c 6c40 	bic.w	ip, ip, #3072	; 0xc00
 8003c62:	ea42 1206 	orr.w	r2, r2, r6, lsl #4
 8003c66:	e9d1 7505 	ldrd	r7, r5, [r1, #20]
 8003c6a:	433d      	orrs	r5, r7
 8003c6c:	f022 0240 	bic.w	r2, r2, #64	; 0x40
 8003c70:	ea4c 0c85 	orr.w	ip, ip, r5, lsl #2
 8003c74:	e799      	b.n	8003baa <HAL_TIM_PWM_ConfigChannel+0x112>
 8003c76:	694d      	ldr	r5, [r1, #20]
 8003c78:	f42c 4c80 	bic.w	ip, ip, #16384	; 0x4000
 8003c7c:	ea4c 1c85 	orr.w	ip, ip, r5, lsl #6
 8003c80:	e764      	b.n	8003b4c <HAL_TIM_PWM_ConfigChannel+0xb4>
 8003c82:	68ce      	ldr	r6, [r1, #12]
 8003c84:	f422 6200 	bic.w	r2, r2, #2048	; 0x800
 8003c88:	f42c 5c40 	bic.w	ip, ip, #12288	; 0x3000
 8003c8c:	ea42 2206 	orr.w	r2, r2, r6, lsl #8
 8003c90:	e9d1 7505 	ldrd	r7, r5, [r1, #20]
 8003c94:	433d      	orrs	r5, r7
 8003c96:	f422 6280 	bic.w	r2, r2, #1024	; 0x400
 8003c9a:	ea4c 1c05 	orr.w	ip, ip, r5, lsl #4
 8003c9e:	e7b3      	b.n	8003c08 <HAL_TIM_PWM_ConfigChannel+0x170>
 8003ca0:	40012c00 	.word	0x40012c00

08003ca4 <HAL_TIM_ConfigClockSource>:
 8003ca4:	f890 303c 	ldrb.w	r3, [r0, #60]	; 0x3c
 8003ca8:	2b01      	cmp	r3, #1
 8003caa:	d074      	beq.n	8003d96 <HAL_TIM_ConfigClockSource+0xf2>
 8003cac:	b4f0      	push	{r4, r5, r6, r7}
 8003cae:	2302      	movs	r3, #2
 8003cb0:	2401      	movs	r4, #1
 8003cb2:	6802      	ldr	r2, [r0, #0]
 8003cb4:	f880 403c 	strb.w	r4, [r0, #60]	; 0x3c
 8003cb8:	f880 303d 	strb.w	r3, [r0, #61]	; 0x3d
 8003cbc:	6894      	ldr	r4, [r2, #8]
 8003cbe:	680b      	ldr	r3, [r1, #0]
 8003cc0:	f424 447f 	bic.w	r4, r4, #65280	; 0xff00
 8003cc4:	f024 0477 	bic.w	r4, r4, #119	; 0x77
 8003cc8:	2b60      	cmp	r3, #96	; 0x60
 8003cca:	6094      	str	r4, [r2, #8]
 8003ccc:	d065      	beq.n	8003d9a <HAL_TIM_ConfigClockSource+0xf6>
 8003cce:	d831      	bhi.n	8003d34 <HAL_TIM_ConfigClockSource+0x90>
 8003cd0:	2b40      	cmp	r3, #64	; 0x40
 8003cd2:	d048      	beq.n	8003d66 <HAL_TIM_ConfigClockSource+0xc2>
 8003cd4:	d921      	bls.n	8003d1a <HAL_TIM_ConfigClockSource+0x76>
 8003cd6:	2b50      	cmp	r3, #80	; 0x50
 8003cd8:	d116      	bne.n	8003d08 <HAL_TIM_ConfigClockSource+0x64>
 8003cda:	6a15      	ldr	r5, [r2, #32]
 8003cdc:	6a16      	ldr	r6, [r2, #32]
 8003cde:	684c      	ldr	r4, [r1, #4]
 8003ce0:	f026 0601 	bic.w	r6, r6, #1
 8003ce4:	68cf      	ldr	r7, [r1, #12]
 8003ce6:	6216      	str	r6, [r2, #32]
 8003ce8:	6993      	ldr	r3, [r2, #24]
 8003cea:	f025 010a 	bic.w	r1, r5, #10
 8003cee:	f023 03f0 	bic.w	r3, r3, #240	; 0xf0
 8003cf2:	ea43 1307 	orr.w	r3, r3, r7, lsl #4
 8003cf6:	4321      	orrs	r1, r4
 8003cf8:	6193      	str	r3, [r2, #24]
 8003cfa:	6211      	str	r1, [r2, #32]
 8003cfc:	6893      	ldr	r3, [r2, #8]
 8003cfe:	f023 0370 	bic.w	r3, r3, #112	; 0x70
 8003d02:	f043 0357 	orr.w	r3, r3, #87	; 0x57
 8003d06:	6093      	str	r3, [r2, #8]
 8003d08:	2300      	movs	r3, #0
 8003d0a:	2201      	movs	r2, #1
 8003d0c:	f880 303c 	strb.w	r3, [r0, #60]	; 0x3c
 8003d10:	f880 203d 	strb.w	r2, [r0, #61]	; 0x3d
 8003d14:	bcf0      	pop	{r4, r5, r6, r7}
 8003d16:	4618      	mov	r0, r3
 8003d18:	4770      	bx	lr
 8003d1a:	2b20      	cmp	r3, #32
 8003d1c:	d002      	beq.n	8003d24 <HAL_TIM_ConfigClockSource+0x80>
 8003d1e:	d91e      	bls.n	8003d5e <HAL_TIM_ConfigClockSource+0xba>
 8003d20:	2b30      	cmp	r3, #48	; 0x30
 8003d22:	d1f1      	bne.n	8003d08 <HAL_TIM_ConfigClockSource+0x64>
 8003d24:	6891      	ldr	r1, [r2, #8]
 8003d26:	f021 0170 	bic.w	r1, r1, #112	; 0x70
 8003d2a:	430b      	orrs	r3, r1
 8003d2c:	f043 0307 	orr.w	r3, r3, #7
 8003d30:	6093      	str	r3, [r2, #8]
 8003d32:	e7e9      	b.n	8003d08 <HAL_TIM_ConfigClockSource+0x64>
 8003d34:	2b70      	cmp	r3, #112	; 0x70
 8003d36:	d049      	beq.n	8003dcc <HAL_TIM_ConfigClockSource+0x128>
 8003d38:	f5b3 5f00 	cmp.w	r3, #8192	; 0x2000
 8003d3c:	d1e4      	bne.n	8003d08 <HAL_TIM_ConfigClockSource+0x64>
 8003d3e:	e9d1 5301 	ldrd	r5, r3, [r1, #4]
 8003d42:	68cc      	ldr	r4, [r1, #12]
 8003d44:	6891      	ldr	r1, [r2, #8]
 8003d46:	432b      	orrs	r3, r5
 8003d48:	ea43 2304 	orr.w	r3, r3, r4, lsl #8
 8003d4c:	f421 417f 	bic.w	r1, r1, #65280	; 0xff00
 8003d50:	430b      	orrs	r3, r1
 8003d52:	6093      	str	r3, [r2, #8]
 8003d54:	6893      	ldr	r3, [r2, #8]
 8003d56:	f443 4380 	orr.w	r3, r3, #16384	; 0x4000
 8003d5a:	6093      	str	r3, [r2, #8]
 8003d5c:	e7d4      	b.n	8003d08 <HAL_TIM_ConfigClockSource+0x64>
 8003d5e:	f033 0110 	bics.w	r1, r3, #16
 8003d62:	d1d1      	bne.n	8003d08 <HAL_TIM_ConfigClockSource+0x64>
 8003d64:	e7de      	b.n	8003d24 <HAL_TIM_ConfigClockSource+0x80>
 8003d66:	6a15      	ldr	r5, [r2, #32]
 8003d68:	6a16      	ldr	r6, [r2, #32]
 8003d6a:	684c      	ldr	r4, [r1, #4]
 8003d6c:	f026 0601 	bic.w	r6, r6, #1
 8003d70:	68cf      	ldr	r7, [r1, #12]
 8003d72:	6216      	str	r6, [r2, #32]
 8003d74:	6993      	ldr	r3, [r2, #24]
 8003d76:	f025 010a 	bic.w	r1, r5, #10
 8003d7a:	f023 03f0 	bic.w	r3, r3, #240	; 0xf0
 8003d7e:	ea43 1307 	orr.w	r3, r3, r7, lsl #4
 8003d82:	4321      	orrs	r1, r4
 8003d84:	6193      	str	r3, [r2, #24]
 8003d86:	6211      	str	r1, [r2, #32]
 8003d88:	6893      	ldr	r3, [r2, #8]
 8003d8a:	f023 0370 	bic.w	r3, r3, #112	; 0x70
 8003d8e:	f043 0347 	orr.w	r3, r3, #71	; 0x47
 8003d92:	6093      	str	r3, [r2, #8]
 8003d94:	e7b8      	b.n	8003d08 <HAL_TIM_ConfigClockSource+0x64>
 8003d96:	2002      	movs	r0, #2
 8003d98:	4770      	bx	lr
 8003d9a:	6a14      	ldr	r4, [r2, #32]
 8003d9c:	684d      	ldr	r5, [r1, #4]
 8003d9e:	f024 0410 	bic.w	r4, r4, #16
 8003da2:	68ce      	ldr	r6, [r1, #12]
 8003da4:	6214      	str	r4, [r2, #32]
 8003da6:	6991      	ldr	r1, [r2, #24]
 8003da8:	6a13      	ldr	r3, [r2, #32]
 8003daa:	f421 4170 	bic.w	r1, r1, #61440	; 0xf000
 8003dae:	f023 03a0 	bic.w	r3, r3, #160	; 0xa0
 8003db2:	ea43 1305 	orr.w	r3, r3, r5, lsl #4
 8003db6:	ea41 3106 	orr.w	r1, r1, r6, lsl #12
 8003dba:	6191      	str	r1, [r2, #24]
 8003dbc:	6213      	str	r3, [r2, #32]
 8003dbe:	6893      	ldr	r3, [r2, #8]
 8003dc0:	f023 0370 	bic.w	r3, r3, #112	; 0x70
 8003dc4:	f043 0367 	orr.w	r3, r3, #103	; 0x67
 8003dc8:	6093      	str	r3, [r2, #8]
 8003dca:	e79d      	b.n	8003d08 <HAL_TIM_ConfigClockSource+0x64>
 8003dcc:	68cc      	ldr	r4, [r1, #12]
 8003dce:	e9d1 5301 	ldrd	r5, r3, [r1, #4]
 8003dd2:	6891      	ldr	r1, [r2, #8]
 8003dd4:	432b      	orrs	r3, r5
 8003dd6:	ea43 2304 	orr.w	r3, r3, r4, lsl #8
 8003dda:	f421 417f 	bic.w	r1, r1, #65280	; 0xff00
 8003dde:	430b      	orrs	r3, r1
 8003de0:	6093      	str	r3, [r2, #8]
 8003de2:	6893      	ldr	r3, [r2, #8]
 8003de4:	f043 0377 	orr.w	r3, r3, #119	; 0x77
 8003de8:	6093      	str	r3, [r2, #8]
 8003dea:	e78d      	b.n	8003d08 <HAL_TIM_ConfigClockSource+0x64>

08003dec <HAL_TIM_OC_DelayElapsedCallback>:
 8003dec:	4770      	bx	lr
 8003dee:	bf00      	nop

08003df0 <HAL_TIM_IC_CaptureCallback>:
 8003df0:	4770      	bx	lr
 8003df2:	bf00      	nop

08003df4 <HAL_TIM_PWM_PulseFinishedCallback>:
 8003df4:	4770      	bx	lr
 8003df6:	bf00      	nop

08003df8 <HAL_TIM_TriggerCallback>:
 8003df8:	4770      	bx	lr
 8003dfa:	bf00      	nop

08003dfc <HAL_TIM_IRQHandler>:
 8003dfc:	6803      	ldr	r3, [r0, #0]
 8003dfe:	b510      	push	{r4, lr}
 8003e00:	691a      	ldr	r2, [r3, #16]
 8003e02:	4604      	mov	r4, r0
 8003e04:	0791      	lsls	r1, r2, #30
 8003e06:	d502      	bpl.n	8003e0e <HAL_TIM_IRQHandler+0x12>
 8003e08:	68da      	ldr	r2, [r3, #12]
 8003e0a:	0792      	lsls	r2, r2, #30
 8003e0c:	d45f      	bmi.n	8003ece <HAL_TIM_IRQHandler+0xd2>
 8003e0e:	691a      	ldr	r2, [r3, #16]
 8003e10:	0750      	lsls	r0, r2, #29
 8003e12:	d502      	bpl.n	8003e1a <HAL_TIM_IRQHandler+0x1e>
 8003e14:	68da      	ldr	r2, [r3, #12]
 8003e16:	0751      	lsls	r1, r2, #29
 8003e18:	d446      	bmi.n	8003ea8 <HAL_TIM_IRQHandler+0xac>
 8003e1a:	691a      	ldr	r2, [r3, #16]
 8003e1c:	0712      	lsls	r2, r2, #28
 8003e1e:	d502      	bpl.n	8003e26 <HAL_TIM_IRQHandler+0x2a>
 8003e20:	68da      	ldr	r2, [r3, #12]
 8003e22:	0710      	lsls	r0, r2, #28
 8003e24:	d42e      	bmi.n	8003e84 <HAL_TIM_IRQHandler+0x88>
 8003e26:	691a      	ldr	r2, [r3, #16]
 8003e28:	06d2      	lsls	r2, r2, #27
 8003e2a:	d502      	bpl.n	8003e32 <HAL_TIM_IRQHandler+0x36>
 8003e2c:	68da      	ldr	r2, [r3, #12]
 8003e2e:	06d0      	lsls	r0, r2, #27
 8003e30:	d418      	bmi.n	8003e64 <HAL_TIM_IRQHandler+0x68>
 8003e32:	691a      	ldr	r2, [r3, #16]
 8003e34:	07d1      	lsls	r1, r2, #31
 8003e36:	d502      	bpl.n	8003e3e <HAL_TIM_IRQHandler+0x42>
 8003e38:	68da      	ldr	r2, [r3, #12]
 8003e3a:	07d2      	lsls	r2, r2, #31
 8003e3c:	d45d      	bmi.n	8003efa <HAL_TIM_IRQHandler+0xfe>
 8003e3e:	691a      	ldr	r2, [r3, #16]
 8003e40:	0610      	lsls	r0, r2, #24
 8003e42:	d502      	bpl.n	8003e4a <HAL_TIM_IRQHandler+0x4e>
 8003e44:	68da      	ldr	r2, [r3, #12]
 8003e46:	0611      	lsls	r1, r2, #24
 8003e48:	d45f      	bmi.n	8003f0a <HAL_TIM_IRQHandler+0x10e>
 8003e4a:	691a      	ldr	r2, [r3, #16]
 8003e4c:	0652      	lsls	r2, r2, #25
 8003e4e:	d502      	bpl.n	8003e56 <HAL_TIM_IRQHandler+0x5a>
 8003e50:	68da      	ldr	r2, [r3, #12]
 8003e52:	0650      	lsls	r0, r2, #25
 8003e54:	d461      	bmi.n	8003f1a <HAL_TIM_IRQHandler+0x11e>
 8003e56:	691a      	ldr	r2, [r3, #16]
 8003e58:	0691      	lsls	r1, r2, #26
 8003e5a:	d502      	bpl.n	8003e62 <HAL_TIM_IRQHandler+0x66>
 8003e5c:	68da      	ldr	r2, [r3, #12]
 8003e5e:	0692      	lsls	r2, r2, #26
 8003e60:	d443      	bmi.n	8003eea <HAL_TIM_IRQHandler+0xee>
 8003e62:	bd10      	pop	{r4, pc}
 8003e64:	f06f 0110 	mvn.w	r1, #16
 8003e68:	2208      	movs	r2, #8
 8003e6a:	6119      	str	r1, [r3, #16]
 8003e6c:	7722      	strb	r2, [r4, #28]
 8003e6e:	69db      	ldr	r3, [r3, #28]
 8003e70:	4620      	mov	r0, r4
 8003e72:	f413 7f40 	tst.w	r3, #768	; 0x300
 8003e76:	d064      	beq.n	8003f42 <HAL_TIM_IRQHandler+0x146>
 8003e78:	f7ff ffba 	bl	8003df0 <HAL_TIM_IC_CaptureCallback>
 8003e7c:	2200      	movs	r2, #0
 8003e7e:	6823      	ldr	r3, [r4, #0]
 8003e80:	7722      	strb	r2, [r4, #28]
 8003e82:	e7d6      	b.n	8003e32 <HAL_TIM_IRQHandler+0x36>
 8003e84:	f06f 0108 	mvn.w	r1, #8
 8003e88:	2204      	movs	r2, #4
 8003e8a:	6119      	str	r1, [r3, #16]
 8003e8c:	7722      	strb	r2, [r4, #28]
 8003e8e:	69db      	ldr	r3, [r3, #28]
 8003e90:	4620      	mov	r0, r4
 8003e92:	0799      	lsls	r1, r3, #30
 8003e94:	d152      	bne.n	8003f3c <HAL_TIM_IRQHandler+0x140>
 8003e96:	f7ff ffa9 	bl	8003dec <HAL_TIM_OC_DelayElapsedCallback>
 8003e9a:	4620      	mov	r0, r4
 8003e9c:	f7ff ffaa 	bl	8003df4 <HAL_TIM_PWM_PulseFinishedCallback>
 8003ea0:	2200      	movs	r2, #0
 8003ea2:	6823      	ldr	r3, [r4, #0]
 8003ea4:	7722      	strb	r2, [r4, #28]
 8003ea6:	e7be      	b.n	8003e26 <HAL_TIM_IRQHandler+0x2a>
 8003ea8:	f06f 0104 	mvn.w	r1, #4
 8003eac:	2202      	movs	r2, #2
 8003eae:	6119      	str	r1, [r3, #16]
 8003eb0:	7722      	strb	r2, [r4, #28]
 8003eb2:	699b      	ldr	r3, [r3, #24]
 8003eb4:	4620      	mov	r0, r4
 8003eb6:	f413 7f40 	tst.w	r3, #768	; 0x300
 8003eba:	d13c      	bne.n	8003f36 <HAL_TIM_IRQHandler+0x13a>
 8003ebc:	f7ff ff96 	bl	8003dec <HAL_TIM_OC_DelayElapsedCallback>
 8003ec0:	4620      	mov	r0, r4
 8003ec2:	f7ff ff97 	bl	8003df4 <HAL_TIM_PWM_PulseFinishedCallback>
 8003ec6:	2200      	movs	r2, #0
 8003ec8:	6823      	ldr	r3, [r4, #0]
 8003eca:	7722      	strb	r2, [r4, #28]
 8003ecc:	e7a5      	b.n	8003e1a <HAL_TIM_IRQHandler+0x1e>
 8003ece:	f06f 0102 	mvn.w	r1, #2
 8003ed2:	2201      	movs	r2, #1
 8003ed4:	6119      	str	r1, [r3, #16]
 8003ed6:	7702      	strb	r2, [r0, #28]
 8003ed8:	699b      	ldr	r3, [r3, #24]
 8003eda:	079b      	lsls	r3, r3, #30
 8003edc:	d025      	beq.n	8003f2a <HAL_TIM_IRQHandler+0x12e>
 8003ede:	f7ff ff87 	bl	8003df0 <HAL_TIM_IC_CaptureCallback>
 8003ee2:	2200      	movs	r2, #0
 8003ee4:	6823      	ldr	r3, [r4, #0]
 8003ee6:	7722      	strb	r2, [r4, #28]
 8003ee8:	e791      	b.n	8003e0e <HAL_TIM_IRQHandler+0x12>
 8003eea:	f06f 0220 	mvn.w	r2, #32
 8003eee:	4620      	mov	r0, r4
 8003ef0:	e8bd 4010 	ldmia.w	sp!, {r4, lr}
 8003ef4:	611a      	str	r2, [r3, #16]
 8003ef6:	f000 b85d 	b.w	8003fb4 <HAL_TIMEx_CommutCallback>
 8003efa:	f06f 0201 	mvn.w	r2, #1
 8003efe:	4620      	mov	r0, r4
 8003f00:	611a      	str	r2, [r3, #16]
 8003f02:	f7fd ff39 	bl	8001d78 <HAL_TIM_PeriodElapsedCallback>
 8003f06:	6823      	ldr	r3, [r4, #0]
 8003f08:	e799      	b.n	8003e3e <HAL_TIM_IRQHandler+0x42>
 8003f0a:	f06f 0280 	mvn.w	r2, #128	; 0x80
 8003f0e:	4620      	mov	r0, r4
 8003f10:	611a      	str	r2, [r3, #16]
 8003f12:	f000 f851 	bl	8003fb8 <HAL_TIMEx_BreakCallback>
 8003f16:	6823      	ldr	r3, [r4, #0]
 8003f18:	e797      	b.n	8003e4a <HAL_TIM_IRQHandler+0x4e>
 8003f1a:	f06f 0240 	mvn.w	r2, #64	; 0x40
 8003f1e:	4620      	mov	r0, r4
 8003f20:	611a      	str	r2, [r3, #16]
 8003f22:	f7ff ff69 	bl	8003df8 <HAL_TIM_TriggerCallback>
 8003f26:	6823      	ldr	r3, [r4, #0]
 8003f28:	e795      	b.n	8003e56 <HAL_TIM_IRQHandler+0x5a>
 8003f2a:	f7ff ff5f 	bl	8003dec <HAL_TIM_OC_DelayElapsedCallback>
 8003f2e:	4620      	mov	r0, r4
 8003f30:	f7ff ff60 	bl	8003df4 <HAL_TIM_PWM_PulseFinishedCallback>
 8003f34:	e7d5      	b.n	8003ee2 <HAL_TIM_IRQHandler+0xe6>
 8003f36:	f7ff ff5b 	bl	8003df0 <HAL_TIM_IC_CaptureCallback>
 8003f3a:	e7c4      	b.n	8003ec6 <HAL_TIM_IRQHandler+0xca>
 8003f3c:	f7ff ff58 	bl	8003df0 <HAL_TIM_IC_CaptureCallback>
 8003f40:	e7ae      	b.n	8003ea0 <HAL_TIM_IRQHandler+0xa4>
 8003f42:	f7ff ff53 	bl	8003dec <HAL_TIM_OC_DelayElapsedCallback>
 8003f46:	4620      	mov	r0, r4
 8003f48:	f7ff ff54 	bl	8003df4 <HAL_TIM_PWM_PulseFinishedCallback>
 8003f4c:	e796      	b.n	8003e7c <HAL_TIM_IRQHandler+0x80>
 8003f4e:	bf00      	nop

08003f50 <HAL_TIMEx_MasterConfigSynchronization>:
 8003f50:	f890 303c 	ldrb.w	r3, [r0, #60]	; 0x3c
 8003f54:	2b01      	cmp	r3, #1
 8003f56:	d026      	beq.n	8003fa6 <HAL_TIMEx_MasterConfigSynchronization+0x56>
 8003f58:	2202      	movs	r2, #2
 8003f5a:	6803      	ldr	r3, [r0, #0]
 8003f5c:	b430      	push	{r4, r5}
 8003f5e:	f880 203d 	strb.w	r2, [r0, #61]	; 0x3d
 8003f62:	685a      	ldr	r2, [r3, #4]
 8003f64:	680c      	ldr	r4, [r1, #0]
 8003f66:	4d11      	ldr	r5, [pc, #68]	; (8003fac <HAL_TIMEx_MasterConfigSynchronization+0x5c>)
 8003f68:	f022 0270 	bic.w	r2, r2, #112	; 0x70
 8003f6c:	4322      	orrs	r2, r4
 8003f6e:	42ab      	cmp	r3, r5
 8003f70:	689c      	ldr	r4, [r3, #8]
 8003f72:	605a      	str	r2, [r3, #4]
 8003f74:	d009      	beq.n	8003f8a <HAL_TIMEx_MasterConfigSynchronization+0x3a>
 8003f76:	f1b3 4f80 	cmp.w	r3, #1073741824	; 0x40000000
 8003f7a:	d006      	beq.n	8003f8a <HAL_TIMEx_MasterConfigSynchronization+0x3a>
 8003f7c:	4a0c      	ldr	r2, [pc, #48]	; (8003fb0 <HAL_TIMEx_MasterConfigSynchronization+0x60>)
 8003f7e:	4293      	cmp	r3, r2
 8003f80:	d003      	beq.n	8003f8a <HAL_TIMEx_MasterConfigSynchronization+0x3a>
 8003f82:	f502 6280 	add.w	r2, r2, #1024	; 0x400
 8003f86:	4293      	cmp	r3, r2
 8003f88:	d104      	bne.n	8003f94 <HAL_TIMEx_MasterConfigSynchronization+0x44>
 8003f8a:	684a      	ldr	r2, [r1, #4]
 8003f8c:	f024 0480 	bic.w	r4, r4, #128	; 0x80
 8003f90:	4314      	orrs	r4, r2
 8003f92:	609c      	str	r4, [r3, #8]
 8003f94:	2300      	movs	r3, #0
 8003f96:	2201      	movs	r2, #1
 8003f98:	f880 303c 	strb.w	r3, [r0, #60]	; 0x3c
 8003f9c:	f880 203d 	strb.w	r2, [r0, #61]	; 0x3d
 8003fa0:	bc30      	pop	{r4, r5}
 8003fa2:	4618      	mov	r0, r3
 8003fa4:	4770      	bx	lr
 8003fa6:	2002      	movs	r0, #2
 8003fa8:	4770      	bx	lr
 8003faa:	bf00      	nop
 8003fac:	40012c00 	.word	0x40012c00
 8003fb0:	40000400 	.word	0x40000400

08003fb4 <HAL_TIMEx_CommutCallback>:
 8003fb4:	4770      	bx	lr
 8003fb6:	bf00      	nop

08003fb8 <HAL_TIMEx_BreakCallback>:
 8003fb8:	4770      	bx	lr
 8003fba:	bf00      	nop

08003fbc <HAL_UART_Init>:
 8003fbc:	2800      	cmp	r0, #0
 8003fbe:	d061      	beq.n	8004084 <HAL_UART_Init+0xc8>
 8003fc0:	b570      	push	{r4, r5, r6, lr}
 8003fc2:	f890 303d 	ldrb.w	r3, [r0, #61]	; 0x3d
 8003fc6:	4604      	mov	r4, r0
 8003fc8:	f003 02ff 	and.w	r2, r3, #255	; 0xff
 8003fcc:	2b00      	cmp	r3, #0
 8003fce:	d051      	beq.n	8004074 <HAL_UART_Init+0xb8>
 8003fd0:	2224      	movs	r2, #36	; 0x24
 8003fd2:	6823      	ldr	r3, [r4, #0]
 8003fd4:	f884 203d 	strb.w	r2, [r4, #61]	; 0x3d
 8003fd8:	68da      	ldr	r2, [r3, #12]
 8003fda:	68e0      	ldr	r0, [r4, #12]
 8003fdc:	f422 5200 	bic.w	r2, r2, #8192	; 0x2000
 8003fe0:	60da      	str	r2, [r3, #12]
 8003fe2:	6919      	ldr	r1, [r3, #16]
 8003fe4:	68a2      	ldr	r2, [r4, #8]
 8003fe6:	f421 5140 	bic.w	r1, r1, #12288	; 0x3000
 8003fea:	4301      	orrs	r1, r0
 8003fec:	6119      	str	r1, [r3, #16]
 8003fee:	68d9      	ldr	r1, [r3, #12]
 8003ff0:	e9d4 5004 	ldrd	r5, r0, [r4, #16]
 8003ff4:	f421 51b0 	bic.w	r1, r1, #5632	; 0x1600
 8003ff8:	432a      	orrs	r2, r5
 8003ffa:	f021 010c 	bic.w	r1, r1, #12
 8003ffe:	4302      	orrs	r2, r0
 8004000:	430a      	orrs	r2, r1
 8004002:	60da      	str	r2, [r3, #12]
 8004004:	695a      	ldr	r2, [r3, #20]
 8004006:	69a0      	ldr	r0, [r4, #24]
 8004008:	491f      	ldr	r1, [pc, #124]	; (8004088 <HAL_UART_Init+0xcc>)
 800400a:	f422 7240 	bic.w	r2, r2, #768	; 0x300
 800400e:	4302      	orrs	r2, r0
 8004010:	428b      	cmp	r3, r1
 8004012:	615a      	str	r2, [r3, #20]
 8004014:	d033      	beq.n	800407e <HAL_UART_Init+0xc2>
 8004016:	f7ff fabb 	bl	8003590 <HAL_RCC_GetPCLK1Freq>
 800401a:	6863      	ldr	r3, [r4, #4]
 800401c:	eb00 0080 	add.w	r0, r0, r0, lsl #2
 8004020:	eb00 0080 	add.w	r0, r0, r0, lsl #2
 8004024:	009b      	lsls	r3, r3, #2
 8004026:	fbb0 f3f3 	udiv	r3, r0, r3
 800402a:	2264      	movs	r2, #100	; 0x64
 800402c:	2600      	movs	r6, #0
 800402e:	2520      	movs	r5, #32
 8004030:	4816      	ldr	r0, [pc, #88]	; (800408c <HAL_UART_Init+0xd0>)
 8004032:	fba0 c103 	umull	ip, r1, r0, r3
 8004036:	0949      	lsrs	r1, r1, #5
 8004038:	fb02 3311 	mls	r3, r2, r1, r3
 800403c:	011b      	lsls	r3, r3, #4
 800403e:	3332      	adds	r3, #50	; 0x32
 8004040:	fba0 2303 	umull	r2, r3, r0, r3
 8004044:	0109      	lsls	r1, r1, #4
 8004046:	6822      	ldr	r2, [r4, #0]
 8004048:	eb01 1353 	add.w	r3, r1, r3, lsr #5
 800404c:	6093      	str	r3, [r2, #8]
 800404e:	6913      	ldr	r3, [r2, #16]
 8004050:	4630      	mov	r0, r6
 8004052:	f423 4390 	bic.w	r3, r3, #18432	; 0x4800
 8004056:	6113      	str	r3, [r2, #16]
 8004058:	6953      	ldr	r3, [r2, #20]
 800405a:	f023 032a 	bic.w	r3, r3, #42	; 0x2a
 800405e:	6153      	str	r3, [r2, #20]
 8004060:	68d3      	ldr	r3, [r2, #12]
 8004062:	f443 5300 	orr.w	r3, r3, #8192	; 0x2000
 8004066:	60d3      	str	r3, [r2, #12]
 8004068:	6426      	str	r6, [r4, #64]	; 0x40
 800406a:	f884 503d 	strb.w	r5, [r4, #61]	; 0x3d
 800406e:	f884 503e 	strb.w	r5, [r4, #62]	; 0x3e
 8004072:	bd70      	pop	{r4, r5, r6, pc}
 8004074:	f880 203c 	strb.w	r2, [r0, #60]	; 0x3c
 8004078:	f7fe f808 	bl	800208c <HAL_UART_MspInit>
 800407c:	e7a8      	b.n	8003fd0 <HAL_UART_Init+0x14>
 800407e:	f7ff fa97 	bl	80035b0 <HAL_RCC_GetPCLK2Freq>
 8004082:	e7ca      	b.n	800401a <HAL_UART_Init+0x5e>
 8004084:	2001      	movs	r0, #1
 8004086:	4770      	bx	lr
 8004088:	40013800 	.word	0x40013800
 800408c:	51eb851f 	.word	0x51eb851f

08004090 <HAL_UART_Transmit_DMA>:
 8004090:	b5f8      	push	{r3, r4, r5, r6, r7, lr}
 8004092:	4604      	mov	r4, r0
 8004094:	f890 003d 	ldrb.w	r0, [r0, #61]	; 0x3d
 8004098:	2820      	cmp	r0, #32
 800409a:	d12b      	bne.n	80040f4 <HAL_UART_Transmit_DMA+0x64>
 800409c:	b341      	cbz	r1, 80040f0 <HAL_UART_Transmit_DMA+0x60>
 800409e:	b33a      	cbz	r2, 80040f0 <HAL_UART_Transmit_DMA+0x60>
 80040a0:	f894 003c 	ldrb.w	r0, [r4, #60]	; 0x3c
 80040a4:	2801      	cmp	r0, #1
 80040a6:	d025      	beq.n	80040f4 <HAL_UART_Transmit_DMA+0x64>
 80040a8:	2601      	movs	r6, #1
 80040aa:	2500      	movs	r5, #0
 80040ac:	2721      	movs	r7, #33	; 0x21
 80040ae:	84e2      	strh	r2, [r4, #38]	; 0x26
 80040b0:	84a2      	strh	r2, [r4, #36]	; 0x24
 80040b2:	f884 603c 	strb.w	r6, [r4, #60]	; 0x3c
 80040b6:	6b60      	ldr	r0, [r4, #52]	; 0x34
 80040b8:	4613      	mov	r3, r2
 80040ba:	4e0f      	ldr	r6, [pc, #60]	; (80040f8 <HAL_UART_Transmit_DMA+0x68>)
 80040bc:	4a0f      	ldr	r2, [pc, #60]	; (80040fc <HAL_UART_Transmit_DMA+0x6c>)
 80040be:	6425      	str	r5, [r4, #64]	; 0x40
 80040c0:	6221      	str	r1, [r4, #32]
 80040c2:	f884 703d 	strb.w	r7, [r4, #61]	; 0x3d
 80040c6:	6286      	str	r6, [r0, #40]	; 0x28
 80040c8:	62c2      	str	r2, [r0, #44]	; 0x2c
 80040ca:	4e0d      	ldr	r6, [pc, #52]	; (8004100 <HAL_UART_Transmit_DMA+0x70>)
 80040cc:	6822      	ldr	r2, [r4, #0]
 80040ce:	6345      	str	r5, [r0, #52]	; 0x34
 80040d0:	6306      	str	r6, [r0, #48]	; 0x30
 80040d2:	3204      	adds	r2, #4
 80040d4:	f7fe fd30 	bl	8002b38 <HAL_DMA_Start_IT>
 80040d8:	f06f 0240 	mvn.w	r2, #64	; 0x40
 80040dc:	6823      	ldr	r3, [r4, #0]
 80040de:	4628      	mov	r0, r5
 80040e0:	601a      	str	r2, [r3, #0]
 80040e2:	f884 503c 	strb.w	r5, [r4, #60]	; 0x3c
 80040e6:	695a      	ldr	r2, [r3, #20]
 80040e8:	f042 0280 	orr.w	r2, r2, #128	; 0x80
 80040ec:	615a      	str	r2, [r3, #20]
 80040ee:	bdf8      	pop	{r3, r4, r5, r6, r7, pc}
 80040f0:	2001      	movs	r0, #1
 80040f2:	bdf8      	pop	{r3, r4, r5, r6, r7, pc}
 80040f4:	2002      	movs	r0, #2
 80040f6:	bdf8      	pop	{r3, r4, r5, r6, r7, pc}
 80040f8:	080041a1 	.word	0x080041a1
 80040fc:	080041d1 	.word	0x080041d1
 8004100:	080041e5 	.word	0x080041e5

08004104 <HAL_UART_Receive_DMA>:
 8004104:	f890 303e 	ldrb.w	r3, [r0, #62]	; 0x3e
 8004108:	2b20      	cmp	r3, #32
 800410a:	d13d      	bne.n	8004188 <HAL_UART_Receive_DMA+0x84>
 800410c:	2900      	cmp	r1, #0
 800410e:	d039      	beq.n	8004184 <HAL_UART_Receive_DMA+0x80>
 8004110:	2a00      	cmp	r2, #0
 8004112:	d037      	beq.n	8004184 <HAL_UART_Receive_DMA+0x80>
 8004114:	b5f0      	push	{r4, r5, r6, r7, lr}
 8004116:	f890 303c 	ldrb.w	r3, [r0, #60]	; 0x3c
 800411a:	4604      	mov	r4, r0
 800411c:	2b01      	cmp	r3, #1
 800411e:	b083      	sub	sp, #12
 8004120:	d034      	beq.n	800418c <HAL_UART_Receive_DMA+0x88>
 8004122:	2601      	movs	r6, #1
 8004124:	2500      	movs	r5, #0
 8004126:	2722      	movs	r7, #34	; 0x22
 8004128:	6b80      	ldr	r0, [r0, #56]	; 0x38
 800412a:	4613      	mov	r3, r2
 800412c:	62a1      	str	r1, [r4, #40]	; 0x28
 800412e:	85a2      	strh	r2, [r4, #44]	; 0x2c
 8004130:	f884 603c 	strb.w	r6, [r4, #60]	; 0x3c
 8004134:	460a      	mov	r2, r1
 8004136:	4e17      	ldr	r6, [pc, #92]	; (8004194 <HAL_UART_Receive_DMA+0x90>)
 8004138:	4917      	ldr	r1, [pc, #92]	; (8004198 <HAL_UART_Receive_DMA+0x94>)
 800413a:	6325      	str	r5, [r4, #48]	; 0x30
 800413c:	6425      	str	r5, [r4, #64]	; 0x40
 800413e:	f884 703e 	strb.w	r7, [r4, #62]	; 0x3e
 8004142:	6286      	str	r6, [r0, #40]	; 0x28
 8004144:	62c1      	str	r1, [r0, #44]	; 0x2c
 8004146:	4e15      	ldr	r6, [pc, #84]	; (800419c <HAL_UART_Receive_DMA+0x98>)
 8004148:	6821      	ldr	r1, [r4, #0]
 800414a:	6345      	str	r5, [r0, #52]	; 0x34
 800414c:	6306      	str	r6, [r0, #48]	; 0x30
 800414e:	3104      	adds	r1, #4
 8004150:	f7fe fcf2 	bl	8002b38 <HAL_DMA_Start_IT>
 8004154:	4628      	mov	r0, r5
 8004156:	6823      	ldr	r3, [r4, #0]
 8004158:	9501      	str	r5, [sp, #4]
 800415a:	681a      	ldr	r2, [r3, #0]
 800415c:	9201      	str	r2, [sp, #4]
 800415e:	685a      	ldr	r2, [r3, #4]
 8004160:	f884 503c 	strb.w	r5, [r4, #60]	; 0x3c
 8004164:	9201      	str	r2, [sp, #4]
 8004166:	9a01      	ldr	r2, [sp, #4]
 8004168:	68da      	ldr	r2, [r3, #12]
 800416a:	f442 7280 	orr.w	r2, r2, #256	; 0x100
 800416e:	60da      	str	r2, [r3, #12]
 8004170:	695a      	ldr	r2, [r3, #20]
 8004172:	f042 0201 	orr.w	r2, r2, #1
 8004176:	615a      	str	r2, [r3, #20]
 8004178:	695a      	ldr	r2, [r3, #20]
 800417a:	f042 0240 	orr.w	r2, r2, #64	; 0x40
 800417e:	615a      	str	r2, [r3, #20]
 8004180:	b003      	add	sp, #12
 8004182:	bdf0      	pop	{r4, r5, r6, r7, pc}
 8004184:	2001      	movs	r0, #1
 8004186:	4770      	bx	lr
 8004188:	2002      	movs	r0, #2
 800418a:	4770      	bx	lr
 800418c:	2002      	movs	r0, #2
 800418e:	b003      	add	sp, #12
 8004190:	bdf0      	pop	{r4, r5, r6, r7, pc}
 8004192:	bf00      	nop
 8004194:	080045a5 	.word	0x080045a5
 8004198:	08004589 	.word	0x08004589
 800419c:	080041e5 	.word	0x080041e5

080041a0 <UART_DMATransmitCplt>:
 80041a0:	b508      	push	{r3, lr}
 80041a2:	6803      	ldr	r3, [r0, #0]
 80041a4:	6a40      	ldr	r0, [r0, #36]	; 0x24
 80041a6:	681b      	ldr	r3, [r3, #0]
 80041a8:	f013 0320 	ands.w	r3, r3, #32
 80041ac:	d10a      	bne.n	80041c4 <UART_DMATransmitCplt+0x24>
 80041ae:	6802      	ldr	r2, [r0, #0]
 80041b0:	84c3      	strh	r3, [r0, #38]	; 0x26
 80041b2:	6953      	ldr	r3, [r2, #20]
 80041b4:	f023 0380 	bic.w	r3, r3, #128	; 0x80
 80041b8:	6153      	str	r3, [r2, #20]
 80041ba:	68d3      	ldr	r3, [r2, #12]
 80041bc:	f043 0340 	orr.w	r3, r3, #64	; 0x40
 80041c0:	60d3      	str	r3, [r2, #12]
 80041c2:	bd08      	pop	{r3, pc}
 80041c4:	f7fd fd8e 	bl	8001ce4 <HAL_UART_TxCpltCallback>
 80041c8:	bd08      	pop	{r3, pc}
 80041ca:	bf00      	nop

080041cc <HAL_UART_TxHalfCpltCallback>:
 80041cc:	4770      	bx	lr
 80041ce:	bf00      	nop

080041d0 <UART_DMATxHalfCplt>:
 80041d0:	b508      	push	{r3, lr}
 80041d2:	6a40      	ldr	r0, [r0, #36]	; 0x24
 80041d4:	f7ff fffa 	bl	80041cc <HAL_UART_TxHalfCpltCallback>
 80041d8:	bd08      	pop	{r3, pc}
 80041da:	bf00      	nop

080041dc <HAL_UART_RxHalfCpltCallback>:
 80041dc:	4770      	bx	lr
 80041de:	bf00      	nop

080041e0 <HAL_UART_ErrorCallback>:
 80041e0:	4770      	bx	lr
 80041e2:	bf00      	nop

080041e4 <UART_DMAError>:
 80041e4:	b508      	push	{r3, lr}
 80041e6:	6a40      	ldr	r0, [r0, #36]	; 0x24
 80041e8:	6803      	ldr	r3, [r0, #0]
 80041ea:	6959      	ldr	r1, [r3, #20]
 80041ec:	f890 203d 	ldrb.w	r2, [r0, #61]	; 0x3d
 80041f0:	2a21      	cmp	r2, #33	; 0x21
 80041f2:	d00b      	beq.n	800420c <UART_DMAError+0x28>
 80041f4:	6959      	ldr	r1, [r3, #20]
 80041f6:	f890 203e 	ldrb.w	r2, [r0, #62]	; 0x3e
 80041fa:	2a22      	cmp	r2, #34	; 0x22
 80041fc:	d016      	beq.n	800422c <UART_DMAError+0x48>
 80041fe:	6c03      	ldr	r3, [r0, #64]	; 0x40
 8004200:	f043 0310 	orr.w	r3, r3, #16
 8004204:	6403      	str	r3, [r0, #64]	; 0x40
 8004206:	f7ff ffeb 	bl	80041e0 <HAL_UART_ErrorCallback>
 800420a:	bd08      	pop	{r3, pc}
 800420c:	0609      	lsls	r1, r1, #24
 800420e:	d5f1      	bpl.n	80041f4 <UART_DMAError+0x10>
 8004210:	2200      	movs	r2, #0
 8004212:	2120      	movs	r1, #32
 8004214:	84c2      	strh	r2, [r0, #38]	; 0x26
 8004216:	68da      	ldr	r2, [r3, #12]
 8004218:	f022 02c0 	bic.w	r2, r2, #192	; 0xc0
 800421c:	60da      	str	r2, [r3, #12]
 800421e:	f880 103d 	strb.w	r1, [r0, #61]	; 0x3d
 8004222:	6959      	ldr	r1, [r3, #20]
 8004224:	f890 203e 	ldrb.w	r2, [r0, #62]	; 0x3e
 8004228:	2a22      	cmp	r2, #34	; 0x22
 800422a:	d1e8      	bne.n	80041fe <UART_DMAError+0x1a>
 800422c:	064a      	lsls	r2, r1, #25
 800422e:	d5e6      	bpl.n	80041fe <UART_DMAError+0x1a>
 8004230:	2200      	movs	r2, #0
 8004232:	85c2      	strh	r2, [r0, #46]	; 0x2e
 8004234:	68da      	ldr	r2, [r3, #12]
 8004236:	f422 7290 	bic.w	r2, r2, #288	; 0x120
 800423a:	60da      	str	r2, [r3, #12]
 800423c:	695a      	ldr	r2, [r3, #20]
 800423e:	f022 0201 	bic.w	r2, r2, #1
 8004242:	615a      	str	r2, [r3, #20]
 8004244:	6b02      	ldr	r2, [r0, #48]	; 0x30
 8004246:	2a01      	cmp	r2, #1
 8004248:	d103      	bne.n	8004252 <UART_DMAError+0x6e>
 800424a:	68da      	ldr	r2, [r3, #12]
 800424c:	f022 0210 	bic.w	r2, r2, #16
 8004250:	60da      	str	r2, [r3, #12]
 8004252:	2220      	movs	r2, #32
 8004254:	2300      	movs	r3, #0
 8004256:	f880 203e 	strb.w	r2, [r0, #62]	; 0x3e
 800425a:	6303      	str	r3, [r0, #48]	; 0x30
 800425c:	e7cf      	b.n	80041fe <UART_DMAError+0x1a>
 800425e:	bf00      	nop

08004260 <UART_DMAAbortOnError>:
 8004260:	b508      	push	{r3, lr}
 8004262:	2300      	movs	r3, #0
 8004264:	6a40      	ldr	r0, [r0, #36]	; 0x24
 8004266:	85c3      	strh	r3, [r0, #46]	; 0x2e
 8004268:	84c3      	strh	r3, [r0, #38]	; 0x26
 800426a:	f7ff ffb9 	bl	80041e0 <HAL_UART_ErrorCallback>
 800426e:	bd08      	pop	{r3, pc}

08004270 <HAL_UARTEx_RxEventCallback>:
 8004270:	4770      	bx	lr
 8004272:	bf00      	nop

08004274 <UART_Receive_IT.part.0>:
 8004274:	6883      	ldr	r3, [r0, #8]
 8004276:	f5b3 5f80 	cmp.w	r3, #4096	; 0x1000
 800427a:	d03b      	beq.n	80042f4 <UART_Receive_IT.part.0+0x80>
 800427c:	6a82      	ldr	r2, [r0, #40]	; 0x28
 800427e:	2b00      	cmp	r3, #0
 8004280:	d02f      	beq.n	80042e2 <UART_Receive_IT.part.0+0x6e>
 8004282:	6803      	ldr	r3, [r0, #0]
 8004284:	685b      	ldr	r3, [r3, #4]
 8004286:	f003 037f 	and.w	r3, r3, #127	; 0x7f
 800428a:	7013      	strb	r3, [r2, #0]
 800428c:	6a83      	ldr	r3, [r0, #40]	; 0x28
 800428e:	3301      	adds	r3, #1
 8004290:	6283      	str	r3, [r0, #40]	; 0x28
 8004292:	8dc3      	ldrh	r3, [r0, #46]	; 0x2e
 8004294:	3b01      	subs	r3, #1
 8004296:	b29b      	uxth	r3, r3
 8004298:	85c3      	strh	r3, [r0, #46]	; 0x2e
 800429a:	bb4b      	cbnz	r3, 80042f0 <UART_Receive_IT.part.0+0x7c>
 800429c:	b510      	push	{r4, lr}
 800429e:	2420      	movs	r4, #32
 80042a0:	6802      	ldr	r2, [r0, #0]
 80042a2:	b082      	sub	sp, #8
 80042a4:	68d1      	ldr	r1, [r2, #12]
 80042a6:	f021 0120 	bic.w	r1, r1, #32
 80042aa:	60d1      	str	r1, [r2, #12]
 80042ac:	68d1      	ldr	r1, [r2, #12]
 80042ae:	f421 7180 	bic.w	r1, r1, #256	; 0x100
 80042b2:	60d1      	str	r1, [r2, #12]
 80042b4:	6951      	ldr	r1, [r2, #20]
 80042b6:	f021 0101 	bic.w	r1, r1, #1
 80042ba:	6151      	str	r1, [r2, #20]
 80042bc:	f880 403e 	strb.w	r4, [r0, #62]	; 0x3e
 80042c0:	6b01      	ldr	r1, [r0, #48]	; 0x30
 80042c2:	2901      	cmp	r1, #1
 80042c4:	d121      	bne.n	800430a <UART_Receive_IT.part.0+0x96>
 80042c6:	6303      	str	r3, [r0, #48]	; 0x30
 80042c8:	68d1      	ldr	r1, [r2, #12]
 80042ca:	f021 0110 	bic.w	r1, r1, #16
 80042ce:	60d1      	str	r1, [r2, #12]
 80042d0:	6811      	ldr	r1, [r2, #0]
 80042d2:	06c9      	lsls	r1, r1, #27
 80042d4:	d423      	bmi.n	800431e <UART_Receive_IT.part.0+0xaa>
 80042d6:	8d81      	ldrh	r1, [r0, #44]	; 0x2c
 80042d8:	f7ff ffca 	bl	8004270 <HAL_UARTEx_RxEventCallback>
 80042dc:	2000      	movs	r0, #0
 80042de:	b002      	add	sp, #8
 80042e0:	bd10      	pop	{r4, pc}
 80042e2:	6903      	ldr	r3, [r0, #16]
 80042e4:	2b00      	cmp	r3, #0
 80042e6:	d1cc      	bne.n	8004282 <UART_Receive_IT.part.0+0xe>
 80042e8:	6803      	ldr	r3, [r0, #0]
 80042ea:	685b      	ldr	r3, [r3, #4]
 80042ec:	7013      	strb	r3, [r2, #0]
 80042ee:	e7cd      	b.n	800428c <UART_Receive_IT.part.0+0x18>
 80042f0:	2000      	movs	r0, #0
 80042f2:	4770      	bx	lr
 80042f4:	6903      	ldr	r3, [r0, #16]
 80042f6:	b96b      	cbnz	r3, 8004314 <UART_Receive_IT.part.0+0xa0>
 80042f8:	6802      	ldr	r2, [r0, #0]
 80042fa:	6a83      	ldr	r3, [r0, #40]	; 0x28
 80042fc:	6852      	ldr	r2, [r2, #4]
 80042fe:	f3c2 0208 	ubfx	r2, r2, #0, #9
 8004302:	f823 2b02 	strh.w	r2, [r3], #2
 8004306:	6283      	str	r3, [r0, #40]	; 0x28
 8004308:	e7c3      	b.n	8004292 <UART_Receive_IT.part.0+0x1e>
 800430a:	f7fd fcff 	bl	8001d0c <HAL_UART_RxCpltCallback>
 800430e:	2000      	movs	r0, #0
 8004310:	b002      	add	sp, #8
 8004312:	bd10      	pop	{r4, pc}
 8004314:	6803      	ldr	r3, [r0, #0]
 8004316:	6a82      	ldr	r2, [r0, #40]	; 0x28
 8004318:	685b      	ldr	r3, [r3, #4]
 800431a:	7013      	strb	r3, [r2, #0]
 800431c:	e7b6      	b.n	800428c <UART_Receive_IT.part.0+0x18>
 800431e:	9301      	str	r3, [sp, #4]
 8004320:	6813      	ldr	r3, [r2, #0]
 8004322:	9301      	str	r3, [sp, #4]
 8004324:	6853      	ldr	r3, [r2, #4]
 8004326:	9301      	str	r3, [sp, #4]
 8004328:	9b01      	ldr	r3, [sp, #4]
 800432a:	e7d4      	b.n	80042d6 <UART_Receive_IT.part.0+0x62>

0800432c <HAL_UART_IRQHandler>:
 800432c:	b570      	push	{r4, r5, r6, lr}
 800432e:	6803      	ldr	r3, [r0, #0]
 8004330:	4604      	mov	r4, r0
 8004332:	681a      	ldr	r2, [r3, #0]
 8004334:	b082      	sub	sp, #8
 8004336:	0716      	lsls	r6, r2, #28
 8004338:	68d9      	ldr	r1, [r3, #12]
 800433a:	695d      	ldr	r5, [r3, #20]
 800433c:	d14e      	bne.n	80043dc <HAL_UART_IRQHandler+0xb0>
 800433e:	0696      	lsls	r6, r2, #26
 8004340:	d502      	bpl.n	8004348 <HAL_UART_IRQHandler+0x1c>
 8004342:	068d      	lsls	r5, r1, #26
 8004344:	f100 8090 	bmi.w	8004468 <HAL_UART_IRQHandler+0x13c>
 8004348:	6b20      	ldr	r0, [r4, #48]	; 0x30
 800434a:	2801      	cmp	r0, #1
 800434c:	d00b      	beq.n	8004366 <HAL_UART_IRQHandler+0x3a>
 800434e:	0616      	lsls	r6, r2, #24
 8004350:	d502      	bpl.n	8004358 <HAL_UART_IRQHandler+0x2c>
 8004352:	060d      	lsls	r5, r1, #24
 8004354:	f100 8092 	bmi.w	800447c <HAL_UART_IRQHandler+0x150>
 8004358:	0650      	lsls	r0, r2, #25
 800435a:	d502      	bpl.n	8004362 <HAL_UART_IRQHandler+0x36>
 800435c:	064a      	lsls	r2, r1, #25
 800435e:	f100 80ab 	bmi.w	80044b8 <HAL_UART_IRQHandler+0x18c>
 8004362:	b002      	add	sp, #8
 8004364:	bd70      	pop	{r4, r5, r6, pc}
 8004366:	06d5      	lsls	r5, r2, #27
 8004368:	d5f1      	bpl.n	800434e <HAL_UART_IRQHandler+0x22>
 800436a:	06c8      	lsls	r0, r1, #27
 800436c:	d5ef      	bpl.n	800434e <HAL_UART_IRQHandler+0x22>
 800436e:	2100      	movs	r1, #0
 8004370:	9101      	str	r1, [sp, #4]
 8004372:	681a      	ldr	r2, [r3, #0]
 8004374:	9201      	str	r2, [sp, #4]
 8004376:	685a      	ldr	r2, [r3, #4]
 8004378:	9201      	str	r2, [sp, #4]
 800437a:	9a01      	ldr	r2, [sp, #4]
 800437c:	695a      	ldr	r2, [r3, #20]
 800437e:	f012 0240 	ands.w	r2, r2, #64	; 0x40
 8004382:	f000 80d2 	beq.w	800452a <HAL_UART_IRQHandler+0x1fe>
 8004386:	6ba0      	ldr	r0, [r4, #56]	; 0x38
 8004388:	6802      	ldr	r2, [r0, #0]
 800438a:	6852      	ldr	r2, [r2, #4]
 800438c:	b292      	uxth	r2, r2
 800438e:	2a00      	cmp	r2, #0
 8004390:	d0e7      	beq.n	8004362 <HAL_UART_IRQHandler+0x36>
 8004392:	8da5      	ldrh	r5, [r4, #44]	; 0x2c
 8004394:	4295      	cmp	r5, r2
 8004396:	d9e4      	bls.n	8004362 <HAL_UART_IRQHandler+0x36>
 8004398:	6986      	ldr	r6, [r0, #24]
 800439a:	85e2      	strh	r2, [r4, #46]	; 0x2e
 800439c:	2e20      	cmp	r6, #32
 800439e:	d016      	beq.n	80043ce <HAL_UART_IRQHandler+0xa2>
 80043a0:	2520      	movs	r5, #32
 80043a2:	68da      	ldr	r2, [r3, #12]
 80043a4:	f422 7280 	bic.w	r2, r2, #256	; 0x100
 80043a8:	60da      	str	r2, [r3, #12]
 80043aa:	695a      	ldr	r2, [r3, #20]
 80043ac:	f022 0201 	bic.w	r2, r2, #1
 80043b0:	615a      	str	r2, [r3, #20]
 80043b2:	695a      	ldr	r2, [r3, #20]
 80043b4:	f022 0240 	bic.w	r2, r2, #64	; 0x40
 80043b8:	615a      	str	r2, [r3, #20]
 80043ba:	f884 503e 	strb.w	r5, [r4, #62]	; 0x3e
 80043be:	6321      	str	r1, [r4, #48]	; 0x30
 80043c0:	68da      	ldr	r2, [r3, #12]
 80043c2:	f022 0210 	bic.w	r2, r2, #16
 80043c6:	60da      	str	r2, [r3, #12]
 80043c8:	f7fe fbf8 	bl	8002bbc <HAL_DMA_Abort>
 80043cc:	8da5      	ldrh	r5, [r4, #44]	; 0x2c
 80043ce:	8de1      	ldrh	r1, [r4, #46]	; 0x2e
 80043d0:	4620      	mov	r0, r4
 80043d2:	1a69      	subs	r1, r5, r1
 80043d4:	b289      	uxth	r1, r1
 80043d6:	f7ff ff4b 	bl	8004270 <HAL_UARTEx_RxEventCallback>
 80043da:	e7c2      	b.n	8004362 <HAL_UART_IRQHandler+0x36>
 80043dc:	f005 0501 	and.w	r5, r5, #1
 80043e0:	f401 7090 	and.w	r0, r1, #288	; 0x120
 80043e4:	4328      	orrs	r0, r5
 80043e6:	d0af      	beq.n	8004348 <HAL_UART_IRQHandler+0x1c>
 80043e8:	07d0      	lsls	r0, r2, #31
 80043ea:	d505      	bpl.n	80043f8 <HAL_UART_IRQHandler+0xcc>
 80043ec:	05ce      	lsls	r6, r1, #23
 80043ee:	d503      	bpl.n	80043f8 <HAL_UART_IRQHandler+0xcc>
 80043f0:	6c20      	ldr	r0, [r4, #64]	; 0x40
 80043f2:	f040 0001 	orr.w	r0, r0, #1
 80043f6:	6420      	str	r0, [r4, #64]	; 0x40
 80043f8:	0750      	lsls	r0, r2, #29
 80043fa:	d52c      	bpl.n	8004456 <HAL_UART_IRQHandler+0x12a>
 80043fc:	b12d      	cbz	r5, 800440a <HAL_UART_IRQHandler+0xde>
 80043fe:	6c20      	ldr	r0, [r4, #64]	; 0x40
 8004400:	0796      	lsls	r6, r2, #30
 8004402:	f040 0002 	orr.w	r0, r0, #2
 8004406:	6420      	str	r0, [r4, #64]	; 0x40
 8004408:	d429      	bmi.n	800445e <HAL_UART_IRQHandler+0x132>
 800440a:	0716      	lsls	r6, r2, #28
 800440c:	d507      	bpl.n	800441e <HAL_UART_IRQHandler+0xf2>
 800440e:	f001 0020 	and.w	r0, r1, #32
 8004412:	4328      	orrs	r0, r5
 8004414:	d003      	beq.n	800441e <HAL_UART_IRQHandler+0xf2>
 8004416:	6c20      	ldr	r0, [r4, #64]	; 0x40
 8004418:	f040 0008 	orr.w	r0, r0, #8
 800441c:	6420      	str	r0, [r4, #64]	; 0x40
 800441e:	6c20      	ldr	r0, [r4, #64]	; 0x40
 8004420:	2800      	cmp	r0, #0
 8004422:	d09e      	beq.n	8004362 <HAL_UART_IRQHandler+0x36>
 8004424:	0690      	lsls	r0, r2, #26
 8004426:	d509      	bpl.n	800443c <HAL_UART_IRQHandler+0x110>
 8004428:	068a      	lsls	r2, r1, #26
 800442a:	d507      	bpl.n	800443c <HAL_UART_IRQHandler+0x110>
 800442c:	f894 203e 	ldrb.w	r2, [r4, #62]	; 0x3e
 8004430:	2a22      	cmp	r2, #34	; 0x22
 8004432:	d103      	bne.n	800443c <HAL_UART_IRQHandler+0x110>
 8004434:	4620      	mov	r0, r4
 8004436:	f7ff ff1d 	bl	8004274 <UART_Receive_IT.part.0>
 800443a:	6823      	ldr	r3, [r4, #0]
 800443c:	695a      	ldr	r2, [r3, #20]
 800443e:	6c25      	ldr	r5, [r4, #64]	; 0x40
 8004440:	f002 0240 	and.w	r2, r2, #64	; 0x40
 8004444:	f005 0508 	and.w	r5, r5, #8
 8004448:	4315      	orrs	r5, r2
 800444a:	d140      	bne.n	80044ce <HAL_UART_IRQHandler+0x1a2>
 800444c:	4620      	mov	r0, r4
 800444e:	f7ff fec7 	bl	80041e0 <HAL_UART_ErrorCallback>
 8004452:	6425      	str	r5, [r4, #64]	; 0x40
 8004454:	e785      	b.n	8004362 <HAL_UART_IRQHandler+0x36>
 8004456:	0790      	lsls	r0, r2, #30
 8004458:	d5d7      	bpl.n	800440a <HAL_UART_IRQHandler+0xde>
 800445a:	2d00      	cmp	r5, #0
 800445c:	d0d5      	beq.n	800440a <HAL_UART_IRQHandler+0xde>
 800445e:	6c20      	ldr	r0, [r4, #64]	; 0x40
 8004460:	f040 0004 	orr.w	r0, r0, #4
 8004464:	6420      	str	r0, [r4, #64]	; 0x40
 8004466:	e7d0      	b.n	800440a <HAL_UART_IRQHandler+0xde>
 8004468:	f890 303e 	ldrb.w	r3, [r0, #62]	; 0x3e
 800446c:	2b22      	cmp	r3, #34	; 0x22
 800446e:	f47f af78 	bne.w	8004362 <HAL_UART_IRQHandler+0x36>
 8004472:	b002      	add	sp, #8
 8004474:	e8bd 4070 	ldmia.w	sp!, {r4, r5, r6, lr}
 8004478:	f7ff befc 	b.w	8004274 <UART_Receive_IT.part.0>
 800447c:	f894 203d 	ldrb.w	r2, [r4, #61]	; 0x3d
 8004480:	2a21      	cmp	r2, #33	; 0x21
 8004482:	f47f af6e 	bne.w	8004362 <HAL_UART_IRQHandler+0x36>
 8004486:	68a2      	ldr	r2, [r4, #8]
 8004488:	f5b2 5f80 	cmp.w	r2, #4096	; 0x1000
 800448c:	d06e      	beq.n	800456c <HAL_UART_IRQHandler+0x240>
 800448e:	6a22      	ldr	r2, [r4, #32]
 8004490:	1c51      	adds	r1, r2, #1
 8004492:	6221      	str	r1, [r4, #32]
 8004494:	7812      	ldrb	r2, [r2, #0]
 8004496:	605a      	str	r2, [r3, #4]
 8004498:	8ce2      	ldrh	r2, [r4, #38]	; 0x26
 800449a:	3a01      	subs	r2, #1
 800449c:	b292      	uxth	r2, r2
 800449e:	84e2      	strh	r2, [r4, #38]	; 0x26
 80044a0:	2a00      	cmp	r2, #0
 80044a2:	f47f af5e 	bne.w	8004362 <HAL_UART_IRQHandler+0x36>
 80044a6:	68da      	ldr	r2, [r3, #12]
 80044a8:	f022 0280 	bic.w	r2, r2, #128	; 0x80
 80044ac:	60da      	str	r2, [r3, #12]
 80044ae:	68da      	ldr	r2, [r3, #12]
 80044b0:	f042 0240 	orr.w	r2, r2, #64	; 0x40
 80044b4:	60da      	str	r2, [r3, #12]
 80044b6:	e754      	b.n	8004362 <HAL_UART_IRQHandler+0x36>
 80044b8:	2120      	movs	r1, #32
 80044ba:	68da      	ldr	r2, [r3, #12]
 80044bc:	4620      	mov	r0, r4
 80044be:	f022 0240 	bic.w	r2, r2, #64	; 0x40
 80044c2:	60da      	str	r2, [r3, #12]
 80044c4:	f884 103d 	strb.w	r1, [r4, #61]	; 0x3d
 80044c8:	f7fd fc0c 	bl	8001ce4 <HAL_UART_TxCpltCallback>
 80044cc:	e749      	b.n	8004362 <HAL_UART_IRQHandler+0x36>
 80044ce:	68da      	ldr	r2, [r3, #12]
 80044d0:	f422 7290 	bic.w	r2, r2, #288	; 0x120
 80044d4:	60da      	str	r2, [r3, #12]
 80044d6:	695a      	ldr	r2, [r3, #20]
 80044d8:	f022 0201 	bic.w	r2, r2, #1
 80044dc:	615a      	str	r2, [r3, #20]
 80044de:	6b22      	ldr	r2, [r4, #48]	; 0x30
 80044e0:	2a01      	cmp	r2, #1
 80044e2:	d103      	bne.n	80044ec <HAL_UART_IRQHandler+0x1c0>
 80044e4:	68da      	ldr	r2, [r3, #12]
 80044e6:	f022 0210 	bic.w	r2, r2, #16
 80044ea:	60da      	str	r2, [r3, #12]
 80044ec:	2200      	movs	r2, #0
 80044ee:	2120      	movs	r1, #32
 80044f0:	f884 103e 	strb.w	r1, [r4, #62]	; 0x3e
 80044f4:	6322      	str	r2, [r4, #48]	; 0x30
 80044f6:	695a      	ldr	r2, [r3, #20]
 80044f8:	0656      	lsls	r6, r2, #25
 80044fa:	d512      	bpl.n	8004522 <HAL_UART_IRQHandler+0x1f6>
 80044fc:	695a      	ldr	r2, [r3, #20]
 80044fe:	6ba0      	ldr	r0, [r4, #56]	; 0x38
 8004500:	f022 0240 	bic.w	r2, r2, #64	; 0x40
 8004504:	615a      	str	r2, [r3, #20]
 8004506:	b160      	cbz	r0, 8004522 <HAL_UART_IRQHandler+0x1f6>
 8004508:	4b1e      	ldr	r3, [pc, #120]	; (8004584 <HAL_UART_IRQHandler+0x258>)
 800450a:	6343      	str	r3, [r0, #52]	; 0x34
 800450c:	f7fe fb78 	bl	8002c00 <HAL_DMA_Abort_IT>
 8004510:	2800      	cmp	r0, #0
 8004512:	f43f af26 	beq.w	8004362 <HAL_UART_IRQHandler+0x36>
 8004516:	6ba0      	ldr	r0, [r4, #56]	; 0x38
 8004518:	6b43      	ldr	r3, [r0, #52]	; 0x34
 800451a:	b002      	add	sp, #8
 800451c:	e8bd 4070 	ldmia.w	sp!, {r4, r5, r6, lr}
 8004520:	4718      	bx	r3
 8004522:	4620      	mov	r0, r4
 8004524:	f7ff fe5c 	bl	80041e0 <HAL_UART_ErrorCallback>
 8004528:	e71b      	b.n	8004362 <HAL_UART_IRQHandler+0x36>
 800452a:	8de0      	ldrh	r0, [r4, #46]	; 0x2e
 800452c:	8de1      	ldrh	r1, [r4, #46]	; 0x2e
 800452e:	b280      	uxth	r0, r0
 8004530:	b289      	uxth	r1, r1
 8004532:	2900      	cmp	r1, #0
 8004534:	f43f af15 	beq.w	8004362 <HAL_UART_IRQHandler+0x36>
 8004538:	8da1      	ldrh	r1, [r4, #44]	; 0x2c
 800453a:	1a08      	subs	r0, r1, r0
 800453c:	b281      	uxth	r1, r0
 800453e:	2900      	cmp	r1, #0
 8004540:	f43f af0f 	beq.w	8004362 <HAL_UART_IRQHandler+0x36>
 8004544:	2520      	movs	r5, #32
 8004546:	68d8      	ldr	r0, [r3, #12]
 8004548:	f420 7090 	bic.w	r0, r0, #288	; 0x120
 800454c:	60d8      	str	r0, [r3, #12]
 800454e:	6958      	ldr	r0, [r3, #20]
 8004550:	f020 0001 	bic.w	r0, r0, #1
 8004554:	6158      	str	r0, [r3, #20]
 8004556:	f884 503e 	strb.w	r5, [r4, #62]	; 0x3e
 800455a:	6322      	str	r2, [r4, #48]	; 0x30
 800455c:	68da      	ldr	r2, [r3, #12]
 800455e:	4620      	mov	r0, r4
 8004560:	f022 0210 	bic.w	r2, r2, #16
 8004564:	60da      	str	r2, [r3, #12]
 8004566:	f7ff fe83 	bl	8004270 <HAL_UARTEx_RxEventCallback>
 800456a:	e6fa      	b.n	8004362 <HAL_UART_IRQHandler+0x36>
 800456c:	6922      	ldr	r2, [r4, #16]
 800456e:	2a00      	cmp	r2, #0
 8004570:	d18d      	bne.n	800448e <HAL_UART_IRQHandler+0x162>
 8004572:	6a22      	ldr	r2, [r4, #32]
 8004574:	f832 1b02 	ldrh.w	r1, [r2], #2
 8004578:	f3c1 0108 	ubfx	r1, r1, #0, #9
 800457c:	6059      	str	r1, [r3, #4]
 800457e:	6222      	str	r2, [r4, #32]
 8004580:	e78a      	b.n	8004498 <HAL_UART_IRQHandler+0x16c>
 8004582:	bf00      	nop
 8004584:	08004261 	.word	0x08004261

08004588 <UART_DMARxHalfCplt>:
 8004588:	6a40      	ldr	r0, [r0, #36]	; 0x24
 800458a:	b508      	push	{r3, lr}
 800458c:	6b03      	ldr	r3, [r0, #48]	; 0x30
 800458e:	2b01      	cmp	r3, #1
 8004590:	d002      	beq.n	8004598 <UART_DMARxHalfCplt+0x10>
 8004592:	f7ff fe23 	bl	80041dc <HAL_UART_RxHalfCpltCallback>
 8004596:	bd08      	pop	{r3, pc}
 8004598:	8d81      	ldrh	r1, [r0, #44]	; 0x2c
 800459a:	0849      	lsrs	r1, r1, #1
 800459c:	f7ff fe68 	bl	8004270 <HAL_UARTEx_RxEventCallback>
 80045a0:	bd08      	pop	{r3, pc}
 80045a2:	bf00      	nop

080045a4 <UART_DMAReceiveCplt>:
 80045a4:	b508      	push	{r3, lr}
 80045a6:	6803      	ldr	r3, [r0, #0]
 80045a8:	6a40      	ldr	r0, [r0, #36]	; 0x24
 80045aa:	681b      	ldr	r3, [r3, #0]
 80045ac:	f013 0320 	ands.w	r3, r3, #32
 80045b0:	d113      	bne.n	80045da <UART_DMAReceiveCplt+0x36>
 80045b2:	2120      	movs	r1, #32
 80045b4:	6802      	ldr	r2, [r0, #0]
 80045b6:	85c3      	strh	r3, [r0, #46]	; 0x2e
 80045b8:	68d3      	ldr	r3, [r2, #12]
 80045ba:	f423 7380 	bic.w	r3, r3, #256	; 0x100
 80045be:	60d3      	str	r3, [r2, #12]
 80045c0:	6953      	ldr	r3, [r2, #20]
 80045c2:	f023 0301 	bic.w	r3, r3, #1
 80045c6:	6153      	str	r3, [r2, #20]
 80045c8:	6953      	ldr	r3, [r2, #20]
 80045ca:	f023 0340 	bic.w	r3, r3, #64	; 0x40
 80045ce:	6153      	str	r3, [r2, #20]
 80045d0:	f880 103e 	strb.w	r1, [r0, #62]	; 0x3e
 80045d4:	6b03      	ldr	r3, [r0, #48]	; 0x30
 80045d6:	2b01      	cmp	r3, #1
 80045d8:	d009      	beq.n	80045ee <UART_DMAReceiveCplt+0x4a>
 80045da:	6b03      	ldr	r3, [r0, #48]	; 0x30
 80045dc:	2b01      	cmp	r3, #1
 80045de:	d002      	beq.n	80045e6 <UART_DMAReceiveCplt+0x42>
 80045e0:	f7fd fb94 	bl	8001d0c <HAL_UART_RxCpltCallback>
 80045e4:	bd08      	pop	{r3, pc}
 80045e6:	8d81      	ldrh	r1, [r0, #44]	; 0x2c
 80045e8:	f7ff fe42 	bl	8004270 <HAL_UARTEx_RxEventCallback>
 80045ec:	bd08      	pop	{r3, pc}
 80045ee:	68d3      	ldr	r3, [r2, #12]
 80045f0:	f023 0310 	bic.w	r3, r3, #16
 80045f4:	60d3      	str	r3, [r2, #12]
 80045f6:	e7f0      	b.n	80045da <UART_DMAReceiveCplt+0x36>

080045f8 <TimerCallback>:
 80045f8:	b510      	push	{r4, lr}
 80045fa:	f002 fdf3 	bl	80071e4 <pvTimerGetTimerID>
 80045fe:	b120      	cbz	r0, 800460a <TimerCallback+0x12>
 8004600:	e9d0 3000 	ldrd	r3, r0, [r0]
 8004604:	e8bd 4010 	ldmia.w	sp!, {r4, lr}
 8004608:	4718      	bx	r3
 800460a:	bd10      	pop	{r4, pc}

0800460c <osKernelInitialize>:
 800460c:	f3ef 8305 	mrs	r3, IPSR
 8004610:	b983      	cbnz	r3, 8004634 <osKernelInitialize+0x28>
 8004612:	f3ef 8310 	mrs	r3, PRIMASK
 8004616:	b96b      	cbnz	r3, 8004634 <osKernelInitialize+0x28>
 8004618:	4b08      	ldr	r3, [pc, #32]	; (800463c <osKernelInitialize+0x30>)
 800461a:	6818      	ldr	r0, [r3, #0]
 800461c:	2802      	cmp	r0, #2
 800461e:	d003      	beq.n	8004628 <osKernelInitialize+0x1c>
 8004620:	b928      	cbnz	r0, 800462e <osKernelInitialize+0x22>
 8004622:	2201      	movs	r2, #1
 8004624:	601a      	str	r2, [r3, #0]
 8004626:	4770      	bx	lr
 8004628:	f3ef 8311 	mrs	r3, BASEPRI
 800462c:	b913      	cbnz	r3, 8004634 <osKernelInitialize+0x28>
 800462e:	f04f 30ff 	mov.w	r0, #4294967295
 8004632:	4770      	bx	lr
 8004634:	f06f 0005 	mvn.w	r0, #5
 8004638:	4770      	bx	lr
 800463a:	bf00      	nop
 800463c:	200001c8 	.word	0x200001c8

08004640 <osKernelStart>:
 8004640:	f3ef 8305 	mrs	r3, IPSR
 8004644:	b9c3      	cbnz	r3, 8004678 <osKernelStart+0x38>
 8004646:	b510      	push	{r4, lr}
 8004648:	f3ef 8410 	mrs	r4, PRIMASK
 800464c:	b98c      	cbnz	r4, 8004672 <osKernelStart+0x32>
 800464e:	4b0c      	ldr	r3, [pc, #48]	; (8004680 <osKernelStart+0x40>)
 8004650:	681a      	ldr	r2, [r3, #0]
 8004652:	2a02      	cmp	r2, #2
 8004654:	d007      	beq.n	8004666 <osKernelStart+0x26>
 8004656:	2a01      	cmp	r2, #1
 8004658:	d108      	bne.n	800466c <osKernelStart+0x2c>
 800465a:	2202      	movs	r2, #2
 800465c:	601a      	str	r2, [r3, #0]
 800465e:	f001 fcb5 	bl	8005fcc <vTaskStartScheduler>
 8004662:	4620      	mov	r0, r4
 8004664:	bd10      	pop	{r4, pc}
 8004666:	f3ef 8311 	mrs	r3, BASEPRI
 800466a:	b913      	cbnz	r3, 8004672 <osKernelStart+0x32>
 800466c:	f04f 30ff 	mov.w	r0, #4294967295
 8004670:	bd10      	pop	{r4, pc}
 8004672:	f06f 0005 	mvn.w	r0, #5
 8004676:	bd10      	pop	{r4, pc}
 8004678:	f06f 0005 	mvn.w	r0, #5
 800467c:	4770      	bx	lr
 800467e:	bf00      	nop
 8004680:	200001c8 	.word	0x200001c8

08004684 <osThreadNew>:
 8004684:	b5f0      	push	{r4, r5, r6, r7, lr}
 8004686:	2400      	movs	r4, #0
 8004688:	b087      	sub	sp, #28
 800468a:	9405      	str	r4, [sp, #20]
 800468c:	f3ef 8505 	mrs	r5, IPSR
 8004690:	2d00      	cmp	r5, #0
 8004692:	d13b      	bne.n	800470c <osThreadNew+0x88>
 8004694:	f3ef 8310 	mrs	r3, PRIMASK
 8004698:	2b00      	cmp	r3, #0
 800469a:	d13e      	bne.n	800471a <osThreadNew+0x96>
 800469c:	4b29      	ldr	r3, [pc, #164]	; (8004744 <osThreadNew+0xc0>)
 800469e:	681b      	ldr	r3, [r3, #0]
 80046a0:	2b02      	cmp	r3, #2
 80046a2:	d036      	beq.n	8004712 <osThreadNew+0x8e>
 80046a4:	2800      	cmp	r0, #0
 80046a6:	d038      	beq.n	800471a <osThreadNew+0x96>
 80046a8:	2300      	movs	r3, #0
 80046aa:	f88d 3013 	strb.w	r3, [sp, #19]
 80046ae:	b302      	cbz	r2, 80046f2 <osThreadNew+0x6e>
 80046b0:	6814      	ldr	r4, [r2, #0]
 80046b2:	2c00      	cmp	r4, #0
 80046b4:	d039      	beq.n	800472a <osThreadNew+0xa6>
 80046b6:	6993      	ldr	r3, [r2, #24]
 80046b8:	2b00      	cmp	r3, #0
 80046ba:	d031      	beq.n	8004720 <osThreadNew+0x9c>
 80046bc:	1e5d      	subs	r5, r3, #1
 80046be:	2d37      	cmp	r5, #55	; 0x37
 80046c0:	d824      	bhi.n	800470c <osThreadNew+0x88>
 80046c2:	6855      	ldr	r5, [r2, #4]
 80046c4:	07ed      	lsls	r5, r5, #31
 80046c6:	d421      	bmi.n	800470c <osThreadNew+0x88>
 80046c8:	6955      	ldr	r5, [r2, #20]
 80046ca:	bb5d      	cbnz	r5, 8004724 <osThreadNew+0xa0>
 80046cc:	f04f 0c40 	mov.w	ip, #64	; 0x40
 80046d0:	6897      	ldr	r7, [r2, #8]
 80046d2:	b36f      	cbz	r7, 8004730 <osThreadNew+0xac>
 80046d4:	68d6      	ldr	r6, [r2, #12]
 80046d6:	2e6b      	cmp	r6, #107	; 0x6b
 80046d8:	d91f      	bls.n	800471a <osThreadNew+0x96>
 80046da:	6912      	ldr	r2, [r2, #16]
 80046dc:	b1ea      	cbz	r2, 800471a <osThreadNew+0x96>
 80046de:	b1e5      	cbz	r5, 800471a <osThreadNew+0x96>
 80046e0:	e9cd 2701 	strd	r2, r7, [sp, #4]
 80046e4:	9300      	str	r3, [sp, #0]
 80046e6:	4662      	mov	r2, ip
 80046e8:	460b      	mov	r3, r1
 80046ea:	4621      	mov	r1, r4
 80046ec:	f001 fb9a 	bl	8005e24 <xTaskCreateStatic>
 80046f0:	e00d      	b.n	800470e <osThreadNew+0x8a>
 80046f2:	2240      	movs	r2, #64	; 0x40
 80046f4:	2318      	movs	r3, #24
 80046f6:	f10d 0413 	add.w	r4, sp, #19
 80046fa:	ad05      	add	r5, sp, #20
 80046fc:	9300      	str	r3, [sp, #0]
 80046fe:	9501      	str	r5, [sp, #4]
 8004700:	460b      	mov	r3, r1
 8004702:	4621      	mov	r1, r4
 8004704:	f001 fc02 	bl	8005f0c <xTaskCreate>
 8004708:	2801      	cmp	r0, #1
 800470a:	d006      	beq.n	800471a <osThreadNew+0x96>
 800470c:	2000      	movs	r0, #0
 800470e:	b007      	add	sp, #28
 8004710:	bdf0      	pop	{r4, r5, r6, r7, pc}
 8004712:	f3ef 8311 	mrs	r3, BASEPRI
 8004716:	2b00      	cmp	r3, #0
 8004718:	d0c4      	beq.n	80046a4 <osThreadNew+0x20>
 800471a:	9805      	ldr	r0, [sp, #20]
 800471c:	b007      	add	sp, #28
 800471e:	bdf0      	pop	{r4, r5, r6, r7, pc}
 8004720:	2318      	movs	r3, #24
 8004722:	e7ce      	b.n	80046c2 <osThreadNew+0x3e>
 8004724:	ea4f 0c95 	mov.w	ip, r5, lsr #2
 8004728:	e7d2      	b.n	80046d0 <osThreadNew+0x4c>
 800472a:	f10d 0413 	add.w	r4, sp, #19
 800472e:	e7c2      	b.n	80046b6 <osThreadNew+0x32>
 8004730:	68d5      	ldr	r5, [r2, #12]
 8004732:	2d00      	cmp	r5, #0
 8004734:	d1f1      	bne.n	800471a <osThreadNew+0x96>
 8004736:	6912      	ldr	r2, [r2, #16]
 8004738:	2a00      	cmp	r2, #0
 800473a:	d1ee      	bne.n	800471a <osThreadNew+0x96>
 800473c:	fa1f f28c 	uxth.w	r2, ip
 8004740:	e7db      	b.n	80046fa <osThreadNew+0x76>
 8004742:	bf00      	nop
 8004744:	200001c8 	.word	0x200001c8

08004748 <osThreadFlagsSet>:
 8004748:	b348      	cbz	r0, 800479e <osThreadFlagsSet+0x56>
 800474a:	2900      	cmp	r1, #0
 800474c:	db27      	blt.n	800479e <osThreadFlagsSet+0x56>
 800474e:	f04f 33ff 	mov.w	r3, #4294967295
 8004752:	b530      	push	{r4, r5, lr}
 8004754:	b085      	sub	sp, #20
 8004756:	4604      	mov	r4, r0
 8004758:	9302      	str	r3, [sp, #8]
 800475a:	f3ef 8305 	mrs	r3, IPSR
 800475e:	b94b      	cbnz	r3, 8004774 <osThreadFlagsSet+0x2c>
 8004760:	f3ef 8310 	mrs	r3, PRIMASK
 8004764:	b933      	cbnz	r3, 8004774 <osThreadFlagsSet+0x2c>
 8004766:	4b1b      	ldr	r3, [pc, #108]	; (80047d4 <osThreadFlagsSet+0x8c>)
 8004768:	681b      	ldr	r3, [r3, #0]
 800476a:	2b02      	cmp	r3, #2
 800476c:	d123      	bne.n	80047b6 <osThreadFlagsSet+0x6e>
 800476e:	f3ef 8311 	mrs	r3, BASEPRI
 8004772:	b303      	cbz	r3, 80047b6 <osThreadFlagsSet+0x6e>
 8004774:	2500      	movs	r5, #0
 8004776:	aa03      	add	r2, sp, #12
 8004778:	462b      	mov	r3, r5
 800477a:	9200      	str	r2, [sp, #0]
 800477c:	4620      	mov	r0, r4
 800477e:	2201      	movs	r2, #1
 8004780:	9503      	str	r5, [sp, #12]
 8004782:	f002 f9b7 	bl	8006af4 <xTaskGenericNotifyFromISR>
 8004786:	ab02      	add	r3, sp, #8
 8004788:	4620      	mov	r0, r4
 800478a:	462a      	mov	r2, r5
 800478c:	4629      	mov	r1, r5
 800478e:	9500      	str	r5, [sp, #0]
 8004790:	f002 f9b0 	bl	8006af4 <xTaskGenericNotifyFromISR>
 8004794:	9b03      	ldr	r3, [sp, #12]
 8004796:	b92b      	cbnz	r3, 80047a4 <osThreadFlagsSet+0x5c>
 8004798:	9802      	ldr	r0, [sp, #8]
 800479a:	b005      	add	sp, #20
 800479c:	bd30      	pop	{r4, r5, pc}
 800479e:	f06f 0003 	mvn.w	r0, #3
 80047a2:	4770      	bx	lr
 80047a4:	f04f 5280 	mov.w	r2, #268435456	; 0x10000000
 80047a8:	4b0b      	ldr	r3, [pc, #44]	; (80047d8 <osThreadFlagsSet+0x90>)
 80047aa:	601a      	str	r2, [r3, #0]
 80047ac:	f3bf 8f4f 	dsb	sy
 80047b0:	f3bf 8f6f 	isb	sy
 80047b4:	e7f0      	b.n	8004798 <osThreadFlagsSet+0x50>
 80047b6:	2300      	movs	r3, #0
 80047b8:	2201      	movs	r2, #1
 80047ba:	4620      	mov	r0, r4
 80047bc:	f002 f930 	bl	8006a20 <xTaskGenericNotify>
 80047c0:	2200      	movs	r2, #0
 80047c2:	4620      	mov	r0, r4
 80047c4:	4611      	mov	r1, r2
 80047c6:	ab02      	add	r3, sp, #8
 80047c8:	f002 f92a 	bl	8006a20 <xTaskGenericNotify>
 80047cc:	9802      	ldr	r0, [sp, #8]
 80047ce:	b005      	add	sp, #20
 80047d0:	bd30      	pop	{r4, r5, pc}
 80047d2:	bf00      	nop
 80047d4:	200001c8 	.word	0x200001c8
 80047d8:	e000ed04 	.word	0xe000ed04

080047dc <osThreadFlagsWait>:
 80047dc:	e92d 4ff0 	stmdb	sp!, {r4, r5, r6, r7, r8, r9, sl, fp, lr}
 80047e0:	b083      	sub	sp, #12
 80047e2:	f3ef 8305 	mrs	r3, IPSR
 80047e6:	bb73      	cbnz	r3, 8004846 <osThreadFlagsWait+0x6a>
 80047e8:	f3ef 8310 	mrs	r3, PRIMASK
 80047ec:	bb5b      	cbnz	r3, 8004846 <osThreadFlagsWait+0x6a>
 80047ee:	4b4a      	ldr	r3, [pc, #296]	; (8004918 <osThreadFlagsWait+0x13c>)
 80047f0:	4605      	mov	r5, r0
 80047f2:	681b      	ldr	r3, [r3, #0]
 80047f4:	460e      	mov	r6, r1
 80047f6:	2b02      	cmp	r3, #2
 80047f8:	4614      	mov	r4, r2
 80047fa:	d020      	beq.n	800483e <osThreadFlagsWait+0x62>
 80047fc:	2d00      	cmp	r5, #0
 80047fe:	db58      	blt.n	80048b2 <osThreadFlagsWait+0xd6>
 8004800:	f016 0f02 	tst.w	r6, #2
 8004804:	bf0c      	ite	eq
 8004806:	46a8      	moveq	r8, r5
 8004808:	f04f 0800 	movne.w	r8, #0
 800480c:	f001 fc80 	bl	8006110 <xTaskGetTickCount>
 8004810:	2c00      	cmp	r4, #0
 8004812:	4682      	mov	sl, r0
 8004814:	bf0c      	ite	eq
 8004816:	f06f 0902 	mvneq.w	r9, #2
 800481a:	f06f 0901 	mvnne.w	r9, #1
 800481e:	f006 0601 	and.w	r6, r6, #1
 8004822:	d054      	beq.n	80048ce <osThreadFlagsWait+0xf2>
 8004824:	b9ae      	cbnz	r6, 8004852 <osThreadFlagsWait+0x76>
 8004826:	af01      	add	r7, sp, #4
 8004828:	4623      	mov	r3, r4
 800482a:	463a      	mov	r2, r7
 800482c:	4641      	mov	r1, r8
 800482e:	2000      	movs	r0, #0
 8004830:	f002 f884 	bl	800693c <xTaskNotifyWait>
 8004834:	2801      	cmp	r0, #1
 8004836:	d029      	beq.n	800488c <osThreadFlagsWait+0xb0>
 8004838:	b138      	cbz	r0, 800484a <osThreadFlagsWait+0x6e>
 800483a:	464e      	mov	r6, r9
 800483c:	e7f4      	b.n	8004828 <osThreadFlagsWait+0x4c>
 800483e:	f3ef 8311 	mrs	r3, BASEPRI
 8004842:	2b00      	cmp	r3, #0
 8004844:	d0da      	beq.n	80047fc <osThreadFlagsWait+0x20>
 8004846:	f06f 0905 	mvn.w	r9, #5
 800484a:	4648      	mov	r0, r9
 800484c:	b003      	add	sp, #12
 800484e:	e8bd 8ff0 	ldmia.w	sp!, {r4, r5, r6, r7, r8, r9, sl, fp, pc}
 8004852:	2600      	movs	r6, #0
 8004854:	af01      	add	r7, sp, #4
 8004856:	4623      	mov	r3, r4
 8004858:	463a      	mov	r2, r7
 800485a:	4641      	mov	r1, r8
 800485c:	2000      	movs	r0, #0
 800485e:	f002 f86d 	bl	800693c <xTaskNotifyWait>
 8004862:	2801      	cmp	r0, #1
 8004864:	d003      	beq.n	800486e <osThreadFlagsWait+0x92>
 8004866:	2800      	cmp	r0, #0
 8004868:	d0ef      	beq.n	800484a <osThreadFlagsWait+0x6e>
 800486a:	464e      	mov	r6, r9
 800486c:	e7f3      	b.n	8004856 <osThreadFlagsWait+0x7a>
 800486e:	9b01      	ldr	r3, [sp, #4]
 8004870:	402e      	ands	r6, r5
 8004872:	431e      	orrs	r6, r3
 8004874:	ea35 0306 	bics.w	r3, r5, r6
 8004878:	d027      	beq.n	80048ca <osThreadFlagsWait+0xee>
 800487a:	f001 fc49 	bl	8006110 <xTaskGetTickCount>
 800487e:	eba0 030a 	sub.w	r3, r0, sl
 8004882:	429c      	cmp	r4, r3
 8004884:	4454      	add	r4, sl
 8004886:	d310      	bcc.n	80048aa <osThreadFlagsWait+0xce>
 8004888:	1a24      	subs	r4, r4, r0
 800488a:	e7e4      	b.n	8004856 <osThreadFlagsWait+0x7a>
 800488c:	9b01      	ldr	r3, [sp, #4]
 800488e:	402e      	ands	r6, r5
 8004890:	431e      	orrs	r6, r3
 8004892:	ea15 0b06 	ands.w	fp, r5, r6
 8004896:	d118      	bne.n	80048ca <osThreadFlagsWait+0xee>
 8004898:	f001 fc3a 	bl	8006110 <xTaskGetTickCount>
 800489c:	eba0 030a 	sub.w	r3, r0, sl
 80048a0:	429c      	cmp	r4, r3
 80048a2:	4454      	add	r4, sl
 80048a4:	d303      	bcc.n	80048ae <osThreadFlagsWait+0xd2>
 80048a6:	1a24      	subs	r4, r4, r0
 80048a8:	e7be      	b.n	8004828 <osThreadFlagsWait+0x4c>
 80048aa:	2400      	movs	r4, #0
 80048ac:	e7d3      	b.n	8004856 <osThreadFlagsWait+0x7a>
 80048ae:	465c      	mov	r4, fp
 80048b0:	e7ba      	b.n	8004828 <osThreadFlagsWait+0x4c>
 80048b2:	f06f 0903 	mvn.w	r9, #3
 80048b6:	4648      	mov	r0, r9
 80048b8:	b003      	add	sp, #12
 80048ba:	e8bd 8ff0 	ldmia.w	sp!, {r4, r5, r6, r7, r8, r9, sl, fp, pc}
 80048be:	9e01      	ldr	r6, [sp, #4]
 80048c0:	402c      	ands	r4, r5
 80048c2:	4326      	orrs	r6, r4
 80048c4:	ea35 0306 	bics.w	r3, r5, r6
 80048c8:	d122      	bne.n	8004910 <osThreadFlagsWait+0x134>
 80048ca:	46b1      	mov	r9, r6
 80048cc:	e7bd      	b.n	800484a <osThreadFlagsWait+0x6e>
 80048ce:	af01      	add	r7, sp, #4
 80048d0:	b966      	cbnz	r6, 80048ec <osThreadFlagsWait+0x110>
 80048d2:	2300      	movs	r3, #0
 80048d4:	463a      	mov	r2, r7
 80048d6:	4618      	mov	r0, r3
 80048d8:	4641      	mov	r1, r8
 80048da:	f002 f82f 	bl	800693c <xTaskNotifyWait>
 80048de:	2801      	cmp	r0, #1
 80048e0:	d011      	beq.n	8004906 <osThreadFlagsWait+0x12a>
 80048e2:	f06f 0602 	mvn.w	r6, #2
 80048e6:	2800      	cmp	r0, #0
 80048e8:	d1f3      	bne.n	80048d2 <osThreadFlagsWait+0xf6>
 80048ea:	e7ae      	b.n	800484a <osThreadFlagsWait+0x6e>
 80048ec:	2300      	movs	r3, #0
 80048ee:	463a      	mov	r2, r7
 80048f0:	4618      	mov	r0, r3
 80048f2:	4641      	mov	r1, r8
 80048f4:	f002 f822 	bl	800693c <xTaskNotifyWait>
 80048f8:	2801      	cmp	r0, #1
 80048fa:	d0e0      	beq.n	80048be <osThreadFlagsWait+0xe2>
 80048fc:	f06f 0402 	mvn.w	r4, #2
 8004900:	2800      	cmp	r0, #0
 8004902:	d1f3      	bne.n	80048ec <osThreadFlagsWait+0x110>
 8004904:	e7a1      	b.n	800484a <osThreadFlagsWait+0x6e>
 8004906:	9b01      	ldr	r3, [sp, #4]
 8004908:	402e      	ands	r6, r5
 800490a:	431e      	orrs	r6, r3
 800490c:	4235      	tst	r5, r6
 800490e:	d1dc      	bne.n	80048ca <osThreadFlagsWait+0xee>
 8004910:	f06f 0902 	mvn.w	r9, #2
 8004914:	e799      	b.n	800484a <osThreadFlagsWait+0x6e>
 8004916:	bf00      	nop
 8004918:	200001c8 	.word	0x200001c8

0800491c <osDelay>:
 800491c:	b508      	push	{r3, lr}
 800491e:	f3ef 8305 	mrs	r3, IPSR
 8004922:	b963      	cbnz	r3, 800493e <osDelay+0x22>
 8004924:	f3ef 8310 	mrs	r3, PRIMASK
 8004928:	b94b      	cbnz	r3, 800493e <osDelay+0x22>
 800492a:	4b08      	ldr	r3, [pc, #32]	; (800494c <osDelay+0x30>)
 800492c:	681b      	ldr	r3, [r3, #0]
 800492e:	2b02      	cmp	r3, #2
 8004930:	d001      	beq.n	8004936 <osDelay+0x1a>
 8004932:	b938      	cbnz	r0, 8004944 <osDelay+0x28>
 8004934:	bd08      	pop	{r3, pc}
 8004936:	f3ef 8311 	mrs	r3, BASEPRI
 800493a:	2b00      	cmp	r3, #0
 800493c:	d0f9      	beq.n	8004932 <osDelay+0x16>
 800493e:	f06f 0005 	mvn.w	r0, #5
 8004942:	bd08      	pop	{r3, pc}
 8004944:	f001 fd38 	bl	80063b8 <vTaskDelay>
 8004948:	2000      	movs	r0, #0
 800494a:	bd08      	pop	{r3, pc}
 800494c:	200001c8 	.word	0x200001c8

08004950 <osTimerNew>:
 8004950:	b5f0      	push	{r4, r5, r6, r7, lr}
 8004952:	461c      	mov	r4, r3
 8004954:	b083      	sub	sp, #12
 8004956:	f3ef 8305 	mrs	r3, IPSR
 800495a:	b9db      	cbnz	r3, 8004994 <osTimerNew+0x44>
 800495c:	f3ef 8310 	mrs	r3, PRIMASK
 8004960:	b9c3      	cbnz	r3, 8004994 <osTimerNew+0x44>
 8004962:	4b1a      	ldr	r3, [pc, #104]	; (80049cc <osTimerNew+0x7c>)
 8004964:	4607      	mov	r7, r0
 8004966:	681b      	ldr	r3, [r3, #0]
 8004968:	460e      	mov	r6, r1
 800496a:	2b02      	cmp	r3, #2
 800496c:	4615      	mov	r5, r2
 800496e:	d014      	beq.n	800499a <osTimerNew+0x4a>
 8004970:	b187      	cbz	r7, 8004994 <osTimerNew+0x44>
 8004972:	2008      	movs	r0, #8
 8004974:	f002 fde2 	bl	800753c <pvPortMalloc>
 8004978:	4603      	mov	r3, r0
 800497a:	b158      	cbz	r0, 8004994 <osTimerNew+0x44>
 800497c:	1e32      	subs	r2, r6, #0
 800497e:	bf18      	it	ne
 8004980:	2201      	movne	r2, #1
 8004982:	e9c0 7500 	strd	r7, r5, [r0]
 8004986:	b18c      	cbz	r4, 80049ac <osTimerNew+0x5c>
 8004988:	68a1      	ldr	r1, [r4, #8]
 800498a:	6820      	ldr	r0, [r4, #0]
 800498c:	b151      	cbz	r1, 80049a4 <osTimerNew+0x54>
 800498e:	68e4      	ldr	r4, [r4, #12]
 8004990:	2c2f      	cmp	r4, #47	; 0x2f
 8004992:	d813      	bhi.n	80049bc <osTimerNew+0x6c>
 8004994:	2000      	movs	r0, #0
 8004996:	b003      	add	sp, #12
 8004998:	bdf0      	pop	{r4, r5, r6, r7, pc}
 800499a:	f3ef 8311 	mrs	r3, BASEPRI
 800499e:	2b00      	cmp	r3, #0
 80049a0:	d0e6      	beq.n	8004970 <osTimerNew+0x20>
 80049a2:	e7f7      	b.n	8004994 <osTimerNew+0x44>
 80049a4:	68e1      	ldr	r1, [r4, #12]
 80049a6:	2900      	cmp	r1, #0
 80049a8:	d1f4      	bne.n	8004994 <osTimerNew+0x44>
 80049aa:	4604      	mov	r4, r0
 80049ac:	4908      	ldr	r1, [pc, #32]	; (80049d0 <osTimerNew+0x80>)
 80049ae:	4620      	mov	r0, r4
 80049b0:	9100      	str	r1, [sp, #0]
 80049b2:	2101      	movs	r1, #1
 80049b4:	f002 fb0a 	bl	8006fcc <xTimerCreate>
 80049b8:	b003      	add	sp, #12
 80049ba:	bdf0      	pop	{r4, r5, r6, r7, pc}
 80049bc:	4c04      	ldr	r4, [pc, #16]	; (80049d0 <osTimerNew+0x80>)
 80049be:	e9cd 4100 	strd	r4, r1, [sp]
 80049c2:	2101      	movs	r1, #1
 80049c4:	f002 fb64 	bl	8007090 <xTimerCreateStatic>
 80049c8:	e7e5      	b.n	8004996 <osTimerNew+0x46>
 80049ca:	bf00      	nop
 80049cc:	200001c8 	.word	0x200001c8
 80049d0:	080045f9 	.word	0x080045f9

080049d4 <osTimerStart>:
 80049d4:	f3ef 8305 	mrs	r3, IPSR
 80049d8:	b9db      	cbnz	r3, 8004a12 <osTimerStart+0x3e>
 80049da:	f3ef 8310 	mrs	r3, PRIMASK
 80049de:	b9c3      	cbnz	r3, 8004a12 <osTimerStart+0x3e>
 80049e0:	4b0f      	ldr	r3, [pc, #60]	; (8004a20 <osTimerStart+0x4c>)
 80049e2:	460a      	mov	r2, r1
 80049e4:	681b      	ldr	r3, [r3, #0]
 80049e6:	2b02      	cmp	r3, #2
 80049e8:	d00f      	beq.n	8004a0a <osTimerStart+0x36>
 80049ea:	b1a8      	cbz	r0, 8004a18 <osTimerStart+0x44>
 80049ec:	2300      	movs	r3, #0
 80049ee:	b500      	push	{lr}
 80049f0:	b083      	sub	sp, #12
 80049f2:	2104      	movs	r1, #4
 80049f4:	9300      	str	r3, [sp, #0]
 80049f6:	f002 fbc3 	bl	8007180 <xTimerGenericCommand>
 80049fa:	2801      	cmp	r0, #1
 80049fc:	bf0c      	ite	eq
 80049fe:	2000      	moveq	r0, #0
 8004a00:	f06f 0002 	mvnne.w	r0, #2
 8004a04:	b003      	add	sp, #12
 8004a06:	f85d fb04 	ldr.w	pc, [sp], #4
 8004a0a:	f3ef 8311 	mrs	r3, BASEPRI
 8004a0e:	2b00      	cmp	r3, #0
 8004a10:	d0eb      	beq.n	80049ea <osTimerStart+0x16>
 8004a12:	f06f 0005 	mvn.w	r0, #5
 8004a16:	4770      	bx	lr
 8004a18:	f06f 0003 	mvn.w	r0, #3
 8004a1c:	4770      	bx	lr
 8004a1e:	bf00      	nop
 8004a20:	200001c8 	.word	0x200001c8

08004a24 <osEventFlagsNew>:
 8004a24:	f3ef 8305 	mrs	r3, IPSR
 8004a28:	b963      	cbnz	r3, 8004a44 <osEventFlagsNew+0x20>
 8004a2a:	f3ef 8310 	mrs	r3, PRIMASK
 8004a2e:	b94b      	cbnz	r3, 8004a44 <osEventFlagsNew+0x20>
 8004a30:	4b0c      	ldr	r3, [pc, #48]	; (8004a64 <osEventFlagsNew+0x40>)
 8004a32:	681b      	ldr	r3, [r3, #0]
 8004a34:	2b02      	cmp	r3, #2
 8004a36:	d00c      	beq.n	8004a52 <osEventFlagsNew+0x2e>
 8004a38:	b148      	cbz	r0, 8004a4e <osEventFlagsNew+0x2a>
 8004a3a:	6883      	ldr	r3, [r0, #8]
 8004a3c:	b123      	cbz	r3, 8004a48 <osEventFlagsNew+0x24>
 8004a3e:	68c2      	ldr	r2, [r0, #12]
 8004a40:	2a1f      	cmp	r2, #31
 8004a42:	d80b      	bhi.n	8004a5c <osEventFlagsNew+0x38>
 8004a44:	2000      	movs	r0, #0
 8004a46:	4770      	bx	lr
 8004a48:	68c3      	ldr	r3, [r0, #12]
 8004a4a:	2b00      	cmp	r3, #0
 8004a4c:	d1fa      	bne.n	8004a44 <osEventFlagsNew+0x20>
 8004a4e:	f000 ba49 	b.w	8004ee4 <xEventGroupCreate>
 8004a52:	f3ef 8311 	mrs	r3, BASEPRI
 8004a56:	2b00      	cmp	r3, #0
 8004a58:	d0ee      	beq.n	8004a38 <osEventFlagsNew+0x14>
 8004a5a:	e7f3      	b.n	8004a44 <osEventFlagsNew+0x20>
 8004a5c:	4618      	mov	r0, r3
 8004a5e:	f000 ba1b 	b.w	8004e98 <xEventGroupCreateStatic>
 8004a62:	bf00      	nop
 8004a64:	200001c8 	.word	0x200001c8

08004a68 <osEventFlagsSet>:
 8004a68:	2800      	cmp	r0, #0
 8004a6a:	d033      	beq.n	8004ad4 <osEventFlagsSet+0x6c>
 8004a6c:	b510      	push	{r4, lr}
 8004a6e:	f011 4f7f 	tst.w	r1, #4278190080	; 0xff000000
 8004a72:	460c      	mov	r4, r1
 8004a74:	b082      	sub	sp, #8
 8004a76:	d119      	bne.n	8004aac <osEventFlagsSet+0x44>
 8004a78:	f3ef 8305 	mrs	r3, IPSR
 8004a7c:	b913      	cbnz	r3, 8004a84 <osEventFlagsSet+0x1c>
 8004a7e:	f3ef 8310 	mrs	r3, PRIMASK
 8004a82:	b1bb      	cbz	r3, 8004ab4 <osEventFlagsSet+0x4c>
 8004a84:	2300      	movs	r3, #0
 8004a86:	4621      	mov	r1, r4
 8004a88:	aa01      	add	r2, sp, #4
 8004a8a:	9301      	str	r3, [sp, #4]
 8004a8c:	f000 fb40 	bl	8005110 <xEventGroupSetBitsFromISR>
 8004a90:	bb18      	cbnz	r0, 8004ada <osEventFlagsSet+0x72>
 8004a92:	9b01      	ldr	r3, [sp, #4]
 8004a94:	b1db      	cbz	r3, 8004ace <osEventFlagsSet+0x66>
 8004a96:	f04f 5280 	mov.w	r2, #268435456	; 0x10000000
 8004a9a:	4b12      	ldr	r3, [pc, #72]	; (8004ae4 <osEventFlagsSet+0x7c>)
 8004a9c:	601a      	str	r2, [r3, #0]
 8004a9e:	f3bf 8f4f 	dsb	sy
 8004aa2:	f3bf 8f6f 	isb	sy
 8004aa6:	4620      	mov	r0, r4
 8004aa8:	b002      	add	sp, #8
 8004aaa:	bd10      	pop	{r4, pc}
 8004aac:	f06f 0003 	mvn.w	r0, #3
 8004ab0:	b002      	add	sp, #8
 8004ab2:	bd10      	pop	{r4, pc}
 8004ab4:	4b0c      	ldr	r3, [pc, #48]	; (8004ae8 <osEventFlagsSet+0x80>)
 8004ab6:	681b      	ldr	r3, [r3, #0]
 8004ab8:	2b02      	cmp	r3, #2
 8004aba:	d103      	bne.n	8004ac4 <osEventFlagsSet+0x5c>
 8004abc:	f3ef 8311 	mrs	r3, BASEPRI
 8004ac0:	2b00      	cmp	r3, #0
 8004ac2:	d1df      	bne.n	8004a84 <osEventFlagsSet+0x1c>
 8004ac4:	4621      	mov	r1, r4
 8004ac6:	f000 fadf 	bl	8005088 <xEventGroupSetBits>
 8004aca:	b002      	add	sp, #8
 8004acc:	bd10      	pop	{r4, pc}
 8004ace:	4620      	mov	r0, r4
 8004ad0:	b002      	add	sp, #8
 8004ad2:	bd10      	pop	{r4, pc}
 8004ad4:	f06f 0003 	mvn.w	r0, #3
 8004ad8:	4770      	bx	lr
 8004ada:	f06f 0002 	mvn.w	r0, #2
 8004ade:	b002      	add	sp, #8
 8004ae0:	bd10      	pop	{r4, pc}
 8004ae2:	bf00      	nop
 8004ae4:	e000ed04 	.word	0xe000ed04
 8004ae8:	200001c8 	.word	0x200001c8

08004aec <osEventFlagsClear>:
 8004aec:	b538      	push	{r3, r4, r5, lr}
 8004aee:	b1c8      	cbz	r0, 8004b24 <osEventFlagsClear+0x38>
 8004af0:	f011 4f7f 	tst.w	r1, #4278190080	; 0xff000000
 8004af4:	460d      	mov	r5, r1
 8004af6:	d115      	bne.n	8004b24 <osEventFlagsClear+0x38>
 8004af8:	4604      	mov	r4, r0
 8004afa:	f3ef 8305 	mrs	r3, IPSR
 8004afe:	b913      	cbnz	r3, 8004b06 <osEventFlagsClear+0x1a>
 8004b00:	f3ef 8310 	mrs	r3, PRIMASK
 8004b04:	b193      	cbz	r3, 8004b2c <osEventFlagsClear+0x40>
 8004b06:	4620      	mov	r0, r4
 8004b08:	f000 fab0 	bl	800506c <xEventGroupGetBitsFromISR>
 8004b0c:	4603      	mov	r3, r0
 8004b0e:	4629      	mov	r1, r5
 8004b10:	4620      	mov	r0, r4
 8004b12:	461c      	mov	r4, r3
 8004b14:	f000 faa2 	bl	800505c <xEventGroupClearBitsFromISR>
 8004b18:	2800      	cmp	r0, #0
 8004b1a:	bf08      	it	eq
 8004b1c:	f06f 0402 	mvneq.w	r4, #2
 8004b20:	4620      	mov	r0, r4
 8004b22:	bd38      	pop	{r3, r4, r5, pc}
 8004b24:	f06f 0403 	mvn.w	r4, #3
 8004b28:	4620      	mov	r0, r4
 8004b2a:	bd38      	pop	{r3, r4, r5, pc}
 8004b2c:	4b06      	ldr	r3, [pc, #24]	; (8004b48 <osEventFlagsClear+0x5c>)
 8004b2e:	681b      	ldr	r3, [r3, #0]
 8004b30:	2b02      	cmp	r3, #2
 8004b32:	d103      	bne.n	8004b3c <osEventFlagsClear+0x50>
 8004b34:	f3ef 8311 	mrs	r3, BASEPRI
 8004b38:	2b00      	cmp	r3, #0
 8004b3a:	d1e4      	bne.n	8004b06 <osEventFlagsClear+0x1a>
 8004b3c:	4629      	mov	r1, r5
 8004b3e:	4620      	mov	r0, r4
 8004b40:	e8bd 4038 	ldmia.w	sp!, {r3, r4, r5, lr}
 8004b44:	f000 ba66 	b.w	8005014 <xEventGroupClearBits>
 8004b48:	200001c8 	.word	0x200001c8

08004b4c <osEventFlagsGet>:
 8004b4c:	4603      	mov	r3, r0
 8004b4e:	b198      	cbz	r0, 8004b78 <osEventFlagsGet+0x2c>
 8004b50:	f3ef 8205 	mrs	r2, IPSR
 8004b54:	b96a      	cbnz	r2, 8004b72 <osEventFlagsGet+0x26>
 8004b56:	f3ef 8210 	mrs	r2, PRIMASK
 8004b5a:	b952      	cbnz	r2, 8004b72 <osEventFlagsGet+0x26>
 8004b5c:	4a07      	ldr	r2, [pc, #28]	; (8004b7c <osEventFlagsGet+0x30>)
 8004b5e:	6812      	ldr	r2, [r2, #0]
 8004b60:	2a02      	cmp	r2, #2
 8004b62:	d102      	bne.n	8004b6a <osEventFlagsGet+0x1e>
 8004b64:	f3ef 8211 	mrs	r2, BASEPRI
 8004b68:	b91a      	cbnz	r2, 8004b72 <osEventFlagsGet+0x26>
 8004b6a:	4618      	mov	r0, r3
 8004b6c:	2100      	movs	r1, #0
 8004b6e:	f000 ba51 	b.w	8005014 <xEventGroupClearBits>
 8004b72:	4618      	mov	r0, r3
 8004b74:	f000 ba7a 	b.w	800506c <xEventGroupGetBitsFromISR>
 8004b78:	4770      	bx	lr
 8004b7a:	bf00      	nop
 8004b7c:	200001c8 	.word	0x200001c8

08004b80 <osEventFlagsWait>:
 8004b80:	b390      	cbz	r0, 8004be8 <osEventFlagsWait+0x68>
 8004b82:	b570      	push	{r4, r5, r6, lr}
 8004b84:	f011 4f7f 	tst.w	r1, #4278190080	; 0xff000000
 8004b88:	460c      	mov	r4, r1
 8004b8a:	b082      	sub	sp, #8
 8004b8c:	d128      	bne.n	8004be0 <osEventFlagsWait+0x60>
 8004b8e:	461d      	mov	r5, r3
 8004b90:	f3ef 8305 	mrs	r3, IPSR
 8004b94:	bb03      	cbnz	r3, 8004bd8 <osEventFlagsWait+0x58>
 8004b96:	f3ef 8310 	mrs	r3, PRIMASK
 8004b9a:	b9eb      	cbnz	r3, 8004bd8 <osEventFlagsWait+0x58>
 8004b9c:	4b15      	ldr	r3, [pc, #84]	; (8004bf4 <osEventFlagsWait+0x74>)
 8004b9e:	681b      	ldr	r3, [r3, #0]
 8004ba0:	2b02      	cmp	r3, #2
 8004ba2:	d015      	beq.n	8004bd0 <osEventFlagsWait+0x50>
 8004ba4:	f002 0601 	and.w	r6, r2, #1
 8004ba8:	f082 0202 	eor.w	r2, r2, #2
 8004bac:	4633      	mov	r3, r6
 8004bae:	4621      	mov	r1, r4
 8004bb0:	9500      	str	r5, [sp, #0]
 8004bb2:	f3c2 0240 	ubfx	r2, r2, #1, #1
 8004bb6:	f000 f9a3 	bl	8004f00 <xEventGroupWaitBits>
 8004bba:	b1c6      	cbz	r6, 8004bee <osEventFlagsWait+0x6e>
 8004bbc:	4284      	cmp	r4, r0
 8004bbe:	d00d      	beq.n	8004bdc <osEventFlagsWait+0x5c>
 8004bc0:	2d00      	cmp	r5, #0
 8004bc2:	bf14      	ite	ne
 8004bc4:	f06f 0001 	mvnne.w	r0, #1
 8004bc8:	f06f 0002 	mvneq.w	r0, #2
 8004bcc:	b002      	add	sp, #8
 8004bce:	bd70      	pop	{r4, r5, r6, pc}
 8004bd0:	f3ef 8311 	mrs	r3, BASEPRI
 8004bd4:	2b00      	cmp	r3, #0
 8004bd6:	d0e5      	beq.n	8004ba4 <osEventFlagsWait+0x24>
 8004bd8:	f06f 0005 	mvn.w	r0, #5
 8004bdc:	b002      	add	sp, #8
 8004bde:	bd70      	pop	{r4, r5, r6, pc}
 8004be0:	f06f 0003 	mvn.w	r0, #3
 8004be4:	b002      	add	sp, #8
 8004be6:	bd70      	pop	{r4, r5, r6, pc}
 8004be8:	f06f 0003 	mvn.w	r0, #3
 8004bec:	4770      	bx	lr
 8004bee:	4204      	tst	r4, r0
 8004bf0:	d0e6      	beq.n	8004bc0 <osEventFlagsWait+0x40>
 8004bf2:	e7f3      	b.n	8004bdc <osEventFlagsWait+0x5c>
 8004bf4:	200001c8 	.word	0x200001c8

08004bf8 <osMessageQueueNew>:
 8004bf8:	f3ef 8305 	mrs	r3, IPSR
 8004bfc:	bb63      	cbnz	r3, 8004c58 <osMessageQueueNew+0x60>
 8004bfe:	f3ef 8310 	mrs	r3, PRIMASK
 8004c02:	bb4b      	cbnz	r3, 8004c58 <osMessageQueueNew+0x60>
 8004c04:	b570      	push	{r4, r5, r6, lr}
 8004c06:	4b1f      	ldr	r3, [pc, #124]	; (8004c84 <osMessageQueueNew+0x8c>)
 8004c08:	4614      	mov	r4, r2
 8004c0a:	681b      	ldr	r3, [r3, #0]
 8004c0c:	b084      	sub	sp, #16
 8004c0e:	2b02      	cmp	r3, #2
 8004c10:	d024      	beq.n	8004c5c <osMessageQueueNew+0x64>
 8004c12:	b1f0      	cbz	r0, 8004c52 <osMessageQueueNew+0x5a>
 8004c14:	b1e9      	cbz	r1, 8004c52 <osMessageQueueNew+0x5a>
 8004c16:	b1bc      	cbz	r4, 8004c48 <osMessageQueueNew+0x50>
 8004c18:	68a3      	ldr	r3, [r4, #8]
 8004c1a:	b323      	cbz	r3, 8004c66 <osMessageQueueNew+0x6e>
 8004c1c:	68e2      	ldr	r2, [r4, #12]
 8004c1e:	2a4f      	cmp	r2, #79	; 0x4f
 8004c20:	d917      	bls.n	8004c52 <osMessageQueueNew+0x5a>
 8004c22:	6922      	ldr	r2, [r4, #16]
 8004c24:	b1aa      	cbz	r2, 8004c52 <osMessageQueueNew+0x5a>
 8004c26:	fb01 f500 	mul.w	r5, r1, r0
 8004c2a:	6966      	ldr	r6, [r4, #20]
 8004c2c:	42ae      	cmp	r6, r5
 8004c2e:	d310      	bcc.n	8004c52 <osMessageQueueNew+0x5a>
 8004c30:	2500      	movs	r5, #0
 8004c32:	9500      	str	r5, [sp, #0]
 8004c34:	f000 fb02 	bl	800523c <xQueueGenericCreateStatic>
 8004c38:	b158      	cbz	r0, 8004c52 <osMessageQueueNew+0x5a>
 8004c3a:	6824      	ldr	r4, [r4, #0]
 8004c3c:	4621      	mov	r1, r4
 8004c3e:	9003      	str	r0, [sp, #12]
 8004c40:	f000 ff8a 	bl	8005b58 <vQueueAddToRegistry>
 8004c44:	9803      	ldr	r0, [sp, #12]
 8004c46:	e005      	b.n	8004c54 <osMessageQueueNew+0x5c>
 8004c48:	4622      	mov	r2, r4
 8004c4a:	f000 fb69 	bl	8005320 <xQueueGenericCreate>
 8004c4e:	2800      	cmp	r0, #0
 8004c50:	d1f4      	bne.n	8004c3c <osMessageQueueNew+0x44>
 8004c52:	2000      	movs	r0, #0
 8004c54:	b004      	add	sp, #16
 8004c56:	bd70      	pop	{r4, r5, r6, pc}
 8004c58:	2000      	movs	r0, #0
 8004c5a:	4770      	bx	lr
 8004c5c:	f3ef 8311 	mrs	r3, BASEPRI
 8004c60:	2b00      	cmp	r3, #0
 8004c62:	d0d6      	beq.n	8004c12 <osMessageQueueNew+0x1a>
 8004c64:	e7f5      	b.n	8004c52 <osMessageQueueNew+0x5a>
 8004c66:	68e3      	ldr	r3, [r4, #12]
 8004c68:	2b00      	cmp	r3, #0
 8004c6a:	d1f2      	bne.n	8004c52 <osMessageQueueNew+0x5a>
 8004c6c:	6923      	ldr	r3, [r4, #16]
 8004c6e:	2b00      	cmp	r3, #0
 8004c70:	d1ef      	bne.n	8004c52 <osMessageQueueNew+0x5a>
 8004c72:	6962      	ldr	r2, [r4, #20]
 8004c74:	2a00      	cmp	r2, #0
 8004c76:	d1ec      	bne.n	8004c52 <osMessageQueueNew+0x5a>
 8004c78:	f000 fb52 	bl	8005320 <xQueueGenericCreate>
 8004c7c:	2800      	cmp	r0, #0
 8004c7e:	d1dc      	bne.n	8004c3a <osMessageQueueNew+0x42>
 8004c80:	e7e7      	b.n	8004c52 <osMessageQueueNew+0x5a>
 8004c82:	bf00      	nop
 8004c84:	200001c8 	.word	0x200001c8

08004c88 <osMessageQueuePut>:
 8004c88:	b510      	push	{r4, lr}
 8004c8a:	461c      	mov	r4, r3
 8004c8c:	b082      	sub	sp, #8
 8004c8e:	f3ef 8305 	mrs	r3, IPSR
 8004c92:	b913      	cbnz	r3, 8004c9a <osMessageQueuePut+0x12>
 8004c94:	f3ef 8310 	mrs	r3, PRIMASK
 8004c98:	b1cb      	cbz	r3, 8004cce <osMessageQueuePut+0x46>
 8004c9a:	b380      	cbz	r0, 8004cfe <osMessageQueuePut+0x76>
 8004c9c:	b379      	cbz	r1, 8004cfe <osMessageQueuePut+0x76>
 8004c9e:	bb74      	cbnz	r4, 8004cfe <osMessageQueuePut+0x76>
 8004ca0:	4623      	mov	r3, r4
 8004ca2:	aa01      	add	r2, sp, #4
 8004ca4:	9401      	str	r4, [sp, #4]
 8004ca6:	f000 fd0d 	bl	80056c4 <xQueueGenericSendFromISR>
 8004caa:	2801      	cmp	r0, #1
 8004cac:	d124      	bne.n	8004cf8 <osMessageQueuePut+0x70>
 8004cae:	9b01      	ldr	r3, [sp, #4]
 8004cb0:	b913      	cbnz	r3, 8004cb8 <osMessageQueuePut+0x30>
 8004cb2:	2000      	movs	r0, #0
 8004cb4:	b002      	add	sp, #8
 8004cb6:	bd10      	pop	{r4, pc}
 8004cb8:	f04f 5280 	mov.w	r2, #268435456	; 0x10000000
 8004cbc:	4b11      	ldr	r3, [pc, #68]	; (8004d04 <osMessageQueuePut+0x7c>)
 8004cbe:	601a      	str	r2, [r3, #0]
 8004cc0:	f3bf 8f4f 	dsb	sy
 8004cc4:	f3bf 8f6f 	isb	sy
 8004cc8:	4620      	mov	r0, r4
 8004cca:	b002      	add	sp, #8
 8004ccc:	bd10      	pop	{r4, pc}
 8004cce:	4b0e      	ldr	r3, [pc, #56]	; (8004d08 <osMessageQueuePut+0x80>)
 8004cd0:	681b      	ldr	r3, [r3, #0]
 8004cd2:	2b02      	cmp	r3, #2
 8004cd4:	d00b      	beq.n	8004cee <osMessageQueuePut+0x66>
 8004cd6:	b190      	cbz	r0, 8004cfe <osMessageQueuePut+0x76>
 8004cd8:	b189      	cbz	r1, 8004cfe <osMessageQueuePut+0x76>
 8004cda:	2300      	movs	r3, #0
 8004cdc:	4622      	mov	r2, r4
 8004cde:	f000 fb6b 	bl	80053b8 <xQueueGenericSend>
 8004ce2:	2801      	cmp	r0, #1
 8004ce4:	d0e5      	beq.n	8004cb2 <osMessageQueuePut+0x2a>
 8004ce6:	b13c      	cbz	r4, 8004cf8 <osMessageQueuePut+0x70>
 8004ce8:	f06f 0001 	mvn.w	r0, #1
 8004cec:	e7e2      	b.n	8004cb4 <osMessageQueuePut+0x2c>
 8004cee:	f3ef 8311 	mrs	r3, BASEPRI
 8004cf2:	2b00      	cmp	r3, #0
 8004cf4:	d1d1      	bne.n	8004c9a <osMessageQueuePut+0x12>
 8004cf6:	e7ee      	b.n	8004cd6 <osMessageQueuePut+0x4e>
 8004cf8:	f06f 0002 	mvn.w	r0, #2
 8004cfc:	e7da      	b.n	8004cb4 <osMessageQueuePut+0x2c>
 8004cfe:	f06f 0003 	mvn.w	r0, #3
 8004d02:	e7d7      	b.n	8004cb4 <osMessageQueuePut+0x2c>
 8004d04:	e000ed04 	.word	0xe000ed04
 8004d08:	200001c8 	.word	0x200001c8

08004d0c <osMessageQueueGet>:
 8004d0c:	b510      	push	{r4, lr}
 8004d0e:	461c      	mov	r4, r3
 8004d10:	b082      	sub	sp, #8
 8004d12:	f3ef 8305 	mrs	r3, IPSR
 8004d16:	b913      	cbnz	r3, 8004d1e <osMessageQueueGet+0x12>
 8004d18:	f3ef 8310 	mrs	r3, PRIMASK
 8004d1c:	b1c3      	cbz	r3, 8004d50 <osMessageQueueGet+0x44>
 8004d1e:	b370      	cbz	r0, 8004d7e <osMessageQueueGet+0x72>
 8004d20:	b369      	cbz	r1, 8004d7e <osMessageQueueGet+0x72>
 8004d22:	bb64      	cbnz	r4, 8004d7e <osMessageQueueGet+0x72>
 8004d24:	aa01      	add	r2, sp, #4
 8004d26:	9401      	str	r4, [sp, #4]
 8004d28:	f000 feb8 	bl	8005a9c <xQueueReceiveFromISR>
 8004d2c:	2801      	cmp	r0, #1
 8004d2e:	d123      	bne.n	8004d78 <osMessageQueueGet+0x6c>
 8004d30:	9b01      	ldr	r3, [sp, #4]
 8004d32:	b913      	cbnz	r3, 8004d3a <osMessageQueueGet+0x2e>
 8004d34:	2000      	movs	r0, #0
 8004d36:	b002      	add	sp, #8
 8004d38:	bd10      	pop	{r4, pc}
 8004d3a:	f04f 5280 	mov.w	r2, #268435456	; 0x10000000
 8004d3e:	4b11      	ldr	r3, [pc, #68]	; (8004d84 <osMessageQueueGet+0x78>)
 8004d40:	601a      	str	r2, [r3, #0]
 8004d42:	f3bf 8f4f 	dsb	sy
 8004d46:	f3bf 8f6f 	isb	sy
 8004d4a:	4620      	mov	r0, r4
 8004d4c:	b002      	add	sp, #8
 8004d4e:	bd10      	pop	{r4, pc}
 8004d50:	4b0d      	ldr	r3, [pc, #52]	; (8004d88 <osMessageQueueGet+0x7c>)
 8004d52:	681b      	ldr	r3, [r3, #0]
 8004d54:	2b02      	cmp	r3, #2
 8004d56:	d00a      	beq.n	8004d6e <osMessageQueueGet+0x62>
 8004d58:	b188      	cbz	r0, 8004d7e <osMessageQueueGet+0x72>
 8004d5a:	b181      	cbz	r1, 8004d7e <osMessageQueueGet+0x72>
 8004d5c:	4622      	mov	r2, r4
 8004d5e:	f000 fd17 	bl	8005790 <xQueueReceive>
 8004d62:	2801      	cmp	r0, #1
 8004d64:	d0e6      	beq.n	8004d34 <osMessageQueueGet+0x28>
 8004d66:	b13c      	cbz	r4, 8004d78 <osMessageQueueGet+0x6c>
 8004d68:	f06f 0001 	mvn.w	r0, #1
 8004d6c:	e7e3      	b.n	8004d36 <osMessageQueueGet+0x2a>
 8004d6e:	f3ef 8311 	mrs	r3, BASEPRI
 8004d72:	2b00      	cmp	r3, #0
 8004d74:	d1d3      	bne.n	8004d1e <osMessageQueueGet+0x12>
 8004d76:	e7ef      	b.n	8004d58 <osMessageQueueGet+0x4c>
 8004d78:	f06f 0002 	mvn.w	r0, #2
 8004d7c:	e7db      	b.n	8004d36 <osMessageQueueGet+0x2a>
 8004d7e:	f06f 0003 	mvn.w	r0, #3
 8004d82:	e7d8      	b.n	8004d36 <osMessageQueueGet+0x2a>
 8004d84:	e000ed04 	.word	0xe000ed04
 8004d88:	200001c8 	.word	0x200001c8

08004d8c <vApplicationGetIdleTaskMemory>:
 8004d8c:	2340      	movs	r3, #64	; 0x40
 8004d8e:	b430      	push	{r4, r5}
 8004d90:	4d03      	ldr	r5, [pc, #12]	; (8004da0 <vApplicationGetIdleTaskMemory+0x14>)
 8004d92:	4c04      	ldr	r4, [pc, #16]	; (8004da4 <vApplicationGetIdleTaskMemory+0x18>)
 8004d94:	6005      	str	r5, [r0, #0]
 8004d96:	600c      	str	r4, [r1, #0]
 8004d98:	6013      	str	r3, [r2, #0]
 8004d9a:	bc30      	pop	{r4, r5}
 8004d9c:	4770      	bx	lr
 8004d9e:	bf00      	nop
 8004da0:	2000015c 	.word	0x2000015c
 8004da4:	2000005c 	.word	0x2000005c

08004da8 <vApplicationGetTimerTaskMemory>:
 8004da8:	2380      	movs	r3, #128	; 0x80
 8004daa:	b430      	push	{r4, r5}
 8004dac:	4d03      	ldr	r5, [pc, #12]	; (8004dbc <vApplicationGetTimerTaskMemory+0x14>)
 8004dae:	4c04      	ldr	r4, [pc, #16]	; (8004dc0 <vApplicationGetTimerTaskMemory+0x18>)
 8004db0:	6005      	str	r5, [r0, #0]
 8004db2:	600c      	str	r4, [r1, #0]
 8004db4:	6013      	str	r3, [r2, #0]
 8004db6:	bc30      	pop	{r4, r5}
 8004db8:	4770      	bx	lr
 8004dba:	bf00      	nop
 8004dbc:	200003cc 	.word	0x200003cc
 8004dc0:	200001cc 	.word	0x200001cc

08004dc4 <vEventGroupClearBitsCallback>:
 8004dc4:	b538      	push	{r3, r4, r5, lr}
 8004dc6:	b1b8      	cbz	r0, 8004df8 <vEventGroupClearBitsCallback+0x34>
 8004dc8:	f011 4f7f 	tst.w	r1, #4278190080	; 0xff000000
 8004dcc:	460d      	mov	r5, r1
 8004dce:	d008      	beq.n	8004de2 <vEventGroupClearBitsCallback+0x1e>
 8004dd0:	f04f 0350 	mov.w	r3, #80	; 0x50
 8004dd4:	f383 8811 	msr	BASEPRI, r3
 8004dd8:	f3bf 8f6f 	isb	sy
 8004ddc:	f3bf 8f4f 	dsb	sy
 8004de0:	e7fe      	b.n	8004de0 <vEventGroupClearBitsCallback+0x1c>
 8004de2:	4604      	mov	r4, r0
 8004de4:	f002 fa7e 	bl	80072e4 <vPortEnterCritical>
 8004de8:	6821      	ldr	r1, [r4, #0]
 8004dea:	ea21 0105 	bic.w	r1, r1, r5
 8004dee:	6021      	str	r1, [r4, #0]
 8004df0:	e8bd 4038 	ldmia.w	sp!, {r3, r4, r5, lr}
 8004df4:	f002 ba98 	b.w	8007328 <vPortExitCritical>
 8004df8:	f04f 0350 	mov.w	r3, #80	; 0x50
 8004dfc:	f383 8811 	msr	BASEPRI, r3
 8004e00:	f3bf 8f6f 	isb	sy
 8004e04:	f3bf 8f4f 	dsb	sy
 8004e08:	e7fe      	b.n	8004e08 <vEventGroupClearBitsCallback+0x44>
 8004e0a:	bf00      	nop

08004e0c <vEventGroupSetBitsCallback>:
 8004e0c:	b5f8      	push	{r3, r4, r5, r6, r7, lr}
 8004e0e:	2800      	cmp	r0, #0
 8004e10:	d038      	beq.n	8004e84 <vEventGroupSetBitsCallback+0x78>
 8004e12:	f011 477f 	ands.w	r7, r1, #4278190080	; 0xff000000
 8004e16:	460c      	mov	r4, r1
 8004e18:	d008      	beq.n	8004e2c <vEventGroupSetBitsCallback+0x20>
 8004e1a:	f04f 0350 	mov.w	r3, #80	; 0x50
 8004e1e:	f383 8811 	msr	BASEPRI, r3
 8004e22:	f3bf 8f6f 	isb	sy
 8004e26:	f3bf 8f4f 	dsb	sy
 8004e2a:	e7fe      	b.n	8004e2a <vEventGroupSetBitsCallback+0x1e>
 8004e2c:	4605      	mov	r5, r0
 8004e2e:	f001 f967 	bl	8006100 <vTaskSuspendAll>
 8004e32:	6829      	ldr	r1, [r5, #0]
 8004e34:	692e      	ldr	r6, [r5, #16]
 8004e36:	4321      	orrs	r1, r4
 8004e38:	f105 040c 	add.w	r4, r5, #12
 8004e3c:	42b4      	cmp	r4, r6
 8004e3e:	6029      	str	r1, [r5, #0]
 8004e40:	d10c      	bne.n	8004e5c <vEventGroupSetBitsCallback+0x50>
 8004e42:	e01a      	b.n	8004e7a <vEventGroupSetBitsCallback+0x6e>
 8004e44:	4211      	tst	r1, r2
 8004e46:	d007      	beq.n	8004e58 <vEventGroupSetBitsCallback+0x4c>
 8004e48:	01db      	lsls	r3, r3, #7
 8004e4a:	f041 7100 	orr.w	r1, r1, #33554432	; 0x2000000
 8004e4e:	bf48      	it	mi
 8004e50:	4317      	orrmi	r7, r2
 8004e52:	f001 fc75 	bl	8006740 <vTaskRemoveFromUnorderedEventList>
 8004e56:	6829      	ldr	r1, [r5, #0]
 8004e58:	42b4      	cmp	r4, r6
 8004e5a:	d00c      	beq.n	8004e76 <vEventGroupSetBitsCallback+0x6a>
 8004e5c:	6833      	ldr	r3, [r6, #0]
 8004e5e:	4630      	mov	r0, r6
 8004e60:	f013 6f80 	tst.w	r3, #67108864	; 0x4000000
 8004e64:	6876      	ldr	r6, [r6, #4]
 8004e66:	f023 427f 	bic.w	r2, r3, #4278190080	; 0xff000000
 8004e6a:	d0eb      	beq.n	8004e44 <vEventGroupSetBitsCallback+0x38>
 8004e6c:	ea32 0c01 	bics.w	ip, r2, r1
 8004e70:	d0ea      	beq.n	8004e48 <vEventGroupSetBitsCallback+0x3c>
 8004e72:	42b4      	cmp	r4, r6
 8004e74:	d1f2      	bne.n	8004e5c <vEventGroupSetBitsCallback+0x50>
 8004e76:	ea21 0107 	bic.w	r1, r1, r7
 8004e7a:	6029      	str	r1, [r5, #0]
 8004e7c:	e8bd 40f8 	ldmia.w	sp!, {r3, r4, r5, r6, r7, lr}
 8004e80:	f001 ba8a 	b.w	8006398 <xTaskResumeAll>
 8004e84:	f04f 0350 	mov.w	r3, #80	; 0x50
 8004e88:	f383 8811 	msr	BASEPRI, r3
 8004e8c:	f3bf 8f6f 	isb	sy
 8004e90:	f3bf 8f4f 	dsb	sy
 8004e94:	e7fe      	b.n	8004e94 <vEventGroupSetBitsCallback+0x88>
 8004e96:	bf00      	nop

08004e98 <xEventGroupCreateStatic>:
 8004e98:	b178      	cbz	r0, 8004eba <xEventGroupCreateStatic+0x22>
 8004e9a:	2320      	movs	r3, #32
 8004e9c:	b510      	push	{r4, lr}
 8004e9e:	b082      	sub	sp, #8
 8004ea0:	9301      	str	r3, [sp, #4]
 8004ea2:	9b01      	ldr	r3, [sp, #4]
 8004ea4:	2b20      	cmp	r3, #32
 8004ea6:	d011      	beq.n	8004ecc <xEventGroupCreateStatic+0x34>
 8004ea8:	f04f 0350 	mov.w	r3, #80	; 0x50
 8004eac:	f383 8811 	msr	BASEPRI, r3
 8004eb0:	f3bf 8f6f 	isb	sy
 8004eb4:	f3bf 8f4f 	dsb	sy
 8004eb8:	e7fe      	b.n	8004eb8 <xEventGroupCreateStatic+0x20>
 8004eba:	f04f 0350 	mov.w	r3, #80	; 0x50
 8004ebe:	f383 8811 	msr	BASEPRI, r3
 8004ec2:	f3bf 8f6f 	isb	sy
 8004ec6:	f3bf 8f4f 	dsb	sy
 8004eca:	e7fe      	b.n	8004eca <xEventGroupCreateStatic+0x32>
 8004ecc:	2300      	movs	r3, #0
 8004ece:	4604      	mov	r4, r0
 8004ed0:	f840 3b04 	str.w	r3, [r0], #4
 8004ed4:	f000 f928 	bl	8005128 <vListInitialise>
 8004ed8:	2301      	movs	r3, #1
 8004eda:	4620      	mov	r0, r4
 8004edc:	7723      	strb	r3, [r4, #28]
 8004ede:	b002      	add	sp, #8
 8004ee0:	bd10      	pop	{r4, pc}
 8004ee2:	bf00      	nop

08004ee4 <xEventGroupCreate>:
 8004ee4:	b538      	push	{r3, r4, r5, lr}
 8004ee6:	2020      	movs	r0, #32
 8004ee8:	f002 fb28 	bl	800753c <pvPortMalloc>
 8004eec:	4604      	mov	r4, r0
 8004eee:	b128      	cbz	r0, 8004efc <xEventGroupCreate+0x18>
 8004ef0:	2500      	movs	r5, #0
 8004ef2:	f840 5b04 	str.w	r5, [r0], #4
 8004ef6:	f000 f917 	bl	8005128 <vListInitialise>
 8004efa:	7725      	strb	r5, [r4, #28]
 8004efc:	4620      	mov	r0, r4
 8004efe:	bd38      	pop	{r3, r4, r5, pc}

08004f00 <xEventGroupWaitBits>:
 8004f00:	e92d 47f0 	stmdb	sp!, {r4, r5, r6, r7, r8, r9, sl, lr}
 8004f04:	f8dd 9020 	ldr.w	r9, [sp, #32]
 8004f08:	b1b0      	cbz	r0, 8004f38 <xEventGroupWaitBits+0x38>
 8004f0a:	f011 4a7f 	ands.w	sl, r1, #4278190080	; 0xff000000
 8004f0e:	460c      	mov	r4, r1
 8004f10:	d109      	bne.n	8004f26 <xEventGroupWaitBits+0x26>
 8004f12:	b9d1      	cbnz	r1, 8004f4a <xEventGroupWaitBits+0x4a>
 8004f14:	f04f 0350 	mov.w	r3, #80	; 0x50
 8004f18:	f383 8811 	msr	BASEPRI, r3
 8004f1c:	f3bf 8f6f 	isb	sy
 8004f20:	f3bf 8f4f 	dsb	sy
 8004f24:	e7fe      	b.n	8004f24 <xEventGroupWaitBits+0x24>
 8004f26:	f04f 0350 	mov.w	r3, #80	; 0x50
 8004f2a:	f383 8811 	msr	BASEPRI, r3
 8004f2e:	f3bf 8f6f 	isb	sy
 8004f32:	f3bf 8f4f 	dsb	sy
 8004f36:	e7fe      	b.n	8004f36 <xEventGroupWaitBits+0x36>
 8004f38:	f04f 0350 	mov.w	r3, #80	; 0x50
 8004f3c:	f383 8811 	msr	BASEPRI, r3
 8004f40:	f3bf 8f6f 	isb	sy
 8004f44:	f3bf 8f4f 	dsb	sy
 8004f48:	e7fe      	b.n	8004f48 <xEventGroupWaitBits+0x48>
 8004f4a:	4617      	mov	r7, r2
 8004f4c:	4698      	mov	r8, r3
 8004f4e:	4606      	mov	r6, r0
 8004f50:	f001 fc94 	bl	800687c <xTaskGetSchedulerState>
 8004f54:	b910      	cbnz	r0, 8004f5c <xEventGroupWaitBits+0x5c>
 8004f56:	f1b9 0f00 	cmp.w	r9, #0
 8004f5a:	d130      	bne.n	8004fbe <xEventGroupWaitBits+0xbe>
 8004f5c:	f001 f8d0 	bl	8006100 <vTaskSuspendAll>
 8004f60:	6835      	ldr	r5, [r6, #0]
 8004f62:	f1b8 0f00 	cmp.w	r8, #0
 8004f66:	d133      	bne.n	8004fd0 <xEventGroupWaitBits+0xd0>
 8004f68:	422c      	tst	r4, r5
 8004f6a:	d134      	bne.n	8004fd6 <xEventGroupWaitBits+0xd6>
 8004f6c:	f1b9 0f00 	cmp.w	r9, #0
 8004f70:	d038      	beq.n	8004fe4 <xEventGroupWaitBits+0xe4>
 8004f72:	2f00      	cmp	r7, #0
 8004f74:	bf16      	itet	ne
 8004f76:	f04f 7a80 	movne.w	sl, #16777216	; 0x1000000
 8004f7a:	f04f 6180 	moveq.w	r1, #67108864	; 0x4000000
 8004f7e:	f04f 61a0 	movne.w	r1, #83886080	; 0x5000000
 8004f82:	f1b8 0f00 	cmp.w	r8, #0
 8004f86:	bf08      	it	eq
 8004f88:	4651      	moveq	r1, sl
 8004f8a:	464a      	mov	r2, r9
 8004f8c:	4321      	orrs	r1, r4
 8004f8e:	1d30      	adds	r0, r6, #4
 8004f90:	f001 faee 	bl	8006570 <vTaskPlaceOnUnorderedEventList>
 8004f94:	f001 fa00 	bl	8006398 <xTaskResumeAll>
 8004f98:	b938      	cbnz	r0, 8004faa <xEventGroupWaitBits+0xaa>
 8004f9a:	f04f 5280 	mov.w	r2, #268435456	; 0x10000000
 8004f9e:	4b1c      	ldr	r3, [pc, #112]	; (8005010 <xEventGroupWaitBits+0x110>)
 8004fa0:	601a      	str	r2, [r3, #0]
 8004fa2:	f3bf 8f4f 	dsb	sy
 8004fa6:	f3bf 8f6f 	isb	sy
 8004faa:	f001 fcbb 	bl	8006924 <uxTaskResetEventItemValue>
 8004fae:	0183      	lsls	r3, r0, #6
 8004fb0:	4605      	mov	r5, r0
 8004fb2:	d51a      	bpl.n	8004fea <xEventGroupWaitBits+0xea>
 8004fb4:	f025 457f 	bic.w	r5, r5, #4278190080	; 0xff000000
 8004fb8:	4628      	mov	r0, r5
 8004fba:	e8bd 87f0 	ldmia.w	sp!, {r4, r5, r6, r7, r8, r9, sl, pc}
 8004fbe:	f04f 0350 	mov.w	r3, #80	; 0x50
 8004fc2:	f383 8811 	msr	BASEPRI, r3
 8004fc6:	f3bf 8f6f 	isb	sy
 8004fca:	f3bf 8f4f 	dsb	sy
 8004fce:	e7fe      	b.n	8004fce <xEventGroupWaitBits+0xce>
 8004fd0:	ea34 0305 	bics.w	r3, r4, r5
 8004fd4:	d1ca      	bne.n	8004f6c <xEventGroupWaitBits+0x6c>
 8004fd6:	b12f      	cbz	r7, 8004fe4 <xEventGroupWaitBits+0xe4>
 8004fd8:	ea25 0404 	bic.w	r4, r5, r4
 8004fdc:	6034      	str	r4, [r6, #0]
 8004fde:	f001 f9db 	bl	8006398 <xTaskResumeAll>
 8004fe2:	e7e9      	b.n	8004fb8 <xEventGroupWaitBits+0xb8>
 8004fe4:	f001 f9d8 	bl	8006398 <xTaskResumeAll>
 8004fe8:	e7e6      	b.n	8004fb8 <xEventGroupWaitBits+0xb8>
 8004fea:	f002 f97b 	bl	80072e4 <vPortEnterCritical>
 8004fee:	6835      	ldr	r5, [r6, #0]
 8004ff0:	f1b8 0f00 	cmp.w	r8, #0
 8004ff4:	d106      	bne.n	8005004 <xEventGroupWaitBits+0x104>
 8004ff6:	422c      	tst	r4, r5
 8004ff8:	d007      	beq.n	800500a <xEventGroupWaitBits+0x10a>
 8004ffa:	b137      	cbz	r7, 800500a <xEventGroupWaitBits+0x10a>
 8004ffc:	ea25 0404 	bic.w	r4, r5, r4
 8005000:	6034      	str	r4, [r6, #0]
 8005002:	e002      	b.n	800500a <xEventGroupWaitBits+0x10a>
 8005004:	ea34 0305 	bics.w	r3, r4, r5
 8005008:	d0f7      	beq.n	8004ffa <xEventGroupWaitBits+0xfa>
 800500a:	f002 f98d 	bl	8007328 <vPortExitCritical>
 800500e:	e7d1      	b.n	8004fb4 <xEventGroupWaitBits+0xb4>
 8005010:	e000ed04 	.word	0xe000ed04

08005014 <xEventGroupClearBits>:
 8005014:	b168      	cbz	r0, 8005032 <xEventGroupClearBits+0x1e>
 8005016:	f011 4f7f 	tst.w	r1, #4278190080	; 0xff000000
 800501a:	b570      	push	{r4, r5, r6, lr}
 800501c:	460c      	mov	r4, r1
 800501e:	d011      	beq.n	8005044 <xEventGroupClearBits+0x30>
 8005020:	f04f 0350 	mov.w	r3, #80	; 0x50
 8005024:	f383 8811 	msr	BASEPRI, r3
 8005028:	f3bf 8f6f 	isb	sy
 800502c:	f3bf 8f4f 	dsb	sy
 8005030:	e7fe      	b.n	8005030 <xEventGroupClearBits+0x1c>
 8005032:	f04f 0350 	mov.w	r3, #80	; 0x50
 8005036:	f383 8811 	msr	BASEPRI, r3
 800503a:	f3bf 8f6f 	isb	sy
 800503e:	f3bf 8f4f 	dsb	sy
 8005042:	e7fe      	b.n	8005042 <xEventGroupClearBits+0x2e>
 8005044:	4605      	mov	r5, r0
 8005046:	f002 f94d 	bl	80072e4 <vPortEnterCritical>
 800504a:	682e      	ldr	r6, [r5, #0]
 800504c:	ea26 0404 	bic.w	r4, r6, r4
 8005050:	602c      	str	r4, [r5, #0]
 8005052:	f002 f969 	bl	8007328 <vPortExitCritical>
 8005056:	4630      	mov	r0, r6
 8005058:	bd70      	pop	{r4, r5, r6, pc}
 800505a:	bf00      	nop

0800505c <xEventGroupClearBitsFromISR>:
 800505c:	460a      	mov	r2, r1
 800505e:	2300      	movs	r3, #0
 8005060:	4601      	mov	r1, r0
 8005062:	4801      	ldr	r0, [pc, #4]	; (8005068 <xEventGroupClearBitsFromISR+0xc>)
 8005064:	f002 b8d2 	b.w	800720c <xTimerPendFunctionCallFromISR>
 8005068:	08004dc5 	.word	0x08004dc5

0800506c <xEventGroupGetBitsFromISR>:
 800506c:	f3ef 8311 	mrs	r3, BASEPRI
 8005070:	f04f 0250 	mov.w	r2, #80	; 0x50
 8005074:	f382 8811 	msr	BASEPRI, r2
 8005078:	f3bf 8f6f 	isb	sy
 800507c:	f3bf 8f4f 	dsb	sy
 8005080:	6800      	ldr	r0, [r0, #0]
 8005082:	f383 8811 	msr	BASEPRI, r3
 8005086:	4770      	bx	lr

08005088 <xEventGroupSetBits>:
 8005088:	b5f8      	push	{r3, r4, r5, r6, r7, lr}
 800508a:	b160      	cbz	r0, 80050a6 <xEventGroupSetBits+0x1e>
 800508c:	f011 477f 	ands.w	r7, r1, #4278190080	; 0xff000000
 8005090:	460c      	mov	r4, r1
 8005092:	d011      	beq.n	80050b8 <xEventGroupSetBits+0x30>
 8005094:	f04f 0350 	mov.w	r3, #80	; 0x50
 8005098:	f383 8811 	msr	BASEPRI, r3
 800509c:	f3bf 8f6f 	isb	sy
 80050a0:	f3bf 8f4f 	dsb	sy
 80050a4:	e7fe      	b.n	80050a4 <xEventGroupSetBits+0x1c>
 80050a6:	f04f 0350 	mov.w	r3, #80	; 0x50
 80050aa:	f383 8811 	msr	BASEPRI, r3
 80050ae:	f3bf 8f6f 	isb	sy
 80050b2:	f3bf 8f4f 	dsb	sy
 80050b6:	e7fe      	b.n	80050b6 <xEventGroupSetBits+0x2e>
 80050b8:	4605      	mov	r5, r0
 80050ba:	f001 f821 	bl	8006100 <vTaskSuspendAll>
 80050be:	6829      	ldr	r1, [r5, #0]
 80050c0:	692e      	ldr	r6, [r5, #16]
 80050c2:	4321      	orrs	r1, r4
 80050c4:	f105 040c 	add.w	r4, r5, #12
 80050c8:	42b4      	cmp	r4, r6
 80050ca:	6029      	str	r1, [r5, #0]
 80050cc:	d10c      	bne.n	80050e8 <xEventGroupSetBits+0x60>
 80050ce:	e01a      	b.n	8005106 <xEventGroupSetBits+0x7e>
 80050d0:	4219      	tst	r1, r3
 80050d2:	d007      	beq.n	80050e4 <xEventGroupSetBits+0x5c>
 80050d4:	01d2      	lsls	r2, r2, #7
 80050d6:	f041 7100 	orr.w	r1, r1, #33554432	; 0x2000000
 80050da:	bf48      	it	mi
 80050dc:	431f      	orrmi	r7, r3
 80050de:	f001 fb2f 	bl	8006740 <vTaskRemoveFromUnorderedEventList>
 80050e2:	6829      	ldr	r1, [r5, #0]
 80050e4:	42b4      	cmp	r4, r6
 80050e6:	d00c      	beq.n	8005102 <xEventGroupSetBits+0x7a>
 80050e8:	6832      	ldr	r2, [r6, #0]
 80050ea:	4630      	mov	r0, r6
 80050ec:	f012 6f80 	tst.w	r2, #67108864	; 0x4000000
 80050f0:	6876      	ldr	r6, [r6, #4]
 80050f2:	f022 437f 	bic.w	r3, r2, #4278190080	; 0xff000000
 80050f6:	d0eb      	beq.n	80050d0 <xEventGroupSetBits+0x48>
 80050f8:	ea33 0c01 	bics.w	ip, r3, r1
 80050fc:	d0ea      	beq.n	80050d4 <xEventGroupSetBits+0x4c>
 80050fe:	42b4      	cmp	r4, r6
 8005100:	d1f2      	bne.n	80050e8 <xEventGroupSetBits+0x60>
 8005102:	ea21 0107 	bic.w	r1, r1, r7
 8005106:	6029      	str	r1, [r5, #0]
 8005108:	f001 f946 	bl	8006398 <xTaskResumeAll>
 800510c:	6828      	ldr	r0, [r5, #0]
 800510e:	bdf8      	pop	{r3, r4, r5, r6, r7, pc}

08005110 <xEventGroupSetBitsFromISR>:
 8005110:	b410      	push	{r4}
 8005112:	460c      	mov	r4, r1
 8005114:	4613      	mov	r3, r2
 8005116:	4601      	mov	r1, r0
 8005118:	4622      	mov	r2, r4
 800511a:	4802      	ldr	r0, [pc, #8]	; (8005124 <xEventGroupSetBitsFromISR+0x14>)
 800511c:	bc10      	pop	{r4}
 800511e:	f002 b875 	b.w	800720c <xTimerPendFunctionCallFromISR>
 8005122:	bf00      	nop
 8005124:	08004e0d 	.word	0x08004e0d

08005128 <vListInitialise>:
 8005128:	f04f 31ff 	mov.w	r1, #4294967295
 800512c:	2200      	movs	r2, #0
 800512e:	f100 0308 	add.w	r3, r0, #8
 8005132:	e9c0 3303 	strd	r3, r3, [r0, #12]
 8005136:	6081      	str	r1, [r0, #8]
 8005138:	6002      	str	r2, [r0, #0]
 800513a:	6043      	str	r3, [r0, #4]
 800513c:	4770      	bx	lr
 800513e:	bf00      	nop

08005140 <vListInitialiseItem>:
 8005140:	2300      	movs	r3, #0
 8005142:	6103      	str	r3, [r0, #16]
 8005144:	4770      	bx	lr
 8005146:	bf00      	nop

08005148 <vListInsertEnd>:
 8005148:	6843      	ldr	r3, [r0, #4]
 800514a:	b410      	push	{r4}
 800514c:	689c      	ldr	r4, [r3, #8]
 800514e:	6802      	ldr	r2, [r0, #0]
 8005150:	608c      	str	r4, [r1, #8]
 8005152:	689c      	ldr	r4, [r3, #8]
 8005154:	3201      	adds	r2, #1
 8005156:	604b      	str	r3, [r1, #4]
 8005158:	6061      	str	r1, [r4, #4]
 800515a:	6099      	str	r1, [r3, #8]
 800515c:	bc10      	pop	{r4}
 800515e:	6108      	str	r0, [r1, #16]
 8005160:	6002      	str	r2, [r0, #0]
 8005162:	4770      	bx	lr

08005164 <vListInsert>:
 8005164:	b430      	push	{r4, r5}
 8005166:	680d      	ldr	r5, [r1, #0]
 8005168:	1c6b      	adds	r3, r5, #1
 800516a:	d010      	beq.n	800518e <vListInsert+0x2a>
 800516c:	f100 0308 	add.w	r3, r0, #8
 8005170:	461c      	mov	r4, r3
 8005172:	685b      	ldr	r3, [r3, #4]
 8005174:	681a      	ldr	r2, [r3, #0]
 8005176:	42aa      	cmp	r2, r5
 8005178:	d9fa      	bls.n	8005170 <vListInsert+0xc>
 800517a:	6802      	ldr	r2, [r0, #0]
 800517c:	604b      	str	r3, [r1, #4]
 800517e:	3201      	adds	r2, #1
 8005180:	6099      	str	r1, [r3, #8]
 8005182:	608c      	str	r4, [r1, #8]
 8005184:	6061      	str	r1, [r4, #4]
 8005186:	6108      	str	r0, [r1, #16]
 8005188:	bc30      	pop	{r4, r5}
 800518a:	6002      	str	r2, [r0, #0]
 800518c:	4770      	bx	lr
 800518e:	6904      	ldr	r4, [r0, #16]
 8005190:	6863      	ldr	r3, [r4, #4]
 8005192:	e7f2      	b.n	800517a <vListInsert+0x16>

08005194 <uxListRemove>:
 8005194:	6903      	ldr	r3, [r0, #16]
 8005196:	b410      	push	{r4}
 8005198:	e9d0 1201 	ldrd	r1, r2, [r0, #4]
 800519c:	685c      	ldr	r4, [r3, #4]
 800519e:	608a      	str	r2, [r1, #8]
 80051a0:	6051      	str	r1, [r2, #4]
 80051a2:	2100      	movs	r1, #0
 80051a4:	4284      	cmp	r4, r0
 80051a6:	bf08      	it	eq
 80051a8:	605a      	streq	r2, [r3, #4]
 80051aa:	681a      	ldr	r2, [r3, #0]
 80051ac:	6101      	str	r1, [r0, #16]
 80051ae:	3a01      	subs	r2, #1
 80051b0:	601a      	str	r2, [r3, #0]
 80051b2:	6818      	ldr	r0, [r3, #0]
 80051b4:	bc10      	pop	{r4}
 80051b6:	4770      	bx	lr

080051b8 <prvCopyDataToQueue>:
 80051b8:	b570      	push	{r4, r5, r6, lr}
 80051ba:	4604      	mov	r4, r0
 80051bc:	6c00      	ldr	r0, [r0, #64]	; 0x40
 80051be:	6ba6      	ldr	r6, [r4, #56]	; 0x38
 80051c0:	b928      	cbnz	r0, 80051ce <prvCopyDataToQueue+0x16>
 80051c2:	6825      	ldr	r5, [r4, #0]
 80051c4:	2d00      	cmp	r5, #0
 80051c6:	d02e      	beq.n	8005226 <prvCopyDataToQueue+0x6e>
 80051c8:	3601      	adds	r6, #1
 80051ca:	63a6      	str	r6, [r4, #56]	; 0x38
 80051cc:	bd70      	pop	{r4, r5, r6, pc}
 80051ce:	4615      	mov	r5, r2
 80051d0:	4602      	mov	r2, r0
 80051d2:	b97d      	cbnz	r5, 80051f4 <prvCopyDataToQueue+0x3c>
 80051d4:	68a0      	ldr	r0, [r4, #8]
 80051d6:	f002 fce9 	bl	8007bac <memcpy>
 80051da:	68a3      	ldr	r3, [r4, #8]
 80051dc:	6c21      	ldr	r1, [r4, #64]	; 0x40
 80051de:	6862      	ldr	r2, [r4, #4]
 80051e0:	440b      	add	r3, r1
 80051e2:	4293      	cmp	r3, r2
 80051e4:	60a3      	str	r3, [r4, #8]
 80051e6:	d31a      	bcc.n	800521e <prvCopyDataToQueue+0x66>
 80051e8:	6822      	ldr	r2, [r4, #0]
 80051ea:	3601      	adds	r6, #1
 80051ec:	4628      	mov	r0, r5
 80051ee:	60a2      	str	r2, [r4, #8]
 80051f0:	63a6      	str	r6, [r4, #56]	; 0x38
 80051f2:	bd70      	pop	{r4, r5, r6, pc}
 80051f4:	68e0      	ldr	r0, [r4, #12]
 80051f6:	f002 fcd9 	bl	8007bac <memcpy>
 80051fa:	6c22      	ldr	r2, [r4, #64]	; 0x40
 80051fc:	68e3      	ldr	r3, [r4, #12]
 80051fe:	6821      	ldr	r1, [r4, #0]
 8005200:	1a9b      	subs	r3, r3, r2
 8005202:	428b      	cmp	r3, r1
 8005204:	60e3      	str	r3, [r4, #12]
 8005206:	f1c2 0200 	rsb	r2, r2, #0
 800520a:	d202      	bcs.n	8005212 <prvCopyDataToQueue+0x5a>
 800520c:	6863      	ldr	r3, [r4, #4]
 800520e:	441a      	add	r2, r3
 8005210:	60e2      	str	r2, [r4, #12]
 8005212:	2d02      	cmp	r5, #2
 8005214:	d00c      	beq.n	8005230 <prvCopyDataToQueue+0x78>
 8005216:	3601      	adds	r6, #1
 8005218:	2000      	movs	r0, #0
 800521a:	63a6      	str	r6, [r4, #56]	; 0x38
 800521c:	bd70      	pop	{r4, r5, r6, pc}
 800521e:	3601      	adds	r6, #1
 8005220:	4628      	mov	r0, r5
 8005222:	63a6      	str	r6, [r4, #56]	; 0x38
 8005224:	bd70      	pop	{r4, r5, r6, pc}
 8005226:	6860      	ldr	r0, [r4, #4]
 8005228:	f001 fb38 	bl	800689c <xTaskPriorityDisinherit>
 800522c:	6065      	str	r5, [r4, #4]
 800522e:	e7cb      	b.n	80051c8 <prvCopyDataToQueue+0x10>
 8005230:	2e01      	cmp	r6, #1
 8005232:	bf38      	it	cc
 8005234:	2601      	movcc	r6, #1
 8005236:	2000      	movs	r0, #0
 8005238:	e7c7      	b.n	80051ca <prvCopyDataToQueue+0x12>
 800523a:	bf00      	nop

0800523c <xQueueGenericCreateStatic>:
 800523c:	b570      	push	{r4, r5, r6, lr}
 800523e:	b082      	sub	sp, #8
 8005240:	f89d 5018 	ldrb.w	r5, [sp, #24]
 8005244:	b940      	cbnz	r0, 8005258 <xQueueGenericCreateStatic+0x1c>
 8005246:	f04f 0350 	mov.w	r3, #80	; 0x50
 800524a:	f383 8811 	msr	BASEPRI, r3
 800524e:	f3bf 8f6f 	isb	sy
 8005252:	f3bf 8f4f 	dsb	sy
 8005256:	e7fe      	b.n	8005256 <xQueueGenericCreateStatic+0x1a>
 8005258:	461c      	mov	r4, r3
 800525a:	b1e3      	cbz	r3, 8005296 <xQueueGenericCreateStatic+0x5a>
 800525c:	4603      	mov	r3, r0
 800525e:	b172      	cbz	r2, 800527e <xQueueGenericCreateStatic+0x42>
 8005260:	b311      	cbz	r1, 80052a8 <xQueueGenericCreateStatic+0x6c>
 8005262:	2050      	movs	r0, #80	; 0x50
 8005264:	9001      	str	r0, [sp, #4]
 8005266:	9801      	ldr	r0, [sp, #4]
 8005268:	2850      	cmp	r0, #80	; 0x50
 800526a:	d026      	beq.n	80052ba <xQueueGenericCreateStatic+0x7e>
 800526c:	f04f 0350 	mov.w	r3, #80	; 0x50
 8005270:	f383 8811 	msr	BASEPRI, r3
 8005274:	f3bf 8f6f 	isb	sy
 8005278:	f3bf 8f4f 	dsb	sy
 800527c:	e7fe      	b.n	800527c <xQueueGenericCreateStatic+0x40>
 800527e:	2900      	cmp	r1, #0
 8005280:	d144      	bne.n	800530c <xQueueGenericCreateStatic+0xd0>
 8005282:	2250      	movs	r2, #80	; 0x50
 8005284:	9201      	str	r2, [sp, #4]
 8005286:	9a01      	ldr	r2, [sp, #4]
 8005288:	2a50      	cmp	r2, #80	; 0x50
 800528a:	d1ef      	bne.n	800526c <xQueueGenericCreateStatic+0x30>
 800528c:	2201      	movs	r2, #1
 800528e:	f884 2046 	strb.w	r2, [r4, #70]	; 0x46
 8005292:	4622      	mov	r2, r4
 8005294:	e014      	b.n	80052c0 <xQueueGenericCreateStatic+0x84>
 8005296:	f04f 0350 	mov.w	r3, #80	; 0x50
 800529a:	f383 8811 	msr	BASEPRI, r3
 800529e:	f3bf 8f6f 	isb	sy
 80052a2:	f3bf 8f4f 	dsb	sy
 80052a6:	e7fe      	b.n	80052a6 <xQueueGenericCreateStatic+0x6a>
 80052a8:	f04f 0350 	mov.w	r3, #80	; 0x50
 80052ac:	f383 8811 	msr	BASEPRI, r3
 80052b0:	f3bf 8f6f 	isb	sy
 80052b4:	f3bf 8f4f 	dsb	sy
 80052b8:	e7fe      	b.n	80052b8 <xQueueGenericCreateStatic+0x7c>
 80052ba:	2001      	movs	r0, #1
 80052bc:	f884 0046 	strb.w	r0, [r4, #70]	; 0x46
 80052c0:	e9c4 310f 	strd	r3, r1, [r4, #60]	; 0x3c
 80052c4:	6022      	str	r2, [r4, #0]
 80052c6:	f002 f80d 	bl	80072e4 <vPortEnterCritical>
 80052ca:	e9d4 320f 	ldrd	r3, r2, [r4, #60]	; 0x3c
 80052ce:	26ff      	movs	r6, #255	; 0xff
 80052d0:	2000      	movs	r0, #0
 80052d2:	fb03 f302 	mul.w	r3, r3, r2
 80052d6:	6821      	ldr	r1, [r4, #0]
 80052d8:	1a9a      	subs	r2, r3, r2
 80052da:	440a      	add	r2, r1
 80052dc:	440b      	add	r3, r1
 80052de:	63a0      	str	r0, [r4, #56]	; 0x38
 80052e0:	e9c4 3101 	strd	r3, r1, [r4, #4]
 80052e4:	60e2      	str	r2, [r4, #12]
 80052e6:	f104 0010 	add.w	r0, r4, #16
 80052ea:	f884 6044 	strb.w	r6, [r4, #68]	; 0x44
 80052ee:	f884 6045 	strb.w	r6, [r4, #69]	; 0x45
 80052f2:	f7ff ff19 	bl	8005128 <vListInitialise>
 80052f6:	f104 0024 	add.w	r0, r4, #36	; 0x24
 80052fa:	f7ff ff15 	bl	8005128 <vListInitialise>
 80052fe:	f002 f813 	bl	8007328 <vPortExitCritical>
 8005302:	4620      	mov	r0, r4
 8005304:	f884 504c 	strb.w	r5, [r4, #76]	; 0x4c
 8005308:	b002      	add	sp, #8
 800530a:	bd70      	pop	{r4, r5, r6, pc}
 800530c:	f04f 0350 	mov.w	r3, #80	; 0x50
 8005310:	f383 8811 	msr	BASEPRI, r3
 8005314:	f3bf 8f6f 	isb	sy
 8005318:	f3bf 8f4f 	dsb	sy
 800531c:	e7fe      	b.n	800531c <xQueueGenericCreateStatic+0xe0>
 800531e:	bf00      	nop

08005320 <xQueueGenericCreate>:
 8005320:	b5f8      	push	{r3, r4, r5, r6, r7, lr}
 8005322:	b940      	cbnz	r0, 8005336 <xQueueGenericCreate+0x16>
 8005324:	f04f 0350 	mov.w	r3, #80	; 0x50
 8005328:	f383 8811 	msr	BASEPRI, r3
 800532c:	f3bf 8f6f 	isb	sy
 8005330:	f3bf 8f4f 	dsb	sy
 8005334:	e7fe      	b.n	8005334 <xQueueGenericCreate+0x14>
 8005336:	460d      	mov	r5, r1
 8005338:	4616      	mov	r6, r2
 800533a:	4607      	mov	r7, r0
 800533c:	b941      	cbnz	r1, 8005350 <xQueueGenericCreate+0x30>
 800533e:	2050      	movs	r0, #80	; 0x50
 8005340:	f002 f8fc 	bl	800753c <pvPortMalloc>
 8005344:	4604      	mov	r4, r0
 8005346:	b3a0      	cbz	r0, 80053b2 <xQueueGenericCreate+0x92>
 8005348:	f884 5046 	strb.w	r5, [r4, #70]	; 0x46
 800534c:	6024      	str	r4, [r4, #0]
 800534e:	e00c      	b.n	800536a <xQueueGenericCreate+0x4a>
 8005350:	fb01 f000 	mul.w	r0, r1, r0
 8005354:	3050      	adds	r0, #80	; 0x50
 8005356:	f002 f8f1 	bl	800753c <pvPortMalloc>
 800535a:	4604      	mov	r4, r0
 800535c:	b348      	cbz	r0, 80053b2 <xQueueGenericCreate+0x92>
 800535e:	2200      	movs	r2, #0
 8005360:	f100 0350 	add.w	r3, r0, #80	; 0x50
 8005364:	f880 2046 	strb.w	r2, [r0, #70]	; 0x46
 8005368:	6003      	str	r3, [r0, #0]
 800536a:	e9c4 750f 	strd	r7, r5, [r4, #60]	; 0x3c
 800536e:	f001 ffb9 	bl	80072e4 <vPortEnterCritical>
 8005372:	e9d4 320f 	ldrd	r3, r2, [r4, #60]	; 0x3c
 8005376:	25ff      	movs	r5, #255	; 0xff
 8005378:	2000      	movs	r0, #0
 800537a:	fb03 f302 	mul.w	r3, r3, r2
 800537e:	6821      	ldr	r1, [r4, #0]
 8005380:	1a9a      	subs	r2, r3, r2
 8005382:	440a      	add	r2, r1
 8005384:	440b      	add	r3, r1
 8005386:	63a0      	str	r0, [r4, #56]	; 0x38
 8005388:	e9c4 3101 	strd	r3, r1, [r4, #4]
 800538c:	60e2      	str	r2, [r4, #12]
 800538e:	f104 0010 	add.w	r0, r4, #16
 8005392:	f884 5044 	strb.w	r5, [r4, #68]	; 0x44
 8005396:	f884 5045 	strb.w	r5, [r4, #69]	; 0x45
 800539a:	f7ff fec5 	bl	8005128 <vListInitialise>
 800539e:	f104 0024 	add.w	r0, r4, #36	; 0x24
 80053a2:	f7ff fec1 	bl	8005128 <vListInitialise>
 80053a6:	f001 ffbf 	bl	8007328 <vPortExitCritical>
 80053aa:	f884 604c 	strb.w	r6, [r4, #76]	; 0x4c
 80053ae:	4620      	mov	r0, r4
 80053b0:	bdf8      	pop	{r3, r4, r5, r6, r7, pc}
 80053b2:	2400      	movs	r4, #0
 80053b4:	4620      	mov	r0, r4
 80053b6:	bdf8      	pop	{r3, r4, r5, r6, r7, pc}

080053b8 <xQueueGenericSend>:
 80053b8:	e92d 47f0 	stmdb	sp!, {r4, r5, r6, r7, r8, r9, sl, lr}
 80053bc:	b084      	sub	sp, #16
 80053be:	9201      	str	r2, [sp, #4]
 80053c0:	2800      	cmp	r0, #0
 80053c2:	f000 80ac 	beq.w	800551e <xQueueGenericSend+0x166>
 80053c6:	4688      	mov	r8, r1
 80053c8:	461f      	mov	r7, r3
 80053ca:	4604      	mov	r4, r0
 80053cc:	2900      	cmp	r1, #0
 80053ce:	f000 8099 	beq.w	8005504 <xQueueGenericSend+0x14c>
 80053d2:	2f02      	cmp	r7, #2
 80053d4:	d10b      	bne.n	80053ee <xQueueGenericSend+0x36>
 80053d6:	6be3      	ldr	r3, [r4, #60]	; 0x3c
 80053d8:	2b01      	cmp	r3, #1
 80053da:	d008      	beq.n	80053ee <xQueueGenericSend+0x36>
 80053dc:	f04f 0350 	mov.w	r3, #80	; 0x50
 80053e0:	f383 8811 	msr	BASEPRI, r3
 80053e4:	f3bf 8f6f 	isb	sy
 80053e8:	f3bf 8f4f 	dsb	sy
 80053ec:	e7fe      	b.n	80053ec <xQueueGenericSend+0x34>
 80053ee:	f001 fa45 	bl	800687c <xTaskGetSchedulerState>
 80053f2:	4682      	mov	sl, r0
 80053f4:	2800      	cmp	r0, #0
 80053f6:	f000 809b 	beq.w	8005530 <xQueueGenericSend+0x178>
 80053fa:	f04f 0a00 	mov.w	sl, #0
 80053fe:	f8df 92c0 	ldr.w	r9, [pc, #704]	; 80056c0 <xQueueGenericSend+0x308>
 8005402:	f104 0624 	add.w	r6, r4, #36	; 0x24
 8005406:	f001 ff6d 	bl	80072e4 <vPortEnterCritical>
 800540a:	6ba2      	ldr	r2, [r4, #56]	; 0x38
 800540c:	6be3      	ldr	r3, [r4, #60]	; 0x3c
 800540e:	429a      	cmp	r2, r3
 8005410:	f0c0 80f4 	bcc.w	80055fc <xQueueGenericSend+0x244>
 8005414:	2f02      	cmp	r7, #2
 8005416:	f000 80f1 	beq.w	80055fc <xQueueGenericSend+0x244>
 800541a:	9d01      	ldr	r5, [sp, #4]
 800541c:	2d00      	cmp	r5, #0
 800541e:	f000 814a 	beq.w	80056b6 <xQueueGenericSend+0x2fe>
 8005422:	ad02      	add	r5, sp, #8
 8005424:	f1ba 0f00 	cmp.w	sl, #0
 8005428:	f000 80e4 	beq.w	80055f4 <xQueueGenericSend+0x23c>
 800542c:	f001 ff7c 	bl	8007328 <vPortExitCritical>
 8005430:	f000 fe66 	bl	8006100 <vTaskSuspendAll>
 8005434:	f001 ff56 	bl	80072e4 <vPortEnterCritical>
 8005438:	f894 3044 	ldrb.w	r3, [r4, #68]	; 0x44
 800543c:	2bff      	cmp	r3, #255	; 0xff
 800543e:	bf04      	itt	eq
 8005440:	2300      	moveq	r3, #0
 8005442:	f884 3044 	strbeq.w	r3, [r4, #68]	; 0x44
 8005446:	f894 3045 	ldrb.w	r3, [r4, #69]	; 0x45
 800544a:	2bff      	cmp	r3, #255	; 0xff
 800544c:	bf04      	itt	eq
 800544e:	2300      	moveq	r3, #0
 8005450:	f884 3045 	strbeq.w	r3, [r4, #69]	; 0x45
 8005454:	f001 ff68 	bl	8007328 <vPortExitCritical>
 8005458:	4628      	mov	r0, r5
 800545a:	a901      	add	r1, sp, #4
 800545c:	f001 f9c0 	bl	80067e0 <xTaskCheckForTimeOut>
 8005460:	2800      	cmp	r0, #0
 8005462:	f040 80e8 	bne.w	8005636 <xQueueGenericSend+0x27e>
 8005466:	f001 ff3d 	bl	80072e4 <vPortEnterCritical>
 800546a:	6ba2      	ldr	r2, [r4, #56]	; 0x38
 800546c:	6be3      	ldr	r3, [r4, #60]	; 0x3c
 800546e:	429a      	cmp	r2, r3
 8005470:	d06b      	beq.n	800554a <xQueueGenericSend+0x192>
 8005472:	f001 ff59 	bl	8007328 <vPortExitCritical>
 8005476:	f001 ff35 	bl	80072e4 <vPortEnterCritical>
 800547a:	f894 5045 	ldrb.w	r5, [r4, #69]	; 0x45
 800547e:	b26d      	sxtb	r5, r5
 8005480:	2d00      	cmp	r5, #0
 8005482:	dc05      	bgt.n	8005490 <xQueueGenericSend+0xd8>
 8005484:	e012      	b.n	80054ac <xQueueGenericSend+0xf4>
 8005486:	1e6b      	subs	r3, r5, #1
 8005488:	f013 0fff 	tst.w	r3, #255	; 0xff
 800548c:	b25d      	sxtb	r5, r3
 800548e:	d00d      	beq.n	80054ac <xQueueGenericSend+0xf4>
 8005490:	6a63      	ldr	r3, [r4, #36]	; 0x24
 8005492:	b15b      	cbz	r3, 80054ac <xQueueGenericSend+0xf4>
 8005494:	4630      	mov	r0, r6
 8005496:	f001 f90d 	bl	80066b4 <xTaskRemoveFromEventList>
 800549a:	2800      	cmp	r0, #0
 800549c:	d0f3      	beq.n	8005486 <xQueueGenericSend+0xce>
 800549e:	f001 f9e7 	bl	8006870 <vTaskMissedYield>
 80054a2:	1e6b      	subs	r3, r5, #1
 80054a4:	f013 0fff 	tst.w	r3, #255	; 0xff
 80054a8:	b25d      	sxtb	r5, r3
 80054aa:	d1f1      	bne.n	8005490 <xQueueGenericSend+0xd8>
 80054ac:	23ff      	movs	r3, #255	; 0xff
 80054ae:	f884 3045 	strb.w	r3, [r4, #69]	; 0x45
 80054b2:	f001 ff39 	bl	8007328 <vPortExitCritical>
 80054b6:	f001 ff15 	bl	80072e4 <vPortEnterCritical>
 80054ba:	f894 5044 	ldrb.w	r5, [r4, #68]	; 0x44
 80054be:	b26d      	sxtb	r5, r5
 80054c0:	2d00      	cmp	r5, #0
 80054c2:	dd15      	ble.n	80054f0 <xQueueGenericSend+0x138>
 80054c4:	f104 0a10 	add.w	sl, r4, #16
 80054c8:	e004      	b.n	80054d4 <xQueueGenericSend+0x11c>
 80054ca:	1e6b      	subs	r3, r5, #1
 80054cc:	f013 0fff 	tst.w	r3, #255	; 0xff
 80054d0:	b25d      	sxtb	r5, r3
 80054d2:	d00d      	beq.n	80054f0 <xQueueGenericSend+0x138>
 80054d4:	6923      	ldr	r3, [r4, #16]
 80054d6:	b15b      	cbz	r3, 80054f0 <xQueueGenericSend+0x138>
 80054d8:	4650      	mov	r0, sl
 80054da:	f001 f8eb 	bl	80066b4 <xTaskRemoveFromEventList>
 80054de:	2800      	cmp	r0, #0
 80054e0:	d0f3      	beq.n	80054ca <xQueueGenericSend+0x112>
 80054e2:	f001 f9c5 	bl	8006870 <vTaskMissedYield>
 80054e6:	1e6b      	subs	r3, r5, #1
 80054e8:	f013 0fff 	tst.w	r3, #255	; 0xff
 80054ec:	b25d      	sxtb	r5, r3
 80054ee:	d1f1      	bne.n	80054d4 <xQueueGenericSend+0x11c>
 80054f0:	23ff      	movs	r3, #255	; 0xff
 80054f2:	f884 3044 	strb.w	r3, [r4, #68]	; 0x44
 80054f6:	f001 ff17 	bl	8007328 <vPortExitCritical>
 80054fa:	f000 ff4d 	bl	8006398 <xTaskResumeAll>
 80054fe:	f04f 0a01 	mov.w	sl, #1
 8005502:	e780      	b.n	8005406 <xQueueGenericSend+0x4e>
 8005504:	6c03      	ldr	r3, [r0, #64]	; 0x40
 8005506:	2b00      	cmp	r3, #0
 8005508:	f43f af63 	beq.w	80053d2 <xQueueGenericSend+0x1a>
 800550c:	f04f 0350 	mov.w	r3, #80	; 0x50
 8005510:	f383 8811 	msr	BASEPRI, r3
 8005514:	f3bf 8f6f 	isb	sy
 8005518:	f3bf 8f4f 	dsb	sy
 800551c:	e7fe      	b.n	800551c <xQueueGenericSend+0x164>
 800551e:	f04f 0350 	mov.w	r3, #80	; 0x50
 8005522:	f383 8811 	msr	BASEPRI, r3
 8005526:	f3bf 8f6f 	isb	sy
 800552a:	f3bf 8f4f 	dsb	sy
 800552e:	e7fe      	b.n	800552e <xQueueGenericSend+0x176>
 8005530:	9b01      	ldr	r3, [sp, #4]
 8005532:	2b00      	cmp	r3, #0
 8005534:	f43f af63 	beq.w	80053fe <xQueueGenericSend+0x46>
 8005538:	f04f 0350 	mov.w	r3, #80	; 0x50
 800553c:	f383 8811 	msr	BASEPRI, r3
 8005540:	f3bf 8f6f 	isb	sy
 8005544:	f3bf 8f4f 	dsb	sy
 8005548:	e7fe      	b.n	8005548 <xQueueGenericSend+0x190>
 800554a:	f104 0a10 	add.w	sl, r4, #16
 800554e:	f001 feeb 	bl	8007328 <vPortExitCritical>
 8005552:	4650      	mov	r0, sl
 8005554:	9901      	ldr	r1, [sp, #4]
 8005556:	f000 ffc7 	bl	80064e8 <vTaskPlaceOnEventList>
 800555a:	f001 fec3 	bl	80072e4 <vPortEnterCritical>
 800555e:	f894 5045 	ldrb.w	r5, [r4, #69]	; 0x45
 8005562:	b26d      	sxtb	r5, r5
 8005564:	2d00      	cmp	r5, #0
 8005566:	dc05      	bgt.n	8005574 <xQueueGenericSend+0x1bc>
 8005568:	e012      	b.n	8005590 <xQueueGenericSend+0x1d8>
 800556a:	1e6b      	subs	r3, r5, #1
 800556c:	f013 0fff 	tst.w	r3, #255	; 0xff
 8005570:	b25d      	sxtb	r5, r3
 8005572:	d00d      	beq.n	8005590 <xQueueGenericSend+0x1d8>
 8005574:	6a63      	ldr	r3, [r4, #36]	; 0x24
 8005576:	b15b      	cbz	r3, 8005590 <xQueueGenericSend+0x1d8>
 8005578:	4630      	mov	r0, r6
 800557a:	f001 f89b 	bl	80066b4 <xTaskRemoveFromEventList>
 800557e:	2800      	cmp	r0, #0
 8005580:	d0f3      	beq.n	800556a <xQueueGenericSend+0x1b2>
 8005582:	f001 f975 	bl	8006870 <vTaskMissedYield>
 8005586:	1e6b      	subs	r3, r5, #1
 8005588:	f013 0fff 	tst.w	r3, #255	; 0xff
 800558c:	b25d      	sxtb	r5, r3
 800558e:	d1f1      	bne.n	8005574 <xQueueGenericSend+0x1bc>
 8005590:	23ff      	movs	r3, #255	; 0xff
 8005592:	f884 3045 	strb.w	r3, [r4, #69]	; 0x45
 8005596:	f001 fec7 	bl	8007328 <vPortExitCritical>
 800559a:	f001 fea3 	bl	80072e4 <vPortEnterCritical>
 800559e:	f894 5044 	ldrb.w	r5, [r4, #68]	; 0x44
 80055a2:	b26d      	sxtb	r5, r5
 80055a4:	2d00      	cmp	r5, #0
 80055a6:	dc05      	bgt.n	80055b4 <xQueueGenericSend+0x1fc>
 80055a8:	e012      	b.n	80055d0 <xQueueGenericSend+0x218>
 80055aa:	1e6b      	subs	r3, r5, #1
 80055ac:	f013 0fff 	tst.w	r3, #255	; 0xff
 80055b0:	b25d      	sxtb	r5, r3
 80055b2:	d00d      	beq.n	80055d0 <xQueueGenericSend+0x218>
 80055b4:	6923      	ldr	r3, [r4, #16]
 80055b6:	b15b      	cbz	r3, 80055d0 <xQueueGenericSend+0x218>
 80055b8:	4650      	mov	r0, sl
 80055ba:	f001 f87b 	bl	80066b4 <xTaskRemoveFromEventList>
 80055be:	2800      	cmp	r0, #0
 80055c0:	d0f3      	beq.n	80055aa <xQueueGenericSend+0x1f2>
 80055c2:	f001 f955 	bl	8006870 <vTaskMissedYield>
 80055c6:	1e6b      	subs	r3, r5, #1
 80055c8:	f013 0fff 	tst.w	r3, #255	; 0xff
 80055cc:	b25d      	sxtb	r5, r3
 80055ce:	d1f1      	bne.n	80055b4 <xQueueGenericSend+0x1fc>
 80055d0:	23ff      	movs	r3, #255	; 0xff
 80055d2:	f884 3044 	strb.w	r3, [r4, #68]	; 0x44
 80055d6:	f001 fea7 	bl	8007328 <vPortExitCritical>
 80055da:	f000 fedd 	bl	8006398 <xTaskResumeAll>
 80055de:	2800      	cmp	r0, #0
 80055e0:	d18d      	bne.n	80054fe <xQueueGenericSend+0x146>
 80055e2:	f04f 5380 	mov.w	r3, #268435456	; 0x10000000
 80055e6:	f8c9 3000 	str.w	r3, [r9]
 80055ea:	f3bf 8f4f 	dsb	sy
 80055ee:	f3bf 8f6f 	isb	sy
 80055f2:	e784      	b.n	80054fe <xQueueGenericSend+0x146>
 80055f4:	4628      	mov	r0, r5
 80055f6:	f001 f8e7 	bl	80067c8 <vTaskInternalSetTimeOutState>
 80055fa:	e717      	b.n	800542c <xQueueGenericSend+0x74>
 80055fc:	463a      	mov	r2, r7
 80055fe:	4641      	mov	r1, r8
 8005600:	4620      	mov	r0, r4
 8005602:	f7ff fdd9 	bl	80051b8 <prvCopyDataToQueue>
 8005606:	6a62      	ldr	r2, [r4, #36]	; 0x24
 8005608:	b972      	cbnz	r2, 8005628 <xQueueGenericSend+0x270>
 800560a:	b138      	cbz	r0, 800561c <xQueueGenericSend+0x264>
 800560c:	f04f 5280 	mov.w	r2, #268435456	; 0x10000000
 8005610:	4b2b      	ldr	r3, [pc, #172]	; (80056c0 <xQueueGenericSend+0x308>)
 8005612:	601a      	str	r2, [r3, #0]
 8005614:	f3bf 8f4f 	dsb	sy
 8005618:	f3bf 8f6f 	isb	sy
 800561c:	f001 fe84 	bl	8007328 <vPortExitCritical>
 8005620:	2001      	movs	r0, #1
 8005622:	b004      	add	sp, #16
 8005624:	e8bd 87f0 	ldmia.w	sp!, {r4, r5, r6, r7, r8, r9, sl, pc}
 8005628:	f104 0024 	add.w	r0, r4, #36	; 0x24
 800562c:	f001 f842 	bl	80066b4 <xTaskRemoveFromEventList>
 8005630:	2800      	cmp	r0, #0
 8005632:	d0f3      	beq.n	800561c <xQueueGenericSend+0x264>
 8005634:	e7ea      	b.n	800560c <xQueueGenericSend+0x254>
 8005636:	f001 fe55 	bl	80072e4 <vPortEnterCritical>
 800563a:	f894 5045 	ldrb.w	r5, [r4, #69]	; 0x45
 800563e:	b26d      	sxtb	r5, r5
 8005640:	2d00      	cmp	r5, #0
 8005642:	dd11      	ble.n	8005668 <xQueueGenericSend+0x2b0>
 8005644:	f104 0624 	add.w	r6, r4, #36	; 0x24
 8005648:	e004      	b.n	8005654 <xQueueGenericSend+0x29c>
 800564a:	1e6b      	subs	r3, r5, #1
 800564c:	f013 0fff 	tst.w	r3, #255	; 0xff
 8005650:	b25d      	sxtb	r5, r3
 8005652:	d009      	beq.n	8005668 <xQueueGenericSend+0x2b0>
 8005654:	6a63      	ldr	r3, [r4, #36]	; 0x24
 8005656:	b13b      	cbz	r3, 8005668 <xQueueGenericSend+0x2b0>
 8005658:	4630      	mov	r0, r6
 800565a:	f001 f82b 	bl	80066b4 <xTaskRemoveFromEventList>
 800565e:	2800      	cmp	r0, #0
 8005660:	d0f3      	beq.n	800564a <xQueueGenericSend+0x292>
 8005662:	f001 f905 	bl	8006870 <vTaskMissedYield>
 8005666:	e7f0      	b.n	800564a <xQueueGenericSend+0x292>
 8005668:	23ff      	movs	r3, #255	; 0xff
 800566a:	f884 3045 	strb.w	r3, [r4, #69]	; 0x45
 800566e:	f001 fe5b 	bl	8007328 <vPortExitCritical>
 8005672:	f001 fe37 	bl	80072e4 <vPortEnterCritical>
 8005676:	f894 5044 	ldrb.w	r5, [r4, #68]	; 0x44
 800567a:	b26d      	sxtb	r5, r5
 800567c:	2d00      	cmp	r5, #0
 800567e:	dd11      	ble.n	80056a4 <xQueueGenericSend+0x2ec>
 8005680:	f104 0610 	add.w	r6, r4, #16
 8005684:	e004      	b.n	8005690 <xQueueGenericSend+0x2d8>
 8005686:	1e6b      	subs	r3, r5, #1
 8005688:	f013 0fff 	tst.w	r3, #255	; 0xff
 800568c:	b25d      	sxtb	r5, r3
 800568e:	d009      	beq.n	80056a4 <xQueueGenericSend+0x2ec>
 8005690:	6923      	ldr	r3, [r4, #16]
 8005692:	b13b      	cbz	r3, 80056a4 <xQueueGenericSend+0x2ec>
 8005694:	4630      	mov	r0, r6
 8005696:	f001 f80d 	bl	80066b4 <xTaskRemoveFromEventList>
 800569a:	2800      	cmp	r0, #0
 800569c:	d0f3      	beq.n	8005686 <xQueueGenericSend+0x2ce>
 800569e:	f001 f8e7 	bl	8006870 <vTaskMissedYield>
 80056a2:	e7f0      	b.n	8005686 <xQueueGenericSend+0x2ce>
 80056a4:	23ff      	movs	r3, #255	; 0xff
 80056a6:	f884 3044 	strb.w	r3, [r4, #68]	; 0x44
 80056aa:	f001 fe3d 	bl	8007328 <vPortExitCritical>
 80056ae:	f000 fe73 	bl	8006398 <xTaskResumeAll>
 80056b2:	2000      	movs	r0, #0
 80056b4:	e7b5      	b.n	8005622 <xQueueGenericSend+0x26a>
 80056b6:	f001 fe37 	bl	8007328 <vPortExitCritical>
 80056ba:	4628      	mov	r0, r5
 80056bc:	e7b1      	b.n	8005622 <xQueueGenericSend+0x26a>
 80056be:	bf00      	nop
 80056c0:	e000ed04 	.word	0xe000ed04

080056c4 <xQueueGenericSendFromISR>:
 80056c4:	e92d 43f8 	stmdb	sp!, {r3, r4, r5, r6, r7, r8, r9, lr}
 80056c8:	2800      	cmp	r0, #0
 80056ca:	d035      	beq.n	8005738 <xQueueGenericSendFromISR+0x74>
 80056cc:	4689      	mov	r9, r1
 80056ce:	4690      	mov	r8, r2
 80056d0:	461f      	mov	r7, r3
 80056d2:	4604      	mov	r4, r0
 80056d4:	b321      	cbz	r1, 8005720 <xQueueGenericSendFromISR+0x5c>
 80056d6:	2f02      	cmp	r7, #2
 80056d8:	d10b      	bne.n	80056f2 <xQueueGenericSendFromISR+0x2e>
 80056da:	6be3      	ldr	r3, [r4, #60]	; 0x3c
 80056dc:	2b01      	cmp	r3, #1
 80056de:	d008      	beq.n	80056f2 <xQueueGenericSendFromISR+0x2e>
 80056e0:	f04f 0350 	mov.w	r3, #80	; 0x50
 80056e4:	f383 8811 	msr	BASEPRI, r3
 80056e8:	f3bf 8f6f 	isb	sy
 80056ec:	f3bf 8f4f 	dsb	sy
 80056f0:	e7fe      	b.n	80056f0 <xQueueGenericSendFromISR+0x2c>
 80056f2:	f001 fef5 	bl	80074e0 <vPortValidateInterruptPriority>
 80056f6:	f3ef 8611 	mrs	r6, BASEPRI
 80056fa:	f04f 0350 	mov.w	r3, #80	; 0x50
 80056fe:	f383 8811 	msr	BASEPRI, r3
 8005702:	f3bf 8f6f 	isb	sy
 8005706:	f3bf 8f4f 	dsb	sy
 800570a:	6ba2      	ldr	r2, [r4, #56]	; 0x38
 800570c:	6be3      	ldr	r3, [r4, #60]	; 0x3c
 800570e:	429a      	cmp	r2, r3
 8005710:	d31b      	bcc.n	800574a <xQueueGenericSendFromISR+0x86>
 8005712:	2f02      	cmp	r7, #2
 8005714:	d019      	beq.n	800574a <xQueueGenericSendFromISR+0x86>
 8005716:	2000      	movs	r0, #0
 8005718:	f386 8811 	msr	BASEPRI, r6
 800571c:	e8bd 83f8 	ldmia.w	sp!, {r3, r4, r5, r6, r7, r8, r9, pc}
 8005720:	6c03      	ldr	r3, [r0, #64]	; 0x40
 8005722:	2b00      	cmp	r3, #0
 8005724:	d0d7      	beq.n	80056d6 <xQueueGenericSendFromISR+0x12>
 8005726:	f04f 0350 	mov.w	r3, #80	; 0x50
 800572a:	f383 8811 	msr	BASEPRI, r3
 800572e:	f3bf 8f6f 	isb	sy
 8005732:	f3bf 8f4f 	dsb	sy
 8005736:	e7fe      	b.n	8005736 <xQueueGenericSendFromISR+0x72>
 8005738:	f04f 0350 	mov.w	r3, #80	; 0x50
 800573c:	f383 8811 	msr	BASEPRI, r3
 8005740:	f3bf 8f6f 	isb	sy
 8005744:	f3bf 8f4f 	dsb	sy
 8005748:	e7fe      	b.n	8005748 <xQueueGenericSendFromISR+0x84>
 800574a:	f894 5045 	ldrb.w	r5, [r4, #69]	; 0x45
 800574e:	463a      	mov	r2, r7
 8005750:	4649      	mov	r1, r9
 8005752:	4620      	mov	r0, r4
 8005754:	b26d      	sxtb	r5, r5
 8005756:	f7ff fd2f 	bl	80051b8 <prvCopyDataToQueue>
 800575a:	1c6b      	adds	r3, r5, #1
 800575c:	d008      	beq.n	8005770 <xQueueGenericSendFromISR+0xac>
 800575e:	1c6b      	adds	r3, r5, #1
 8005760:	b25b      	sxtb	r3, r3
 8005762:	f884 3045 	strb.w	r3, [r4, #69]	; 0x45
 8005766:	2001      	movs	r0, #1
 8005768:	f386 8811 	msr	BASEPRI, r6
 800576c:	e8bd 83f8 	ldmia.w	sp!, {r3, r4, r5, r6, r7, r8, r9, pc}
 8005770:	6a63      	ldr	r3, [r4, #36]	; 0x24
 8005772:	2b00      	cmp	r3, #0
 8005774:	d0f7      	beq.n	8005766 <xQueueGenericSendFromISR+0xa2>
 8005776:	f104 0024 	add.w	r0, r4, #36	; 0x24
 800577a:	f000 ff9b 	bl	80066b4 <xTaskRemoveFromEventList>
 800577e:	2800      	cmp	r0, #0
 8005780:	d0f1      	beq.n	8005766 <xQueueGenericSendFromISR+0xa2>
 8005782:	f1b8 0f00 	cmp.w	r8, #0
 8005786:	d0ee      	beq.n	8005766 <xQueueGenericSendFromISR+0xa2>
 8005788:	2001      	movs	r0, #1
 800578a:	f8c8 0000 	str.w	r0, [r8]
 800578e:	e7c3      	b.n	8005718 <xQueueGenericSendFromISR+0x54>

08005790 <xQueueReceive>:
 8005790:	e92d 43f0 	stmdb	sp!, {r4, r5, r6, r7, r8, r9, lr}
 8005794:	b085      	sub	sp, #20
 8005796:	9201      	str	r2, [sp, #4]
 8005798:	2800      	cmp	r0, #0
 800579a:	f000 80f5 	beq.w	8005988 <xQueueReceive+0x1f8>
 800579e:	460e      	mov	r6, r1
 80057a0:	4604      	mov	r4, r0
 80057a2:	2900      	cmp	r1, #0
 80057a4:	f000 808a 	beq.w	80058bc <xQueueReceive+0x12c>
 80057a8:	f001 f868 	bl	800687c <xTaskGetSchedulerState>
 80057ac:	2800      	cmp	r0, #0
 80057ae:	d079      	beq.n	80058a4 <xQueueReceive+0x114>
 80057b0:	f001 fd98 	bl	80072e4 <vPortEnterCritical>
 80057b4:	6ba5      	ldr	r5, [r4, #56]	; 0x38
 80057b6:	2d00      	cmp	r5, #0
 80057b8:	f040 8148 	bne.w	8005a4c <xQueueReceive+0x2bc>
 80057bc:	9b01      	ldr	r3, [sp, #4]
 80057be:	2b00      	cmp	r3, #0
 80057c0:	f000 80dc 	beq.w	800597c <xQueueReceive+0x1ec>
 80057c4:	a802      	add	r0, sp, #8
 80057c6:	f000 ffff 	bl	80067c8 <vTaskInternalSetTimeOutState>
 80057ca:	f8df 82cc 	ldr.w	r8, [pc, #716]	; 8005a98 <xQueueReceive+0x308>
 80057ce:	f104 0724 	add.w	r7, r4, #36	; 0x24
 80057d2:	f001 fda9 	bl	8007328 <vPortExitCritical>
 80057d6:	f000 fc93 	bl	8006100 <vTaskSuspendAll>
 80057da:	f001 fd83 	bl	80072e4 <vPortEnterCritical>
 80057de:	f894 3044 	ldrb.w	r3, [r4, #68]	; 0x44
 80057e2:	2bff      	cmp	r3, #255	; 0xff
 80057e4:	bf04      	itt	eq
 80057e6:	2300      	moveq	r3, #0
 80057e8:	f884 3044 	strbeq.w	r3, [r4, #68]	; 0x44
 80057ec:	f894 3045 	ldrb.w	r3, [r4, #69]	; 0x45
 80057f0:	2bff      	cmp	r3, #255	; 0xff
 80057f2:	bf04      	itt	eq
 80057f4:	2300      	moveq	r3, #0
 80057f6:	f884 3045 	strbeq.w	r3, [r4, #69]	; 0x45
 80057fa:	f001 fd95 	bl	8007328 <vPortExitCritical>
 80057fe:	a901      	add	r1, sp, #4
 8005800:	a802      	add	r0, sp, #8
 8005802:	f000 ffed 	bl	80067e0 <xTaskCheckForTimeOut>
 8005806:	2800      	cmp	r0, #0
 8005808:	d165      	bne.n	80058d6 <xQueueReceive+0x146>
 800580a:	f001 fd6b 	bl	80072e4 <vPortEnterCritical>
 800580e:	6ba3      	ldr	r3, [r4, #56]	; 0x38
 8005810:	2b00      	cmp	r3, #0
 8005812:	f000 80c2 	beq.w	800599a <xQueueReceive+0x20a>
 8005816:	f001 fd87 	bl	8007328 <vPortExitCritical>
 800581a:	f001 fd63 	bl	80072e4 <vPortEnterCritical>
 800581e:	f894 5045 	ldrb.w	r5, [r4, #69]	; 0x45
 8005822:	b26d      	sxtb	r5, r5
 8005824:	2d00      	cmp	r5, #0
 8005826:	dc05      	bgt.n	8005834 <xQueueReceive+0xa4>
 8005828:	e012      	b.n	8005850 <xQueueReceive+0xc0>
 800582a:	1e6b      	subs	r3, r5, #1
 800582c:	f013 0fff 	tst.w	r3, #255	; 0xff
 8005830:	b25d      	sxtb	r5, r3
 8005832:	d00d      	beq.n	8005850 <xQueueReceive+0xc0>
 8005834:	6a63      	ldr	r3, [r4, #36]	; 0x24
 8005836:	b15b      	cbz	r3, 8005850 <xQueueReceive+0xc0>
 8005838:	4638      	mov	r0, r7
 800583a:	f000 ff3b 	bl	80066b4 <xTaskRemoveFromEventList>
 800583e:	2800      	cmp	r0, #0
 8005840:	d0f3      	beq.n	800582a <xQueueReceive+0x9a>
 8005842:	f001 f815 	bl	8006870 <vTaskMissedYield>
 8005846:	1e6b      	subs	r3, r5, #1
 8005848:	f013 0fff 	tst.w	r3, #255	; 0xff
 800584c:	b25d      	sxtb	r5, r3
 800584e:	d1f1      	bne.n	8005834 <xQueueReceive+0xa4>
 8005850:	23ff      	movs	r3, #255	; 0xff
 8005852:	f884 3045 	strb.w	r3, [r4, #69]	; 0x45
 8005856:	f001 fd67 	bl	8007328 <vPortExitCritical>
 800585a:	f001 fd43 	bl	80072e4 <vPortEnterCritical>
 800585e:	f894 5044 	ldrb.w	r5, [r4, #68]	; 0x44
 8005862:	b26d      	sxtb	r5, r5
 8005864:	2d00      	cmp	r5, #0
 8005866:	dd15      	ble.n	8005894 <xQueueReceive+0x104>
 8005868:	f104 0910 	add.w	r9, r4, #16
 800586c:	e004      	b.n	8005878 <xQueueReceive+0xe8>
 800586e:	1e6b      	subs	r3, r5, #1
 8005870:	f013 0fff 	tst.w	r3, #255	; 0xff
 8005874:	b25d      	sxtb	r5, r3
 8005876:	d00d      	beq.n	8005894 <xQueueReceive+0x104>
 8005878:	6923      	ldr	r3, [r4, #16]
 800587a:	b15b      	cbz	r3, 8005894 <xQueueReceive+0x104>
 800587c:	4648      	mov	r0, r9
 800587e:	f000 ff19 	bl	80066b4 <xTaskRemoveFromEventList>
 8005882:	2800      	cmp	r0, #0
 8005884:	d0f3      	beq.n	800586e <xQueueReceive+0xde>
 8005886:	f000 fff3 	bl	8006870 <vTaskMissedYield>
 800588a:	1e6b      	subs	r3, r5, #1
 800588c:	f013 0fff 	tst.w	r3, #255	; 0xff
 8005890:	b25d      	sxtb	r5, r3
 8005892:	d1f1      	bne.n	8005878 <xQueueReceive+0xe8>
 8005894:	23ff      	movs	r3, #255	; 0xff
 8005896:	f884 3044 	strb.w	r3, [r4, #68]	; 0x44
 800589a:	f001 fd45 	bl	8007328 <vPortExitCritical>
 800589e:	f000 fd7b 	bl	8006398 <xTaskResumeAll>
 80058a2:	e062      	b.n	800596a <xQueueReceive+0x1da>
 80058a4:	9b01      	ldr	r3, [sp, #4]
 80058a6:	2b00      	cmp	r3, #0
 80058a8:	d082      	beq.n	80057b0 <xQueueReceive+0x20>
 80058aa:	f04f 0350 	mov.w	r3, #80	; 0x50
 80058ae:	f383 8811 	msr	BASEPRI, r3
 80058b2:	f3bf 8f6f 	isb	sy
 80058b6:	f3bf 8f4f 	dsb	sy
 80058ba:	e7fe      	b.n	80058ba <xQueueReceive+0x12a>
 80058bc:	6c03      	ldr	r3, [r0, #64]	; 0x40
 80058be:	2b00      	cmp	r3, #0
 80058c0:	f43f af72 	beq.w	80057a8 <xQueueReceive+0x18>
 80058c4:	f04f 0350 	mov.w	r3, #80	; 0x50
 80058c8:	f383 8811 	msr	BASEPRI, r3
 80058cc:	f3bf 8f6f 	isb	sy
 80058d0:	f3bf 8f4f 	dsb	sy
 80058d4:	e7fe      	b.n	80058d4 <xQueueReceive+0x144>
 80058d6:	f001 fd05 	bl	80072e4 <vPortEnterCritical>
 80058da:	f894 5045 	ldrb.w	r5, [r4, #69]	; 0x45
 80058de:	b26d      	sxtb	r5, r5
 80058e0:	2d00      	cmp	r5, #0
 80058e2:	dc05      	bgt.n	80058f0 <xQueueReceive+0x160>
 80058e4:	e012      	b.n	800590c <xQueueReceive+0x17c>
 80058e6:	1e6b      	subs	r3, r5, #1
 80058e8:	f013 0fff 	tst.w	r3, #255	; 0xff
 80058ec:	b25d      	sxtb	r5, r3
 80058ee:	d00d      	beq.n	800590c <xQueueReceive+0x17c>
 80058f0:	6a63      	ldr	r3, [r4, #36]	; 0x24
 80058f2:	b15b      	cbz	r3, 800590c <xQueueReceive+0x17c>
 80058f4:	4638      	mov	r0, r7
 80058f6:	f000 fedd 	bl	80066b4 <xTaskRemoveFromEventList>
 80058fa:	2800      	cmp	r0, #0
 80058fc:	d0f3      	beq.n	80058e6 <xQueueReceive+0x156>
 80058fe:	f000 ffb7 	bl	8006870 <vTaskMissedYield>
 8005902:	1e6b      	subs	r3, r5, #1
 8005904:	f013 0fff 	tst.w	r3, #255	; 0xff
 8005908:	b25d      	sxtb	r5, r3
 800590a:	d1f1      	bne.n	80058f0 <xQueueReceive+0x160>
 800590c:	23ff      	movs	r3, #255	; 0xff
 800590e:	f884 3045 	strb.w	r3, [r4, #69]	; 0x45
 8005912:	f001 fd09 	bl	8007328 <vPortExitCritical>
 8005916:	f001 fce5 	bl	80072e4 <vPortEnterCritical>
 800591a:	f894 5044 	ldrb.w	r5, [r4, #68]	; 0x44
 800591e:	b26d      	sxtb	r5, r5
 8005920:	2d00      	cmp	r5, #0
 8005922:	dd15      	ble.n	8005950 <xQueueReceive+0x1c0>
 8005924:	f104 0910 	add.w	r9, r4, #16
 8005928:	e004      	b.n	8005934 <xQueueReceive+0x1a4>
 800592a:	1e6b      	subs	r3, r5, #1
 800592c:	f013 0fff 	tst.w	r3, #255	; 0xff
 8005930:	b25d      	sxtb	r5, r3
 8005932:	d00d      	beq.n	8005950 <xQueueReceive+0x1c0>
 8005934:	6923      	ldr	r3, [r4, #16]
 8005936:	b15b      	cbz	r3, 8005950 <xQueueReceive+0x1c0>
 8005938:	4648      	mov	r0, r9
 800593a:	f000 febb 	bl	80066b4 <xTaskRemoveFromEventList>
 800593e:	2800      	cmp	r0, #0
 8005940:	d0f3      	beq.n	800592a <xQueueReceive+0x19a>
 8005942:	f000 ff95 	bl	8006870 <vTaskMissedYield>
 8005946:	1e6b      	subs	r3, r5, #1
 8005948:	f013 0fff 	tst.w	r3, #255	; 0xff
 800594c:	b25d      	sxtb	r5, r3
 800594e:	d1f1      	bne.n	8005934 <xQueueReceive+0x1a4>
 8005950:	23ff      	movs	r3, #255	; 0xff
 8005952:	f884 3044 	strb.w	r3, [r4, #68]	; 0x44
 8005956:	f001 fce7 	bl	8007328 <vPortExitCritical>
 800595a:	f000 fd1d 	bl	8006398 <xTaskResumeAll>
 800595e:	f001 fcc1 	bl	80072e4 <vPortEnterCritical>
 8005962:	6ba3      	ldr	r3, [r4, #56]	; 0x38
 8005964:	b153      	cbz	r3, 800597c <xQueueReceive+0x1ec>
 8005966:	f001 fcdf 	bl	8007328 <vPortExitCritical>
 800596a:	f001 fcbb 	bl	80072e4 <vPortEnterCritical>
 800596e:	6ba5      	ldr	r5, [r4, #56]	; 0x38
 8005970:	2d00      	cmp	r5, #0
 8005972:	d16b      	bne.n	8005a4c <xQueueReceive+0x2bc>
 8005974:	9b01      	ldr	r3, [sp, #4]
 8005976:	2b00      	cmp	r3, #0
 8005978:	f47f af2b 	bne.w	80057d2 <xQueueReceive+0x42>
 800597c:	f001 fcd4 	bl	8007328 <vPortExitCritical>
 8005980:	2000      	movs	r0, #0
 8005982:	b005      	add	sp, #20
 8005984:	e8bd 83f0 	ldmia.w	sp!, {r4, r5, r6, r7, r8, r9, pc}
 8005988:	f04f 0350 	mov.w	r3, #80	; 0x50
 800598c:	f383 8811 	msr	BASEPRI, r3
 8005990:	f3bf 8f6f 	isb	sy
 8005994:	f3bf 8f4f 	dsb	sy
 8005998:	e7fe      	b.n	8005998 <xQueueReceive+0x208>
 800599a:	f001 fcc5 	bl	8007328 <vPortExitCritical>
 800599e:	4638      	mov	r0, r7
 80059a0:	9901      	ldr	r1, [sp, #4]
 80059a2:	f000 fda1 	bl	80064e8 <vTaskPlaceOnEventList>
 80059a6:	f001 fc9d 	bl	80072e4 <vPortEnterCritical>
 80059aa:	f894 5045 	ldrb.w	r5, [r4, #69]	; 0x45
 80059ae:	b26d      	sxtb	r5, r5
 80059b0:	2d00      	cmp	r5, #0
 80059b2:	dc05      	bgt.n	80059c0 <xQueueReceive+0x230>
 80059b4:	e012      	b.n	80059dc <xQueueReceive+0x24c>
 80059b6:	1e6b      	subs	r3, r5, #1
 80059b8:	f013 0fff 	tst.w	r3, #255	; 0xff
 80059bc:	b25d      	sxtb	r5, r3
 80059be:	d00d      	beq.n	80059dc <xQueueReceive+0x24c>
 80059c0:	6a63      	ldr	r3, [r4, #36]	; 0x24
 80059c2:	b15b      	cbz	r3, 80059dc <xQueueReceive+0x24c>
 80059c4:	4638      	mov	r0, r7
 80059c6:	f000 fe75 	bl	80066b4 <xTaskRemoveFromEventList>
 80059ca:	2800      	cmp	r0, #0
 80059cc:	d0f3      	beq.n	80059b6 <xQueueReceive+0x226>
 80059ce:	f000 ff4f 	bl	8006870 <vTaskMissedYield>
 80059d2:	1e6b      	subs	r3, r5, #1
 80059d4:	f013 0fff 	tst.w	r3, #255	; 0xff
 80059d8:	b25d      	sxtb	r5, r3
 80059da:	d1f1      	bne.n	80059c0 <xQueueReceive+0x230>
 80059dc:	23ff      	movs	r3, #255	; 0xff
 80059de:	f884 3045 	strb.w	r3, [r4, #69]	; 0x45
 80059e2:	f001 fca1 	bl	8007328 <vPortExitCritical>
 80059e6:	f001 fc7d 	bl	80072e4 <vPortEnterCritical>
 80059ea:	f894 5044 	ldrb.w	r5, [r4, #68]	; 0x44
 80059ee:	b26d      	sxtb	r5, r5
 80059f0:	2d00      	cmp	r5, #0
 80059f2:	dd15      	ble.n	8005a20 <xQueueReceive+0x290>
 80059f4:	f104 0910 	add.w	r9, r4, #16
 80059f8:	e004      	b.n	8005a04 <xQueueReceive+0x274>
 80059fa:	1e6b      	subs	r3, r5, #1
 80059fc:	f013 0fff 	tst.w	r3, #255	; 0xff
 8005a00:	b25d      	sxtb	r5, r3
 8005a02:	d00d      	beq.n	8005a20 <xQueueReceive+0x290>
 8005a04:	6923      	ldr	r3, [r4, #16]
 8005a06:	b15b      	cbz	r3, 8005a20 <xQueueReceive+0x290>
 8005a08:	4648      	mov	r0, r9
 8005a0a:	f000 fe53 	bl	80066b4 <xTaskRemoveFromEventList>
 8005a0e:	2800      	cmp	r0, #0
 8005a10:	d0f3      	beq.n	80059fa <xQueueReceive+0x26a>
 8005a12:	f000 ff2d 	bl	8006870 <vTaskMissedYield>
 8005a16:	1e6b      	subs	r3, r5, #1
 8005a18:	f013 0fff 	tst.w	r3, #255	; 0xff
 8005a1c:	b25d      	sxtb	r5, r3
 8005a1e:	d1f1      	bne.n	8005a04 <xQueueReceive+0x274>
 8005a20:	23ff      	movs	r3, #255	; 0xff
 8005a22:	f884 3044 	strb.w	r3, [r4, #68]	; 0x44
 8005a26:	f001 fc7f 	bl	8007328 <vPortExitCritical>
 8005a2a:	f000 fcb5 	bl	8006398 <xTaskResumeAll>
 8005a2e:	2800      	cmp	r0, #0
 8005a30:	d19b      	bne.n	800596a <xQueueReceive+0x1da>
 8005a32:	f04f 5380 	mov.w	r3, #268435456	; 0x10000000
 8005a36:	f8c8 3000 	str.w	r3, [r8]
 8005a3a:	f3bf 8f4f 	dsb	sy
 8005a3e:	f3bf 8f6f 	isb	sy
 8005a42:	f001 fc4f 	bl	80072e4 <vPortEnterCritical>
 8005a46:	6ba5      	ldr	r5, [r4, #56]	; 0x38
 8005a48:	2d00      	cmp	r5, #0
 8005a4a:	d093      	beq.n	8005974 <xQueueReceive+0x1e4>
 8005a4c:	6c22      	ldr	r2, [r4, #64]	; 0x40
 8005a4e:	b15a      	cbz	r2, 8005a68 <xQueueReceive+0x2d8>
 8005a50:	68e1      	ldr	r1, [r4, #12]
 8005a52:	6863      	ldr	r3, [r4, #4]
 8005a54:	4411      	add	r1, r2
 8005a56:	4299      	cmp	r1, r3
 8005a58:	60e1      	str	r1, [r4, #12]
 8005a5a:	bf28      	it	cs
 8005a5c:	6821      	ldrcs	r1, [r4, #0]
 8005a5e:	4630      	mov	r0, r6
 8005a60:	bf28      	it	cs
 8005a62:	60e1      	strcs	r1, [r4, #12]
 8005a64:	f002 f8a2 	bl	8007bac <memcpy>
 8005a68:	3d01      	subs	r5, #1
 8005a6a:	63a5      	str	r5, [r4, #56]	; 0x38
 8005a6c:	6923      	ldr	r3, [r4, #16]
 8005a6e:	b91b      	cbnz	r3, 8005a78 <xQueueReceive+0x2e8>
 8005a70:	f001 fc5a 	bl	8007328 <vPortExitCritical>
 8005a74:	2001      	movs	r0, #1
 8005a76:	e784      	b.n	8005982 <xQueueReceive+0x1f2>
 8005a78:	f104 0010 	add.w	r0, r4, #16
 8005a7c:	f000 fe1a 	bl	80066b4 <xTaskRemoveFromEventList>
 8005a80:	2800      	cmp	r0, #0
 8005a82:	d0f5      	beq.n	8005a70 <xQueueReceive+0x2e0>
 8005a84:	f04f 5280 	mov.w	r2, #268435456	; 0x10000000
 8005a88:	4b03      	ldr	r3, [pc, #12]	; (8005a98 <xQueueReceive+0x308>)
 8005a8a:	601a      	str	r2, [r3, #0]
 8005a8c:	f3bf 8f4f 	dsb	sy
 8005a90:	f3bf 8f6f 	isb	sy
 8005a94:	e7ec      	b.n	8005a70 <xQueueReceive+0x2e0>
 8005a96:	bf00      	nop
 8005a98:	e000ed04 	.word	0xe000ed04

08005a9c <xQueueReceiveFromISR>:
 8005a9c:	e92d 43f8 	stmdb	sp!, {r3, r4, r5, r6, r7, r8, r9, lr}
 8005aa0:	b310      	cbz	r0, 8005ae8 <xQueueReceiveFromISR+0x4c>
 8005aa2:	4689      	mov	r9, r1
 8005aa4:	4690      	mov	r8, r2
 8005aa6:	4604      	mov	r4, r0
 8005aa8:	b191      	cbz	r1, 8005ad0 <xQueueReceiveFromISR+0x34>
 8005aaa:	f001 fd19 	bl	80074e0 <vPortValidateInterruptPriority>
 8005aae:	f3ef 8711 	mrs	r7, BASEPRI
 8005ab2:	f04f 0350 	mov.w	r3, #80	; 0x50
 8005ab6:	f383 8811 	msr	BASEPRI, r3
 8005aba:	f3bf 8f6f 	isb	sy
 8005abe:	f3bf 8f4f 	dsb	sy
 8005ac2:	6ba5      	ldr	r5, [r4, #56]	; 0x38
 8005ac4:	b9cd      	cbnz	r5, 8005afa <xQueueReceiveFromISR+0x5e>
 8005ac6:	4628      	mov	r0, r5
 8005ac8:	f387 8811 	msr	BASEPRI, r7
 8005acc:	e8bd 83f8 	ldmia.w	sp!, {r3, r4, r5, r6, r7, r8, r9, pc}
 8005ad0:	6c03      	ldr	r3, [r0, #64]	; 0x40
 8005ad2:	2b00      	cmp	r3, #0
 8005ad4:	d0e9      	beq.n	8005aaa <xQueueReceiveFromISR+0xe>
 8005ad6:	f04f 0350 	mov.w	r3, #80	; 0x50
 8005ada:	f383 8811 	msr	BASEPRI, r3
 8005ade:	f3bf 8f6f 	isb	sy
 8005ae2:	f3bf 8f4f 	dsb	sy
 8005ae6:	e7fe      	b.n	8005ae6 <xQueueReceiveFromISR+0x4a>
 8005ae8:	f04f 0350 	mov.w	r3, #80	; 0x50
 8005aec:	f383 8811 	msr	BASEPRI, r3
 8005af0:	f3bf 8f6f 	isb	sy
 8005af4:	f3bf 8f4f 	dsb	sy
 8005af8:	e7fe      	b.n	8005af8 <xQueueReceiveFromISR+0x5c>
 8005afa:	f894 6044 	ldrb.w	r6, [r4, #68]	; 0x44
 8005afe:	6c22      	ldr	r2, [r4, #64]	; 0x40
 8005b00:	b276      	sxtb	r6, r6
 8005b02:	b15a      	cbz	r2, 8005b1c <xQueueReceiveFromISR+0x80>
 8005b04:	68e1      	ldr	r1, [r4, #12]
 8005b06:	6863      	ldr	r3, [r4, #4]
 8005b08:	4411      	add	r1, r2
 8005b0a:	4299      	cmp	r1, r3
 8005b0c:	60e1      	str	r1, [r4, #12]
 8005b0e:	bf28      	it	cs
 8005b10:	6821      	ldrcs	r1, [r4, #0]
 8005b12:	4648      	mov	r0, r9
 8005b14:	bf28      	it	cs
 8005b16:	60e1      	strcs	r1, [r4, #12]
 8005b18:	f002 f848 	bl	8007bac <memcpy>
 8005b1c:	3d01      	subs	r5, #1
 8005b1e:	1c73      	adds	r3, r6, #1
 8005b20:	63a5      	str	r5, [r4, #56]	; 0x38
 8005b22:	d008      	beq.n	8005b36 <xQueueReceiveFromISR+0x9a>
 8005b24:	1c73      	adds	r3, r6, #1
 8005b26:	b25b      	sxtb	r3, r3
 8005b28:	f884 3044 	strb.w	r3, [r4, #68]	; 0x44
 8005b2c:	2001      	movs	r0, #1
 8005b2e:	f387 8811 	msr	BASEPRI, r7
 8005b32:	e8bd 83f8 	ldmia.w	sp!, {r3, r4, r5, r6, r7, r8, r9, pc}
 8005b36:	6923      	ldr	r3, [r4, #16]
 8005b38:	2b00      	cmp	r3, #0
 8005b3a:	d0f7      	beq.n	8005b2c <xQueueReceiveFromISR+0x90>
 8005b3c:	f104 0010 	add.w	r0, r4, #16
 8005b40:	f000 fdb8 	bl	80066b4 <xTaskRemoveFromEventList>
 8005b44:	2800      	cmp	r0, #0
 8005b46:	d0f1      	beq.n	8005b2c <xQueueReceiveFromISR+0x90>
 8005b48:	f1b8 0f00 	cmp.w	r8, #0
 8005b4c:	d0ee      	beq.n	8005b2c <xQueueReceiveFromISR+0x90>
 8005b4e:	2001      	movs	r0, #1
 8005b50:	f8c8 0000 	str.w	r0, [r8]
 8005b54:	e7b8      	b.n	8005ac8 <xQueueReceiveFromISR+0x2c>
 8005b56:	bf00      	nop

08005b58 <vQueueAddToRegistry>:
 8005b58:	4b13      	ldr	r3, [pc, #76]	; (8005ba8 <vQueueAddToRegistry+0x50>)
 8005b5a:	681a      	ldr	r2, [r3, #0]
 8005b5c:	b17a      	cbz	r2, 8005b7e <vQueueAddToRegistry+0x26>
 8005b5e:	689a      	ldr	r2, [r3, #8]
 8005b60:	b1aa      	cbz	r2, 8005b8e <vQueueAddToRegistry+0x36>
 8005b62:	691a      	ldr	r2, [r3, #16]
 8005b64:	b1aa      	cbz	r2, 8005b92 <vQueueAddToRegistry+0x3a>
 8005b66:	699a      	ldr	r2, [r3, #24]
 8005b68:	b1aa      	cbz	r2, 8005b96 <vQueueAddToRegistry+0x3e>
 8005b6a:	6a1a      	ldr	r2, [r3, #32]
 8005b6c:	b1aa      	cbz	r2, 8005b9a <vQueueAddToRegistry+0x42>
 8005b6e:	6a9a      	ldr	r2, [r3, #40]	; 0x28
 8005b70:	b1aa      	cbz	r2, 8005b9e <vQueueAddToRegistry+0x46>
 8005b72:	6b1a      	ldr	r2, [r3, #48]	; 0x30
 8005b74:	b112      	cbz	r2, 8005b7c <vQueueAddToRegistry+0x24>
 8005b76:	6b9a      	ldr	r2, [r3, #56]	; 0x38
 8005b78:	b19a      	cbz	r2, 8005ba2 <vQueueAddToRegistry+0x4a>
 8005b7a:	4770      	bx	lr
 8005b7c:	2206      	movs	r2, #6
 8005b7e:	b410      	push	{r4}
 8005b80:	eb03 04c2 	add.w	r4, r3, r2, lsl #3
 8005b84:	6060      	str	r0, [r4, #4]
 8005b86:	f843 1032 	str.w	r1, [r3, r2, lsl #3]
 8005b8a:	bc10      	pop	{r4}
 8005b8c:	4770      	bx	lr
 8005b8e:	2201      	movs	r2, #1
 8005b90:	e7f5      	b.n	8005b7e <vQueueAddToRegistry+0x26>
 8005b92:	2202      	movs	r2, #2
 8005b94:	e7f3      	b.n	8005b7e <vQueueAddToRegistry+0x26>
 8005b96:	2203      	movs	r2, #3
 8005b98:	e7f1      	b.n	8005b7e <vQueueAddToRegistry+0x26>
 8005b9a:	2204      	movs	r2, #4
 8005b9c:	e7ef      	b.n	8005b7e <vQueueAddToRegistry+0x26>
 8005b9e:	2205      	movs	r2, #5
 8005ba0:	e7ed      	b.n	8005b7e <vQueueAddToRegistry+0x26>
 8005ba2:	2207      	movs	r2, #7
 8005ba4:	e7eb      	b.n	8005b7e <vQueueAddToRegistry+0x26>
 8005ba6:	bf00      	nop
 8005ba8:	20004550 	.word	0x20004550

08005bac <vQueueWaitForMessageRestricted>:
 8005bac:	b570      	push	{r4, r5, r6, lr}
 8005bae:	4604      	mov	r4, r0
 8005bb0:	460e      	mov	r6, r1
 8005bb2:	4615      	mov	r5, r2
 8005bb4:	f001 fb96 	bl	80072e4 <vPortEnterCritical>
 8005bb8:	f894 3044 	ldrb.w	r3, [r4, #68]	; 0x44
 8005bbc:	2bff      	cmp	r3, #255	; 0xff
 8005bbe:	bf04      	itt	eq
 8005bc0:	2300      	moveq	r3, #0
 8005bc2:	f884 3044 	strbeq.w	r3, [r4, #68]	; 0x44
 8005bc6:	f894 3045 	ldrb.w	r3, [r4, #69]	; 0x45
 8005bca:	2bff      	cmp	r3, #255	; 0xff
 8005bcc:	bf04      	itt	eq
 8005bce:	2300      	moveq	r3, #0
 8005bd0:	f884 3045 	strbeq.w	r3, [r4, #69]	; 0x45
 8005bd4:	f001 fba8 	bl	8007328 <vPortExitCritical>
 8005bd8:	6ba3      	ldr	r3, [r4, #56]	; 0x38
 8005bda:	2b00      	cmp	r3, #0
 8005bdc:	d045      	beq.n	8005c6a <vQueueWaitForMessageRestricted+0xbe>
 8005bde:	f001 fb81 	bl	80072e4 <vPortEnterCritical>
 8005be2:	f894 5045 	ldrb.w	r5, [r4, #69]	; 0x45
 8005be6:	b26d      	sxtb	r5, r5
 8005be8:	2d00      	cmp	r5, #0
 8005bea:	dd15      	ble.n	8005c18 <vQueueWaitForMessageRestricted+0x6c>
 8005bec:	f104 0624 	add.w	r6, r4, #36	; 0x24
 8005bf0:	e004      	b.n	8005bfc <vQueueWaitForMessageRestricted+0x50>
 8005bf2:	1e6b      	subs	r3, r5, #1
 8005bf4:	f013 0fff 	tst.w	r3, #255	; 0xff
 8005bf8:	b25d      	sxtb	r5, r3
 8005bfa:	d00d      	beq.n	8005c18 <vQueueWaitForMessageRestricted+0x6c>
 8005bfc:	6a63      	ldr	r3, [r4, #36]	; 0x24
 8005bfe:	b15b      	cbz	r3, 8005c18 <vQueueWaitForMessageRestricted+0x6c>
 8005c00:	4630      	mov	r0, r6
 8005c02:	f000 fd57 	bl	80066b4 <xTaskRemoveFromEventList>
 8005c06:	2800      	cmp	r0, #0
 8005c08:	d0f3      	beq.n	8005bf2 <vQueueWaitForMessageRestricted+0x46>
 8005c0a:	f000 fe31 	bl	8006870 <vTaskMissedYield>
 8005c0e:	1e6b      	subs	r3, r5, #1
 8005c10:	f013 0fff 	tst.w	r3, #255	; 0xff
 8005c14:	b25d      	sxtb	r5, r3
 8005c16:	d1f1      	bne.n	8005bfc <vQueueWaitForMessageRestricted+0x50>
 8005c18:	23ff      	movs	r3, #255	; 0xff
 8005c1a:	f884 3045 	strb.w	r3, [r4, #69]	; 0x45
 8005c1e:	f001 fb83 	bl	8007328 <vPortExitCritical>
 8005c22:	f001 fb5f 	bl	80072e4 <vPortEnterCritical>
 8005c26:	f894 5044 	ldrb.w	r5, [r4, #68]	; 0x44
 8005c2a:	b26d      	sxtb	r5, r5
 8005c2c:	2d00      	cmp	r5, #0
 8005c2e:	dd15      	ble.n	8005c5c <vQueueWaitForMessageRestricted+0xb0>
 8005c30:	f104 0610 	add.w	r6, r4, #16
 8005c34:	e004      	b.n	8005c40 <vQueueWaitForMessageRestricted+0x94>
 8005c36:	1e6b      	subs	r3, r5, #1
 8005c38:	f013 0fff 	tst.w	r3, #255	; 0xff
 8005c3c:	b25d      	sxtb	r5, r3
 8005c3e:	d00d      	beq.n	8005c5c <vQueueWaitForMessageRestricted+0xb0>
 8005c40:	6923      	ldr	r3, [r4, #16]
 8005c42:	b15b      	cbz	r3, 8005c5c <vQueueWaitForMessageRestricted+0xb0>
 8005c44:	4630      	mov	r0, r6
 8005c46:	f000 fd35 	bl	80066b4 <xTaskRemoveFromEventList>
 8005c4a:	2800      	cmp	r0, #0
 8005c4c:	d0f3      	beq.n	8005c36 <vQueueWaitForMessageRestricted+0x8a>
 8005c4e:	f000 fe0f 	bl	8006870 <vTaskMissedYield>
 8005c52:	1e6b      	subs	r3, r5, #1
 8005c54:	f013 0fff 	tst.w	r3, #255	; 0xff
 8005c58:	b25d      	sxtb	r5, r3
 8005c5a:	d1f1      	bne.n	8005c40 <vQueueWaitForMessageRestricted+0x94>
 8005c5c:	23ff      	movs	r3, #255	; 0xff
 8005c5e:	f884 3044 	strb.w	r3, [r4, #68]	; 0x44
 8005c62:	e8bd 4070 	ldmia.w	sp!, {r4, r5, r6, lr}
 8005c66:	f001 bb5f 	b.w	8007328 <vPortExitCritical>
 8005c6a:	462a      	mov	r2, r5
 8005c6c:	4631      	mov	r1, r6
 8005c6e:	f104 0024 	add.w	r0, r4, #36	; 0x24
 8005c72:	f000 fcd5 	bl	8006620 <vTaskPlaceOnEventListRestricted>
 8005c76:	e7b2      	b.n	8005bde <vQueueWaitForMessageRestricted+0x32>

08005c78 <prvAddNewTaskToReadyList>:
 8005c78:	e92d 41f0 	stmdb	sp!, {r4, r5, r6, r7, r8, lr}
 8005c7c:	4604      	mov	r4, r0
 8005c7e:	f001 fb31 	bl	80072e4 <vPortEnterCritical>
 8005c82:	4a33      	ldr	r2, [pc, #204]	; (8005d50 <prvAddNewTaskToReadyList+0xd8>)
 8005c84:	4e33      	ldr	r6, [pc, #204]	; (8005d54 <prvAddNewTaskToReadyList+0xdc>)
 8005c86:	6813      	ldr	r3, [r2, #0]
 8005c88:	3301      	adds	r3, #1
 8005c8a:	6013      	str	r3, [r2, #0]
 8005c8c:	6833      	ldr	r3, [r6, #0]
 8005c8e:	2b00      	cmp	r3, #0
 8005c90:	d032      	beq.n	8005cf8 <prvAddNewTaskToReadyList+0x80>
 8005c92:	4d31      	ldr	r5, [pc, #196]	; (8005d58 <prvAddNewTaskToReadyList+0xe0>)
 8005c94:	682b      	ldr	r3, [r5, #0]
 8005c96:	b33b      	cbz	r3, 8005ce8 <prvAddNewTaskToReadyList+0x70>
 8005c98:	6ae0      	ldr	r0, [r4, #44]	; 0x2c
 8005c9a:	4f30      	ldr	r7, [pc, #192]	; (8005d5c <prvAddNewTaskToReadyList+0xe4>)
 8005c9c:	4930      	ldr	r1, [pc, #192]	; (8005d60 <prvAddNewTaskToReadyList+0xe8>)
 8005c9e:	4a31      	ldr	r2, [pc, #196]	; (8005d64 <prvAddNewTaskToReadyList+0xec>)
 8005ca0:	f8d1 c000 	ldr.w	ip, [r1]
 8005ca4:	6813      	ldr	r3, [r2, #0]
 8005ca6:	4584      	cmp	ip, r0
 8005ca8:	f103 0301 	add.w	r3, r3, #1
 8005cac:	bf38      	it	cc
 8005cae:	6008      	strcc	r0, [r1, #0]
 8005cb0:	eb00 0080 	add.w	r0, r0, r0, lsl #2
 8005cb4:	6563      	str	r3, [r4, #84]	; 0x54
 8005cb6:	eb07 0080 	add.w	r0, r7, r0, lsl #2
 8005cba:	1d21      	adds	r1, r4, #4
 8005cbc:	6013      	str	r3, [r2, #0]
 8005cbe:	f7ff fa43 	bl	8005148 <vListInsertEnd>
 8005cc2:	f001 fb31 	bl	8007328 <vPortExitCritical>
 8005cc6:	682b      	ldr	r3, [r5, #0]
 8005cc8:	b163      	cbz	r3, 8005ce4 <prvAddNewTaskToReadyList+0x6c>
 8005cca:	6832      	ldr	r2, [r6, #0]
 8005ccc:	6ae3      	ldr	r3, [r4, #44]	; 0x2c
 8005cce:	6ad2      	ldr	r2, [r2, #44]	; 0x2c
 8005cd0:	429a      	cmp	r2, r3
 8005cd2:	d207      	bcs.n	8005ce4 <prvAddNewTaskToReadyList+0x6c>
 8005cd4:	f04f 5280 	mov.w	r2, #268435456	; 0x10000000
 8005cd8:	4b23      	ldr	r3, [pc, #140]	; (8005d68 <prvAddNewTaskToReadyList+0xf0>)
 8005cda:	601a      	str	r2, [r3, #0]
 8005cdc:	f3bf 8f4f 	dsb	sy
 8005ce0:	f3bf 8f6f 	isb	sy
 8005ce4:	e8bd 81f0 	ldmia.w	sp!, {r4, r5, r6, r7, r8, pc}
 8005ce8:	6833      	ldr	r3, [r6, #0]
 8005cea:	6ae0      	ldr	r0, [r4, #44]	; 0x2c
 8005cec:	6adb      	ldr	r3, [r3, #44]	; 0x2c
 8005cee:	4f1b      	ldr	r7, [pc, #108]	; (8005d5c <prvAddNewTaskToReadyList+0xe4>)
 8005cf0:	4283      	cmp	r3, r0
 8005cf2:	bf98      	it	ls
 8005cf4:	6034      	strls	r4, [r6, #0]
 8005cf6:	e7d1      	b.n	8005c9c <prvAddNewTaskToReadyList+0x24>
 8005cf8:	6034      	str	r4, [r6, #0]
 8005cfa:	6813      	ldr	r3, [r2, #0]
 8005cfc:	2b01      	cmp	r3, #1
 8005cfe:	d003      	beq.n	8005d08 <prvAddNewTaskToReadyList+0x90>
 8005d00:	6ae0      	ldr	r0, [r4, #44]	; 0x2c
 8005d02:	4f16      	ldr	r7, [pc, #88]	; (8005d5c <prvAddNewTaskToReadyList+0xe4>)
 8005d04:	4d14      	ldr	r5, [pc, #80]	; (8005d58 <prvAddNewTaskToReadyList+0xe0>)
 8005d06:	e7c9      	b.n	8005c9c <prvAddNewTaskToReadyList+0x24>
 8005d08:	4f14      	ldr	r7, [pc, #80]	; (8005d5c <prvAddNewTaskToReadyList+0xe4>)
 8005d0a:	463d      	mov	r5, r7
 8005d0c:	f507 688c 	add.w	r8, r7, #1120	; 0x460
 8005d10:	4628      	mov	r0, r5
 8005d12:	3514      	adds	r5, #20
 8005d14:	f7ff fa08 	bl	8005128 <vListInitialise>
 8005d18:	45a8      	cmp	r8, r5
 8005d1a:	d1f9      	bne.n	8005d10 <prvAddNewTaskToReadyList+0x98>
 8005d1c:	f8df 8064 	ldr.w	r8, [pc, #100]	; 8005d84 <prvAddNewTaskToReadyList+0x10c>
 8005d20:	4d12      	ldr	r5, [pc, #72]	; (8005d6c <prvAddNewTaskToReadyList+0xf4>)
 8005d22:	4640      	mov	r0, r8
 8005d24:	f7ff fa00 	bl	8005128 <vListInitialise>
 8005d28:	4628      	mov	r0, r5
 8005d2a:	f7ff f9fd 	bl	8005128 <vListInitialise>
 8005d2e:	4810      	ldr	r0, [pc, #64]	; (8005d70 <prvAddNewTaskToReadyList+0xf8>)
 8005d30:	f7ff f9fa 	bl	8005128 <vListInitialise>
 8005d34:	480f      	ldr	r0, [pc, #60]	; (8005d74 <prvAddNewTaskToReadyList+0xfc>)
 8005d36:	f7ff f9f7 	bl	8005128 <vListInitialise>
 8005d3a:	480f      	ldr	r0, [pc, #60]	; (8005d78 <prvAddNewTaskToReadyList+0x100>)
 8005d3c:	f7ff f9f4 	bl	8005128 <vListInitialise>
 8005d40:	4a0e      	ldr	r2, [pc, #56]	; (8005d7c <prvAddNewTaskToReadyList+0x104>)
 8005d42:	4b0f      	ldr	r3, [pc, #60]	; (8005d80 <prvAddNewTaskToReadyList+0x108>)
 8005d44:	f8c2 8000 	str.w	r8, [r2]
 8005d48:	6ae0      	ldr	r0, [r4, #44]	; 0x2c
 8005d4a:	601d      	str	r5, [r3, #0]
 8005d4c:	4d02      	ldr	r5, [pc, #8]	; (8005d58 <prvAddNewTaskToReadyList+0xe0>)
 8005d4e:	e7a5      	b.n	8005c9c <prvAddNewTaskToReadyList+0x24>
 8005d50:	200008a4 	.word	0x200008a4
 8005d54:	20000438 	.word	0x20000438
 8005d58:	20000900 	.word	0x20000900
 8005d5c:	20000444 	.word	0x20000444
 8005d60:	200008b8 	.word	0x200008b8
 8005d64:	200008b4 	.word	0x200008b4
 8005d68:	e000ed04 	.word	0xe000ed04
 8005d6c:	200008d0 	.word	0x200008d0
 8005d70:	200008ec 	.word	0x200008ec
 8005d74:	20000918 	.word	0x20000918
 8005d78:	20000904 	.word	0x20000904
 8005d7c:	2000043c 	.word	0x2000043c
 8005d80:	20000440 	.word	0x20000440
 8005d84:	200008bc 	.word	0x200008bc

08005d88 <prvIdleTask>:
 8005d88:	f04f 5a80 	mov.w	sl, #268435456	; 0x10000000
 8005d8c:	b580      	push	{r7, lr}
 8005d8e:	4d20      	ldr	r5, [pc, #128]	; (8005e10 <prvIdleTask+0x88>)
 8005d90:	f8df 9088 	ldr.w	r9, [pc, #136]	; 8005e1c <prvIdleTask+0x94>
 8005d94:	4e1f      	ldr	r6, [pc, #124]	; (8005e14 <prvIdleTask+0x8c>)
 8005d96:	f8df 8088 	ldr.w	r8, [pc, #136]	; 8005e20 <prvIdleTask+0x98>
 8005d9a:	4f1f      	ldr	r7, [pc, #124]	; (8005e18 <prvIdleTask+0x90>)
 8005d9c:	682b      	ldr	r3, [r5, #0]
 8005d9e:	b343      	cbz	r3, 8005df2 <prvIdleTask+0x6a>
 8005da0:	f001 faa0 	bl	80072e4 <vPortEnterCritical>
 8005da4:	f8d9 300c 	ldr.w	r3, [r9, #12]
 8005da8:	68dc      	ldr	r4, [r3, #12]
 8005daa:	1d20      	adds	r0, r4, #4
 8005dac:	f7ff f9f2 	bl	8005194 <uxListRemove>
 8005db0:	6833      	ldr	r3, [r6, #0]
 8005db2:	3b01      	subs	r3, #1
 8005db4:	6033      	str	r3, [r6, #0]
 8005db6:	682b      	ldr	r3, [r5, #0]
 8005db8:	3b01      	subs	r3, #1
 8005dba:	602b      	str	r3, [r5, #0]
 8005dbc:	f001 fab4 	bl	8007328 <vPortExitCritical>
 8005dc0:	f894 3069 	ldrb.w	r3, [r4, #105]	; 0x69
 8005dc4:	b163      	cbz	r3, 8005de0 <prvIdleTask+0x58>
 8005dc6:	2b01      	cmp	r3, #1
 8005dc8:	d01e      	beq.n	8005e08 <prvIdleTask+0x80>
 8005dca:	2b02      	cmp	r3, #2
 8005dcc:	d0e6      	beq.n	8005d9c <prvIdleTask+0x14>
 8005dce:	f04f 0350 	mov.w	r3, #80	; 0x50
 8005dd2:	f383 8811 	msr	BASEPRI, r3
 8005dd6:	f3bf 8f6f 	isb	sy
 8005dda:	f3bf 8f4f 	dsb	sy
 8005dde:	e7fe      	b.n	8005dde <prvIdleTask+0x56>
 8005de0:	6b20      	ldr	r0, [r4, #48]	; 0x30
 8005de2:	f001 fc65 	bl	80076b0 <vPortFree>
 8005de6:	4620      	mov	r0, r4
 8005de8:	f001 fc62 	bl	80076b0 <vPortFree>
 8005dec:	682b      	ldr	r3, [r5, #0]
 8005dee:	2b00      	cmp	r3, #0
 8005df0:	d1d6      	bne.n	8005da0 <prvIdleTask+0x18>
 8005df2:	f8d8 3000 	ldr.w	r3, [r8]
 8005df6:	2b01      	cmp	r3, #1
 8005df8:	d9d0      	bls.n	8005d9c <prvIdleTask+0x14>
 8005dfa:	f8c7 a000 	str.w	sl, [r7]
 8005dfe:	f3bf 8f4f 	dsb	sy
 8005e02:	f3bf 8f6f 	isb	sy
 8005e06:	e7c9      	b.n	8005d9c <prvIdleTask+0x14>
 8005e08:	4620      	mov	r0, r4
 8005e0a:	f001 fc51 	bl	80076b0 <vPortFree>
 8005e0e:	e7c5      	b.n	8005d9c <prvIdleTask+0x14>
 8005e10:	200008a8 	.word	0x200008a8
 8005e14:	200008a4 	.word	0x200008a4
 8005e18:	e000ed04 	.word	0xe000ed04
 8005e1c:	20000918 	.word	0x20000918
 8005e20:	20000444 	.word	0x20000444

08005e24 <xTaskCreateStatic>:
 8005e24:	e92d 43f0 	stmdb	sp!, {r4, r5, r6, r7, r8, r9, lr}
 8005e28:	b083      	sub	sp, #12
 8005e2a:	4607      	mov	r7, r0
 8005e2c:	e9dd 600a 	ldrd	r6, r0, [sp, #40]	; 0x28
 8005e30:	9c0c      	ldr	r4, [sp, #48]	; 0x30
 8005e32:	b1c0      	cbz	r0, 8005e66 <xTaskCreateStatic+0x42>
 8005e34:	b174      	cbz	r4, 8005e54 <xTaskCreateStatic+0x30>
 8005e36:	4698      	mov	r8, r3
 8005e38:	236c      	movs	r3, #108	; 0x6c
 8005e3a:	9301      	str	r3, [sp, #4]
 8005e3c:	9b01      	ldr	r3, [sp, #4]
 8005e3e:	2b6c      	cmp	r3, #108	; 0x6c
 8005e40:	d01a      	beq.n	8005e78 <xTaskCreateStatic+0x54>
 8005e42:	f04f 0350 	mov.w	r3, #80	; 0x50
 8005e46:	f383 8811 	msr	BASEPRI, r3
 8005e4a:	f3bf 8f6f 	isb	sy
 8005e4e:	f3bf 8f4f 	dsb	sy
 8005e52:	e7fe      	b.n	8005e52 <xTaskCreateStatic+0x2e>
 8005e54:	f04f 0350 	mov.w	r3, #80	; 0x50
 8005e58:	f383 8811 	msr	BASEPRI, r3
 8005e5c:	f3bf 8f6f 	isb	sy
 8005e60:	f3bf 8f4f 	dsb	sy
 8005e64:	e7fe      	b.n	8005e64 <xTaskCreateStatic+0x40>
 8005e66:	f04f 0350 	mov.w	r3, #80	; 0x50
 8005e6a:	f383 8811 	msr	BASEPRI, r3
 8005e6e:	f3bf 8f6f 	isb	sy
 8005e72:	f3bf 8f4f 	dsb	sy
 8005e76:	e7fe      	b.n	8005e76 <xTaskCreateStatic+0x52>
 8005e78:	2302      	movs	r3, #2
 8005e7a:	4689      	mov	r9, r1
 8005e7c:	fa02 f503 	lsl.w	r5, r2, r3
 8005e80:	462a      	mov	r2, r5
 8005e82:	f884 3069 	strb.w	r3, [r4, #105]	; 0x69
 8005e86:	21a5      	movs	r1, #165	; 0xa5
 8005e88:	6320      	str	r0, [r4, #48]	; 0x30
 8005e8a:	f001 fe9d 	bl	8007bc8 <memset>
 8005e8e:	6b23      	ldr	r3, [r4, #48]	; 0x30
 8005e90:	3d04      	subs	r5, #4
 8005e92:	441d      	add	r5, r3
 8005e94:	f025 0507 	bic.w	r5, r5, #7
 8005e98:	f109 33ff 	add.w	r3, r9, #4294967295
 8005e9c:	f104 0233 	add.w	r2, r4, #51	; 0x33
 8005ea0:	f109 091f 	add.w	r9, r9, #31
 8005ea4:	e001      	b.n	8005eaa <xTaskCreateStatic+0x86>
 8005ea6:	454b      	cmp	r3, r9
 8005ea8:	d006      	beq.n	8005eb8 <xTaskCreateStatic+0x94>
 8005eaa:	f813 1f01 	ldrb.w	r1, [r3, #1]!
 8005eae:	f802 1f01 	strb.w	r1, [r2, #1]!
 8005eb2:	7819      	ldrb	r1, [r3, #0]
 8005eb4:	2900      	cmp	r1, #0
 8005eb6:	d1f6      	bne.n	8005ea6 <xTaskCreateStatic+0x82>
 8005eb8:	2e37      	cmp	r6, #55	; 0x37
 8005eba:	bf28      	it	cs
 8005ebc:	2637      	movcs	r6, #55	; 0x37
 8005ebe:	f04f 0900 	mov.w	r9, #0
 8005ec2:	62e6      	str	r6, [r4, #44]	; 0x2c
 8005ec4:	65e6      	str	r6, [r4, #92]	; 0x5c
 8005ec6:	1d20      	adds	r0, r4, #4
 8005ec8:	f884 9053 	strb.w	r9, [r4, #83]	; 0x53
 8005ecc:	f8c4 9060 	str.w	r9, [r4, #96]	; 0x60
 8005ed0:	f7ff f936 	bl	8005140 <vListInitialiseItem>
 8005ed4:	f1c6 0638 	rsb	r6, r6, #56	; 0x38
 8005ed8:	f104 0018 	add.w	r0, r4, #24
 8005edc:	f7ff f930 	bl	8005140 <vListInitialiseItem>
 8005ee0:	4642      	mov	r2, r8
 8005ee2:	4639      	mov	r1, r7
 8005ee4:	f8c4 9064 	str.w	r9, [r4, #100]	; 0x64
 8005ee8:	4628      	mov	r0, r5
 8005eea:	61a6      	str	r6, [r4, #24]
 8005eec:	6124      	str	r4, [r4, #16]
 8005eee:	f884 9068 	strb.w	r9, [r4, #104]	; 0x68
 8005ef2:	6264      	str	r4, [r4, #36]	; 0x24
 8005ef4:	f001 f9d0 	bl	8007298 <pxPortInitialiseStack>
 8005ef8:	4603      	mov	r3, r0
 8005efa:	4620      	mov	r0, r4
 8005efc:	6023      	str	r3, [r4, #0]
 8005efe:	f7ff febb 	bl	8005c78 <prvAddNewTaskToReadyList>
 8005f02:	4620      	mov	r0, r4
 8005f04:	b003      	add	sp, #12
 8005f06:	e8bd 83f0 	ldmia.w	sp!, {r4, r5, r6, r7, r8, r9, pc}
 8005f0a:	bf00      	nop

08005f0c <xTaskCreate>:
 8005f0c:	e92d 47f0 	stmdb	sp!, {r4, r5, r6, r7, r8, r9, sl, lr}
 8005f10:	0096      	lsls	r6, r2, #2
 8005f12:	4680      	mov	r8, r0
 8005f14:	4630      	mov	r0, r6
 8005f16:	460d      	mov	r5, r1
 8005f18:	4699      	mov	r9, r3
 8005f1a:	f001 fb0f 	bl	800753c <pvPortMalloc>
 8005f1e:	2800      	cmp	r0, #0
 8005f20:	d04a      	beq.n	8005fb8 <xTaskCreate+0xac>
 8005f22:	4607      	mov	r7, r0
 8005f24:	206c      	movs	r0, #108	; 0x6c
 8005f26:	f001 fb09 	bl	800753c <pvPortMalloc>
 8005f2a:	4604      	mov	r4, r0
 8005f2c:	2800      	cmp	r0, #0
 8005f2e:	d047      	beq.n	8005fc0 <xTaskCreate+0xb4>
 8005f30:	2300      	movs	r3, #0
 8005f32:	6307      	str	r7, [r0, #48]	; 0x30
 8005f34:	4632      	mov	r2, r6
 8005f36:	4638      	mov	r0, r7
 8005f38:	f884 3069 	strb.w	r3, [r4, #105]	; 0x69
 8005f3c:	21a5      	movs	r1, #165	; 0xa5
 8005f3e:	f001 fe43 	bl	8007bc8 <memset>
 8005f42:	1e6f      	subs	r7, r5, #1
 8005f44:	f8d4 a030 	ldr.w	sl, [r4, #48]	; 0x30
 8005f48:	351f      	adds	r5, #31
 8005f4a:	f104 0333 	add.w	r3, r4, #51	; 0x33
 8005f4e:	e001      	b.n	8005f54 <xTaskCreate+0x48>
 8005f50:	42bd      	cmp	r5, r7
 8005f52:	d006      	beq.n	8005f62 <xTaskCreate+0x56>
 8005f54:	f817 2f01 	ldrb.w	r2, [r7, #1]!
 8005f58:	f803 2f01 	strb.w	r2, [r3, #1]!
 8005f5c:	783a      	ldrb	r2, [r7, #0]
 8005f5e:	2a00      	cmp	r2, #0
 8005f60:	d1f6      	bne.n	8005f50 <xTaskCreate+0x44>
 8005f62:	9d08      	ldr	r5, [sp, #32]
 8005f64:	2700      	movs	r7, #0
 8005f66:	2d37      	cmp	r5, #55	; 0x37
 8005f68:	bf28      	it	cs
 8005f6a:	2537      	movcs	r5, #55	; 0x37
 8005f6c:	1d20      	adds	r0, r4, #4
 8005f6e:	62e5      	str	r5, [r4, #44]	; 0x2c
 8005f70:	65e5      	str	r5, [r4, #92]	; 0x5c
 8005f72:	f884 7053 	strb.w	r7, [r4, #83]	; 0x53
 8005f76:	6627      	str	r7, [r4, #96]	; 0x60
 8005f78:	3e04      	subs	r6, #4
 8005f7a:	f7ff f8e1 	bl	8005140 <vListInitialiseItem>
 8005f7e:	f1c5 0538 	rsb	r5, r5, #56	; 0x38
 8005f82:	f104 0018 	add.w	r0, r4, #24
 8005f86:	4456      	add	r6, sl
 8005f88:	f7ff f8da 	bl	8005140 <vListInitialiseItem>
 8005f8c:	6667      	str	r7, [r4, #100]	; 0x64
 8005f8e:	464a      	mov	r2, r9
 8005f90:	4641      	mov	r1, r8
 8005f92:	61a5      	str	r5, [r4, #24]
 8005f94:	f026 0007 	bic.w	r0, r6, #7
 8005f98:	f884 7068 	strb.w	r7, [r4, #104]	; 0x68
 8005f9c:	6124      	str	r4, [r4, #16]
 8005f9e:	6264      	str	r4, [r4, #36]	; 0x24
 8005fa0:	f001 f97a 	bl	8007298 <pxPortInitialiseStack>
 8005fa4:	9b09      	ldr	r3, [sp, #36]	; 0x24
 8005fa6:	6020      	str	r0, [r4, #0]
 8005fa8:	b103      	cbz	r3, 8005fac <xTaskCreate+0xa0>
 8005faa:	601c      	str	r4, [r3, #0]
 8005fac:	4620      	mov	r0, r4
 8005fae:	f7ff fe63 	bl	8005c78 <prvAddNewTaskToReadyList>
 8005fb2:	2001      	movs	r0, #1
 8005fb4:	e8bd 87f0 	ldmia.w	sp!, {r4, r5, r6, r7, r8, r9, sl, pc}
 8005fb8:	f04f 30ff 	mov.w	r0, #4294967295
 8005fbc:	e8bd 87f0 	ldmia.w	sp!, {r4, r5, r6, r7, r8, r9, sl, pc}
 8005fc0:	4638      	mov	r0, r7
 8005fc2:	f001 fb75 	bl	80076b0 <vPortFree>
 8005fc6:	f04f 30ff 	mov.w	r0, #4294967295
 8005fca:	e7f3      	b.n	8005fb4 <xTaskCreate+0xa8>

08005fcc <vTaskStartScheduler>:
 8005fcc:	2300      	movs	r3, #0
 8005fce:	b570      	push	{r4, r5, r6, lr}
 8005fd0:	b084      	sub	sp, #16
 8005fd2:	4668      	mov	r0, sp
 8005fd4:	aa02      	add	r2, sp, #8
 8005fd6:	a901      	add	r1, sp, #4
 8005fd8:	e9cd 3300 	strd	r3, r3, [sp]
 8005fdc:	f7fe fed6 	bl	8004d8c <vApplicationGetIdleTaskMemory>
 8005fe0:	9801      	ldr	r0, [sp, #4]
 8005fe2:	b1c8      	cbz	r0, 8006018 <vTaskStartScheduler+0x4c>
 8005fe4:	9c00      	ldr	r4, [sp, #0]
 8005fe6:	b174      	cbz	r4, 8006006 <vTaskStartScheduler+0x3a>
 8005fe8:	236c      	movs	r3, #108	; 0x6c
 8005fea:	9303      	str	r3, [sp, #12]
 8005fec:	9b03      	ldr	r3, [sp, #12]
 8005fee:	9d02      	ldr	r5, [sp, #8]
 8005ff0:	2b6c      	cmp	r3, #108	; 0x6c
 8005ff2:	d01a      	beq.n	800602a <vTaskStartScheduler+0x5e>
 8005ff4:	f04f 0350 	mov.w	r3, #80	; 0x50
 8005ff8:	f383 8811 	msr	BASEPRI, r3
 8005ffc:	f3bf 8f6f 	isb	sy
 8006000:	f3bf 8f4f 	dsb	sy
 8006004:	e7fe      	b.n	8006004 <vTaskStartScheduler+0x38>
 8006006:	f04f 0350 	mov.w	r3, #80	; 0x50
 800600a:	f383 8811 	msr	BASEPRI, r3
 800600e:	f3bf 8f6f 	isb	sy
 8006012:	f3bf 8f4f 	dsb	sy
 8006016:	e7fe      	b.n	8006016 <vTaskStartScheduler+0x4a>
 8006018:	f04f 0350 	mov.w	r3, #80	; 0x50
 800601c:	f383 8811 	msr	BASEPRI, r3
 8006020:	f3bf 8f6f 	isb	sy
 8006024:	f3bf 8f4f 	dsb	sy
 8006028:	e7fe      	b.n	8006028 <vTaskStartScheduler+0x5c>
 800602a:	2302      	movs	r3, #2
 800602c:	409d      	lsls	r5, r3
 800602e:	462a      	mov	r2, r5
 8006030:	21a5      	movs	r1, #165	; 0xa5
 8006032:	f884 3069 	strb.w	r3, [r4, #105]	; 0x69
 8006036:	6320      	str	r0, [r4, #48]	; 0x30
 8006038:	f001 fdc6 	bl	8007bc8 <memset>
 800603c:	2049      	movs	r0, #73	; 0x49
 800603e:	4621      	mov	r1, r4
 8006040:	6b23      	ldr	r3, [r4, #48]	; 0x30
 8006042:	4a2a      	ldr	r2, [pc, #168]	; (80060ec <vTaskStartScheduler+0x120>)
 8006044:	3d04      	subs	r5, #4
 8006046:	441d      	add	r5, r3
 8006048:	f801 0f34 	strb.w	r0, [r1, #52]!
 800604c:	f025 0607 	bic.w	r6, r5, #7
 8006050:	f102 001f 	add.w	r0, r2, #31
 8006054:	4290      	cmp	r0, r2
 8006056:	d005      	beq.n	8006064 <vTaskStartScheduler+0x98>
 8006058:	f812 3f01 	ldrb.w	r3, [r2, #1]!
 800605c:	f801 3f01 	strb.w	r3, [r1, #1]!
 8006060:	2b00      	cmp	r3, #0
 8006062:	d1f7      	bne.n	8006054 <vTaskStartScheduler+0x88>
 8006064:	2500      	movs	r5, #0
 8006066:	1d20      	adds	r0, r4, #4
 8006068:	e9c4 5517 	strd	r5, r5, [r4, #92]	; 0x5c
 800606c:	f884 5053 	strb.w	r5, [r4, #83]	; 0x53
 8006070:	62e5      	str	r5, [r4, #44]	; 0x2c
 8006072:	f7ff f865 	bl	8005140 <vListInitialiseItem>
 8006076:	f104 0018 	add.w	r0, r4, #24
 800607a:	f7ff f861 	bl	8005140 <vListInitialiseItem>
 800607e:	2338      	movs	r3, #56	; 0x38
 8006080:	462a      	mov	r2, r5
 8006082:	491b      	ldr	r1, [pc, #108]	; (80060f0 <vTaskStartScheduler+0x124>)
 8006084:	6665      	str	r5, [r4, #100]	; 0x64
 8006086:	61a3      	str	r3, [r4, #24]
 8006088:	4630      	mov	r0, r6
 800608a:	6124      	str	r4, [r4, #16]
 800608c:	f884 5068 	strb.w	r5, [r4, #104]	; 0x68
 8006090:	6264      	str	r4, [r4, #36]	; 0x24
 8006092:	f001 f901 	bl	8007298 <pxPortInitialiseStack>
 8006096:	4603      	mov	r3, r0
 8006098:	4620      	mov	r0, r4
 800609a:	6023      	str	r3, [r4, #0]
 800609c:	f7ff fdec 	bl	8005c78 <prvAddNewTaskToReadyList>
 80060a0:	f000 ff36 	bl	8006f10 <xTimerCreateTimerTask>
 80060a4:	2801      	cmp	r0, #1
 80060a6:	4603      	mov	r3, r0
 80060a8:	d003      	beq.n	80060b2 <vTaskStartScheduler+0xe6>
 80060aa:	3301      	adds	r3, #1
 80060ac:	d014      	beq.n	80060d8 <vTaskStartScheduler+0x10c>
 80060ae:	b004      	add	sp, #16
 80060b0:	bd70      	pop	{r4, r5, r6, pc}
 80060b2:	f04f 0250 	mov.w	r2, #80	; 0x50
 80060b6:	f382 8811 	msr	BASEPRI, r2
 80060ba:	f3bf 8f6f 	isb	sy
 80060be:	f3bf 8f4f 	dsb	sy
 80060c2:	f04f 34ff 	mov.w	r4, #4294967295
 80060c6:	490b      	ldr	r1, [pc, #44]	; (80060f4 <vTaskStartScheduler+0x128>)
 80060c8:	4a0b      	ldr	r2, [pc, #44]	; (80060f8 <vTaskStartScheduler+0x12c>)
 80060ca:	480c      	ldr	r0, [pc, #48]	; (80060fc <vTaskStartScheduler+0x130>)
 80060cc:	6004      	str	r4, [r0, #0]
 80060ce:	600b      	str	r3, [r1, #0]
 80060d0:	6015      	str	r5, [r2, #0]
 80060d2:	f001 f993 	bl	80073fc <xPortStartScheduler>
 80060d6:	e7ea      	b.n	80060ae <vTaskStartScheduler+0xe2>
 80060d8:	f04f 0350 	mov.w	r3, #80	; 0x50
 80060dc:	f383 8811 	msr	BASEPRI, r3
 80060e0:	f3bf 8f6f 	isb	sy
 80060e4:	f3bf 8f4f 	dsb	sy
 80060e8:	e7fe      	b.n	80060e8 <vTaskStartScheduler+0x11c>
 80060ea:	bf00      	nop
 80060ec:	08007fb0 	.word	0x08007fb0
 80060f0:	08005d89 	.word	0x08005d89
 80060f4:	20000900 	.word	0x20000900
 80060f8:	2000092c 	.word	0x2000092c
 80060fc:	200008e4 	.word	0x200008e4

08006100 <vTaskSuspendAll>:
 8006100:	4a02      	ldr	r2, [pc, #8]	; (800610c <vTaskSuspendAll+0xc>)
 8006102:	6813      	ldr	r3, [r2, #0]
 8006104:	3301      	adds	r3, #1
 8006106:	6013      	str	r3, [r2, #0]
 8006108:	4770      	bx	lr
 800610a:	bf00      	nop
 800610c:	200008b0 	.word	0x200008b0

08006110 <xTaskGetTickCount>:
 8006110:	4b01      	ldr	r3, [pc, #4]	; (8006118 <xTaskGetTickCount+0x8>)
 8006112:	6818      	ldr	r0, [r3, #0]
 8006114:	4770      	bx	lr
 8006116:	bf00      	nop
 8006118:	2000092c 	.word	0x2000092c

0800611c <xTaskIncrementTick>:
 800611c:	e92d 4ff8 	stmdb	sp!, {r3, r4, r5, r6, r7, r8, r9, sl, fp, lr}
 8006120:	4b4a      	ldr	r3, [pc, #296]	; (800624c <xTaskIncrementTick+0x130>)
 8006122:	681b      	ldr	r3, [r3, #0]
 8006124:	2b00      	cmp	r3, #0
 8006126:	d145      	bne.n	80061b4 <xTaskIncrementTick+0x98>
 8006128:	4b49      	ldr	r3, [pc, #292]	; (8006250 <xTaskIncrementTick+0x134>)
 800612a:	681e      	ldr	r6, [r3, #0]
 800612c:	3601      	adds	r6, #1
 800612e:	601e      	str	r6, [r3, #0]
 8006130:	2e00      	cmp	r6, #0
 8006132:	d04c      	beq.n	80061ce <xTaskIncrementTick+0xb2>
 8006134:	4d47      	ldr	r5, [pc, #284]	; (8006254 <xTaskIncrementTick+0x138>)
 8006136:	682b      	ldr	r3, [r5, #0]
 8006138:	42b3      	cmp	r3, r6
 800613a:	d85d      	bhi.n	80061f8 <xTaskIncrementTick+0xdc>
 800613c:	f8df a124 	ldr.w	sl, [pc, #292]	; 8006264 <xTaskIncrementTick+0x148>
 8006140:	f8da 3000 	ldr.w	r3, [sl]
 8006144:	681c      	ldr	r4, [r3, #0]
 8006146:	2c00      	cmp	r4, #0
 8006148:	d070      	beq.n	800622c <xTaskIncrementTick+0x110>
 800614a:	2400      	movs	r4, #0
 800614c:	f8df 8120 	ldr.w	r8, [pc, #288]	; 8006270 <xTaskIncrementTick+0x154>
 8006150:	f8df 9120 	ldr.w	r9, [pc, #288]	; 8006274 <xTaskIncrementTick+0x158>
 8006154:	e023      	b.n	800619e <xTaskIncrementTick+0x82>
 8006156:	4658      	mov	r0, fp
 8006158:	f7ff f81c 	bl	8005194 <uxListRemove>
 800615c:	6abb      	ldr	r3, [r7, #40]	; 0x28
 800615e:	f107 0018 	add.w	r0, r7, #24
 8006162:	b10b      	cbz	r3, 8006168 <xTaskIncrementTick+0x4c>
 8006164:	f7ff f816 	bl	8005194 <uxListRemove>
 8006168:	4a3b      	ldr	r2, [pc, #236]	; (8006258 <xTaskIncrementTick+0x13c>)
 800616a:	6afb      	ldr	r3, [r7, #44]	; 0x2c
 800616c:	6812      	ldr	r2, [r2, #0]
 800616e:	eb03 0083 	add.w	r0, r3, r3, lsl #2
 8006172:	4293      	cmp	r3, r2
 8006174:	bf88      	it	hi
 8006176:	4a38      	ldrhi	r2, [pc, #224]	; (8006258 <xTaskIncrementTick+0x13c>)
 8006178:	4659      	mov	r1, fp
 800617a:	eb08 0080 	add.w	r0, r8, r0, lsl #2
 800617e:	bf88      	it	hi
 8006180:	6013      	strhi	r3, [r2, #0]
 8006182:	f7fe ffe1 	bl	8005148 <vListInsertEnd>
 8006186:	f8d9 2000 	ldr.w	r2, [r9]
 800618a:	f8da 3000 	ldr.w	r3, [sl]
 800618e:	6af9      	ldr	r1, [r7, #44]	; 0x2c
 8006190:	6ad2      	ldr	r2, [r2, #44]	; 0x2c
 8006192:	681b      	ldr	r3, [r3, #0]
 8006194:	4291      	cmp	r1, r2
 8006196:	bf28      	it	cs
 8006198:	2401      	movcs	r4, #1
 800619a:	2b00      	cmp	r3, #0
 800619c:	d04a      	beq.n	8006234 <xTaskIncrementTick+0x118>
 800619e:	f8da 3000 	ldr.w	r3, [sl]
 80061a2:	68db      	ldr	r3, [r3, #12]
 80061a4:	68df      	ldr	r7, [r3, #12]
 80061a6:	687b      	ldr	r3, [r7, #4]
 80061a8:	f107 0b04 	add.w	fp, r7, #4
 80061ac:	429e      	cmp	r6, r3
 80061ae:	d2d2      	bcs.n	8006156 <xTaskIncrementTick+0x3a>
 80061b0:	602b      	str	r3, [r5, #0]
 80061b2:	e026      	b.n	8006202 <xTaskIncrementTick+0xe6>
 80061b4:	2400      	movs	r4, #0
 80061b6:	4a29      	ldr	r2, [pc, #164]	; (800625c <xTaskIncrementTick+0x140>)
 80061b8:	6813      	ldr	r3, [r2, #0]
 80061ba:	3301      	adds	r3, #1
 80061bc:	6013      	str	r3, [r2, #0]
 80061be:	4b28      	ldr	r3, [pc, #160]	; (8006260 <xTaskIncrementTick+0x144>)
 80061c0:	681b      	ldr	r3, [r3, #0]
 80061c2:	2b00      	cmp	r3, #0
 80061c4:	bf0c      	ite	eq
 80061c6:	4620      	moveq	r0, r4
 80061c8:	2001      	movne	r0, #1
 80061ca:	e8bd 8ff8 	ldmia.w	sp!, {r3, r4, r5, r6, r7, r8, r9, sl, fp, pc}
 80061ce:	4b25      	ldr	r3, [pc, #148]	; (8006264 <xTaskIncrementTick+0x148>)
 80061d0:	681a      	ldr	r2, [r3, #0]
 80061d2:	6812      	ldr	r2, [r2, #0]
 80061d4:	bb0a      	cbnz	r2, 800621a <xTaskIncrementTick+0xfe>
 80061d6:	4a24      	ldr	r2, [pc, #144]	; (8006268 <xTaskIncrementTick+0x14c>)
 80061d8:	6818      	ldr	r0, [r3, #0]
 80061da:	6814      	ldr	r4, [r2, #0]
 80061dc:	4923      	ldr	r1, [pc, #140]	; (800626c <xTaskIncrementTick+0x150>)
 80061de:	601c      	str	r4, [r3, #0]
 80061e0:	6010      	str	r0, [r2, #0]
 80061e2:	680a      	ldr	r2, [r1, #0]
 80061e4:	3201      	adds	r2, #1
 80061e6:	600a      	str	r2, [r1, #0]
 80061e8:	681a      	ldr	r2, [r3, #0]
 80061ea:	6812      	ldr	r2, [r2, #0]
 80061ec:	bb32      	cbnz	r2, 800623c <xTaskIncrementTick+0x120>
 80061ee:	f04f 33ff 	mov.w	r3, #4294967295
 80061f2:	4d18      	ldr	r5, [pc, #96]	; (8006254 <xTaskIncrementTick+0x138>)
 80061f4:	602b      	str	r3, [r5, #0]
 80061f6:	e79e      	b.n	8006136 <xTaskIncrementTick+0x1a>
 80061f8:	2400      	movs	r4, #0
 80061fa:	f8df 8074 	ldr.w	r8, [pc, #116]	; 8006270 <xTaskIncrementTick+0x154>
 80061fe:	f8df 9074 	ldr.w	r9, [pc, #116]	; 8006274 <xTaskIncrementTick+0x158>
 8006202:	f8d9 3000 	ldr.w	r3, [r9]
 8006206:	6adb      	ldr	r3, [r3, #44]	; 0x2c
 8006208:	eb03 0383 	add.w	r3, r3, r3, lsl #2
 800620c:	009b      	lsls	r3, r3, #2
 800620e:	f858 3003 	ldr.w	r3, [r8, r3]
 8006212:	2b02      	cmp	r3, #2
 8006214:	bf28      	it	cs
 8006216:	2401      	movcs	r4, #1
 8006218:	e7d1      	b.n	80061be <xTaskIncrementTick+0xa2>
 800621a:	f04f 0350 	mov.w	r3, #80	; 0x50
 800621e:	f383 8811 	msr	BASEPRI, r3
 8006222:	f3bf 8f6f 	isb	sy
 8006226:	f3bf 8f4f 	dsb	sy
 800622a:	e7fe      	b.n	800622a <xTaskIncrementTick+0x10e>
 800622c:	f8df 8040 	ldr.w	r8, [pc, #64]	; 8006270 <xTaskIncrementTick+0x154>
 8006230:	f8df 9040 	ldr.w	r9, [pc, #64]	; 8006274 <xTaskIncrementTick+0x158>
 8006234:	f04f 33ff 	mov.w	r3, #4294967295
 8006238:	602b      	str	r3, [r5, #0]
 800623a:	e7e2      	b.n	8006202 <xTaskIncrementTick+0xe6>
 800623c:	681b      	ldr	r3, [r3, #0]
 800623e:	4d05      	ldr	r5, [pc, #20]	; (8006254 <xTaskIncrementTick+0x138>)
 8006240:	68db      	ldr	r3, [r3, #12]
 8006242:	68db      	ldr	r3, [r3, #12]
 8006244:	685b      	ldr	r3, [r3, #4]
 8006246:	602b      	str	r3, [r5, #0]
 8006248:	e775      	b.n	8006136 <xTaskIncrementTick+0x1a>
 800624a:	bf00      	nop
 800624c:	200008b0 	.word	0x200008b0
 8006250:	2000092c 	.word	0x2000092c
 8006254:	200008e4 	.word	0x200008e4
 8006258:	200008b8 	.word	0x200008b8
 800625c:	200008ac 	.word	0x200008ac
 8006260:	20000930 	.word	0x20000930
 8006264:	2000043c 	.word	0x2000043c
 8006268:	20000440 	.word	0x20000440
 800626c:	200008e8 	.word	0x200008e8
 8006270:	20000444 	.word	0x20000444
 8006274:	20000438 	.word	0x20000438

08006278 <xTaskResumeAll.part.0>:
 8006278:	e92d 4ff8 	stmdb	sp!, {r3, r4, r5, r6, r7, r8, r9, sl, fp, lr}
 800627c:	f001 f832 	bl	80072e4 <vPortEnterCritical>
 8006280:	4b3a      	ldr	r3, [pc, #232]	; (800636c <xTaskResumeAll.part.0+0xf4>)
 8006282:	681a      	ldr	r2, [r3, #0]
 8006284:	3a01      	subs	r2, #1
 8006286:	601a      	str	r2, [r3, #0]
 8006288:	681b      	ldr	r3, [r3, #0]
 800628a:	2b00      	cmp	r3, #0
 800628c:	d158      	bne.n	8006340 <xTaskResumeAll.part.0+0xc8>
 800628e:	4b38      	ldr	r3, [pc, #224]	; (8006370 <xTaskResumeAll.part.0+0xf8>)
 8006290:	681b      	ldr	r3, [r3, #0]
 8006292:	2b00      	cmp	r3, #0
 8006294:	d054      	beq.n	8006340 <xTaskResumeAll.part.0+0xc8>
 8006296:	4d37      	ldr	r5, [pc, #220]	; (8006374 <xTaskResumeAll.part.0+0xfc>)
 8006298:	682b      	ldr	r3, [r5, #0]
 800629a:	2b00      	cmp	r3, #0
 800629c:	d063      	beq.n	8006366 <xTaskResumeAll.part.0+0xee>
 800629e:	f04f 0a01 	mov.w	sl, #1
 80062a2:	4e35      	ldr	r6, [pc, #212]	; (8006378 <xTaskResumeAll.part.0+0x100>)
 80062a4:	f8df 80e8 	ldr.w	r8, [pc, #232]	; 8006390 <xTaskResumeAll.part.0+0x118>
 80062a8:	4f34      	ldr	r7, [pc, #208]	; (800637c <xTaskResumeAll.part.0+0x104>)
 80062aa:	f8df 90e8 	ldr.w	r9, [pc, #232]	; 8006394 <xTaskResumeAll.part.0+0x11c>
 80062ae:	68eb      	ldr	r3, [r5, #12]
 80062b0:	68dc      	ldr	r4, [r3, #12]
 80062b2:	f104 0b04 	add.w	fp, r4, #4
 80062b6:	f104 0018 	add.w	r0, r4, #24
 80062ba:	f7fe ff6b 	bl	8005194 <uxListRemove>
 80062be:	4658      	mov	r0, fp
 80062c0:	f7fe ff68 	bl	8005194 <uxListRemove>
 80062c4:	6ae3      	ldr	r3, [r4, #44]	; 0x2c
 80062c6:	6832      	ldr	r2, [r6, #0]
 80062c8:	eb03 0083 	add.w	r0, r3, r3, lsl #2
 80062cc:	4293      	cmp	r3, r2
 80062ce:	4659      	mov	r1, fp
 80062d0:	eb08 0080 	add.w	r0, r8, r0, lsl #2
 80062d4:	bf88      	it	hi
 80062d6:	6033      	strhi	r3, [r6, #0]
 80062d8:	f7fe ff36 	bl	8005148 <vListInsertEnd>
 80062dc:	683b      	ldr	r3, [r7, #0]
 80062de:	6ae2      	ldr	r2, [r4, #44]	; 0x2c
 80062e0:	6adb      	ldr	r3, [r3, #44]	; 0x2c
 80062e2:	429a      	cmp	r2, r3
 80062e4:	d332      	bcc.n	800634c <xTaskResumeAll.part.0+0xd4>
 80062e6:	f8c9 a000 	str.w	sl, [r9]
 80062ea:	682b      	ldr	r3, [r5, #0]
 80062ec:	2b00      	cmp	r3, #0
 80062ee:	d1de      	bne.n	80062ae <xTaskResumeAll.part.0+0x36>
 80062f0:	4b23      	ldr	r3, [pc, #140]	; (8006380 <xTaskResumeAll.part.0+0x108>)
 80062f2:	681a      	ldr	r2, [r3, #0]
 80062f4:	6812      	ldr	r2, [r2, #0]
 80062f6:	2a00      	cmp	r2, #0
 80062f8:	d030      	beq.n	800635c <xTaskResumeAll.part.0+0xe4>
 80062fa:	681a      	ldr	r2, [r3, #0]
 80062fc:	4b21      	ldr	r3, [pc, #132]	; (8006384 <xTaskResumeAll.part.0+0x10c>)
 80062fe:	68d2      	ldr	r2, [r2, #12]
 8006300:	68d2      	ldr	r2, [r2, #12]
 8006302:	6852      	ldr	r2, [r2, #4]
 8006304:	601a      	str	r2, [r3, #0]
 8006306:	4e20      	ldr	r6, [pc, #128]	; (8006388 <xTaskResumeAll.part.0+0x110>)
 8006308:	6834      	ldr	r4, [r6, #0]
 800630a:	b144      	cbz	r4, 800631e <xTaskResumeAll.part.0+0xa6>
 800630c:	2501      	movs	r5, #1
 800630e:	f7ff ff05 	bl	800611c <xTaskIncrementTick>
 8006312:	b108      	cbz	r0, 8006318 <xTaskResumeAll.part.0+0xa0>
 8006314:	f8c9 5000 	str.w	r5, [r9]
 8006318:	3c01      	subs	r4, #1
 800631a:	d1f8      	bne.n	800630e <xTaskResumeAll.part.0+0x96>
 800631c:	6034      	str	r4, [r6, #0]
 800631e:	f8d9 3000 	ldr.w	r3, [r9]
 8006322:	b16b      	cbz	r3, 8006340 <xTaskResumeAll.part.0+0xc8>
 8006324:	f04f 5280 	mov.w	r2, #268435456	; 0x10000000
 8006328:	4b18      	ldr	r3, [pc, #96]	; (800638c <xTaskResumeAll.part.0+0x114>)
 800632a:	601a      	str	r2, [r3, #0]
 800632c:	f3bf 8f4f 	dsb	sy
 8006330:	f3bf 8f6f 	isb	sy
 8006334:	2401      	movs	r4, #1
 8006336:	f000 fff7 	bl	8007328 <vPortExitCritical>
 800633a:	4620      	mov	r0, r4
 800633c:	e8bd 8ff8 	ldmia.w	sp!, {r3, r4, r5, r6, r7, r8, r9, sl, fp, pc}
 8006340:	2400      	movs	r4, #0
 8006342:	f000 fff1 	bl	8007328 <vPortExitCritical>
 8006346:	4620      	mov	r0, r4
 8006348:	e8bd 8ff8 	ldmia.w	sp!, {r3, r4, r5, r6, r7, r8, r9, sl, fp, pc}
 800634c:	682b      	ldr	r3, [r5, #0]
 800634e:	2b00      	cmp	r3, #0
 8006350:	d1ad      	bne.n	80062ae <xTaskResumeAll.part.0+0x36>
 8006352:	4b0b      	ldr	r3, [pc, #44]	; (8006380 <xTaskResumeAll.part.0+0x108>)
 8006354:	681a      	ldr	r2, [r3, #0]
 8006356:	6812      	ldr	r2, [r2, #0]
 8006358:	2a00      	cmp	r2, #0
 800635a:	d1ce      	bne.n	80062fa <xTaskResumeAll.part.0+0x82>
 800635c:	f04f 32ff 	mov.w	r2, #4294967295
 8006360:	4b08      	ldr	r3, [pc, #32]	; (8006384 <xTaskResumeAll.part.0+0x10c>)
 8006362:	601a      	str	r2, [r3, #0]
 8006364:	e7cf      	b.n	8006306 <xTaskResumeAll.part.0+0x8e>
 8006366:	f8df 902c 	ldr.w	r9, [pc, #44]	; 8006394 <xTaskResumeAll.part.0+0x11c>
 800636a:	e7cc      	b.n	8006306 <xTaskResumeAll.part.0+0x8e>
 800636c:	200008b0 	.word	0x200008b0
 8006370:	200008a4 	.word	0x200008a4
 8006374:	200008ec 	.word	0x200008ec
 8006378:	200008b8 	.word	0x200008b8
 800637c:	20000438 	.word	0x20000438
 8006380:	2000043c 	.word	0x2000043c
 8006384:	200008e4 	.word	0x200008e4
 8006388:	200008ac 	.word	0x200008ac
 800638c:	e000ed04 	.word	0xe000ed04
 8006390:	20000444 	.word	0x20000444
 8006394:	20000930 	.word	0x20000930

08006398 <xTaskResumeAll>:
 8006398:	4b06      	ldr	r3, [pc, #24]	; (80063b4 <xTaskResumeAll+0x1c>)
 800639a:	681b      	ldr	r3, [r3, #0]
 800639c:	b943      	cbnz	r3, 80063b0 <xTaskResumeAll+0x18>
 800639e:	f04f 0350 	mov.w	r3, #80	; 0x50
 80063a2:	f383 8811 	msr	BASEPRI, r3
 80063a6:	f3bf 8f6f 	isb	sy
 80063aa:	f3bf 8f4f 	dsb	sy
 80063ae:	e7fe      	b.n	80063ae <xTaskResumeAll+0x16>
 80063b0:	f7ff bf62 	b.w	8006278 <xTaskResumeAll.part.0>
 80063b4:	200008b0 	.word	0x200008b0

080063b8 <vTaskDelay>:
 80063b8:	b5f8      	push	{r3, r4, r5, r6, r7, lr}
 80063ba:	b940      	cbnz	r0, 80063ce <vTaskDelay+0x16>
 80063bc:	f04f 5280 	mov.w	r2, #268435456	; 0x10000000
 80063c0:	4b21      	ldr	r3, [pc, #132]	; (8006448 <vTaskDelay+0x90>)
 80063c2:	601a      	str	r2, [r3, #0]
 80063c4:	f3bf 8f4f 	dsb	sy
 80063c8:	f3bf 8f6f 	isb	sy
 80063cc:	bdf8      	pop	{r3, r4, r5, r6, r7, pc}
 80063ce:	4d1f      	ldr	r5, [pc, #124]	; (800644c <vTaskDelay+0x94>)
 80063d0:	682b      	ldr	r3, [r5, #0]
 80063d2:	b143      	cbz	r3, 80063e6 <vTaskDelay+0x2e>
 80063d4:	f04f 0350 	mov.w	r3, #80	; 0x50
 80063d8:	f383 8811 	msr	BASEPRI, r3
 80063dc:	f3bf 8f6f 	isb	sy
 80063e0:	f3bf 8f4f 	dsb	sy
 80063e4:	e7fe      	b.n	80063e4 <vTaskDelay+0x2c>
 80063e6:	4604      	mov	r4, r0
 80063e8:	682b      	ldr	r3, [r5, #0]
 80063ea:	4a19      	ldr	r2, [pc, #100]	; (8006450 <vTaskDelay+0x98>)
 80063ec:	3301      	adds	r3, #1
 80063ee:	4e19      	ldr	r6, [pc, #100]	; (8006454 <vTaskDelay+0x9c>)
 80063f0:	602b      	str	r3, [r5, #0]
 80063f2:	6817      	ldr	r7, [r2, #0]
 80063f4:	6830      	ldr	r0, [r6, #0]
 80063f6:	3004      	adds	r0, #4
 80063f8:	f7fe fecc 	bl	8005194 <uxListRemove>
 80063fc:	6833      	ldr	r3, [r6, #0]
 80063fe:	19e4      	adds	r4, r4, r7
 8006400:	605c      	str	r4, [r3, #4]
 8006402:	d315      	bcc.n	8006430 <vTaskDelay+0x78>
 8006404:	4b14      	ldr	r3, [pc, #80]	; (8006458 <vTaskDelay+0xa0>)
 8006406:	6818      	ldr	r0, [r3, #0]
 8006408:	6831      	ldr	r1, [r6, #0]
 800640a:	3104      	adds	r1, #4
 800640c:	f7fe feaa 	bl	8005164 <vListInsert>
 8006410:	682b      	ldr	r3, [r5, #0]
 8006412:	b943      	cbnz	r3, 8006426 <vTaskDelay+0x6e>
 8006414:	f04f 0350 	mov.w	r3, #80	; 0x50
 8006418:	f383 8811 	msr	BASEPRI, r3
 800641c:	f3bf 8f6f 	isb	sy
 8006420:	f3bf 8f4f 	dsb	sy
 8006424:	e7fe      	b.n	8006424 <vTaskDelay+0x6c>
 8006426:	f7ff ff27 	bl	8006278 <xTaskResumeAll.part.0>
 800642a:	2800      	cmp	r0, #0
 800642c:	d0c6      	beq.n	80063bc <vTaskDelay+0x4>
 800642e:	bdf8      	pop	{r3, r4, r5, r6, r7, pc}
 8006430:	4b0a      	ldr	r3, [pc, #40]	; (800645c <vTaskDelay+0xa4>)
 8006432:	6818      	ldr	r0, [r3, #0]
 8006434:	6831      	ldr	r1, [r6, #0]
 8006436:	3104      	adds	r1, #4
 8006438:	f7fe fe94 	bl	8005164 <vListInsert>
 800643c:	4b08      	ldr	r3, [pc, #32]	; (8006460 <vTaskDelay+0xa8>)
 800643e:	681a      	ldr	r2, [r3, #0]
 8006440:	4294      	cmp	r4, r2
 8006442:	bf38      	it	cc
 8006444:	601c      	strcc	r4, [r3, #0]
 8006446:	e7e3      	b.n	8006410 <vTaskDelay+0x58>
 8006448:	e000ed04 	.word	0xe000ed04
 800644c:	200008b0 	.word	0x200008b0
 8006450:	2000092c 	.word	0x2000092c
 8006454:	20000438 	.word	0x20000438
 8006458:	20000440 	.word	0x20000440
 800645c:	2000043c 	.word	0x2000043c
 8006460:	200008e4 	.word	0x200008e4

08006464 <vTaskSwitchContext>:
 8006464:	4b1b      	ldr	r3, [pc, #108]	; (80064d4 <vTaskSwitchContext+0x70>)
 8006466:	681b      	ldr	r3, [r3, #0]
 8006468:	b11b      	cbz	r3, 8006472 <vTaskSwitchContext+0xe>
 800646a:	2201      	movs	r2, #1
 800646c:	4b1a      	ldr	r3, [pc, #104]	; (80064d8 <vTaskSwitchContext+0x74>)
 800646e:	601a      	str	r2, [r3, #0]
 8006470:	4770      	bx	lr
 8006472:	4a19      	ldr	r2, [pc, #100]	; (80064d8 <vTaskSwitchContext+0x74>)
 8006474:	b430      	push	{r4, r5}
 8006476:	4c19      	ldr	r4, [pc, #100]	; (80064dc <vTaskSwitchContext+0x78>)
 8006478:	6013      	str	r3, [r2, #0]
 800647a:	6823      	ldr	r3, [r4, #0]
 800647c:	4a18      	ldr	r2, [pc, #96]	; (80064e0 <vTaskSwitchContext+0x7c>)
 800647e:	eb03 0183 	add.w	r1, r3, r3, lsl #2
 8006482:	0089      	lsls	r1, r1, #2
 8006484:	5850      	ldr	r0, [r2, r1]
 8006486:	0099      	lsls	r1, r3, #2
 8006488:	b940      	cbnz	r0, 800649c <vTaskSwitchContext+0x38>
 800648a:	b1d3      	cbz	r3, 80064c2 <vTaskSwitchContext+0x5e>
 800648c:	3b01      	subs	r3, #1
 800648e:	eb03 0183 	add.w	r1, r3, r3, lsl #2
 8006492:	f852 0021 	ldr.w	r0, [r2, r1, lsl #2]
 8006496:	0099      	lsls	r1, r3, #2
 8006498:	2800      	cmp	r0, #0
 800649a:	d0f6      	beq.n	800648a <vTaskSwitchContext+0x26>
 800649c:	4419      	add	r1, r3
 800649e:	eb02 0081 	add.w	r0, r2, r1, lsl #2
 80064a2:	4602      	mov	r2, r0
 80064a4:	6845      	ldr	r5, [r0, #4]
 80064a6:	3208      	adds	r2, #8
 80064a8:	6869      	ldr	r1, [r5, #4]
 80064aa:	4291      	cmp	r1, r2
 80064ac:	6041      	str	r1, [r0, #4]
 80064ae:	bf08      	it	eq
 80064b0:	6849      	ldreq	r1, [r1, #4]
 80064b2:	4a0c      	ldr	r2, [pc, #48]	; (80064e4 <vTaskSwitchContext+0x80>)
 80064b4:	bf08      	it	eq
 80064b6:	6041      	streq	r1, [r0, #4]
 80064b8:	68c9      	ldr	r1, [r1, #12]
 80064ba:	6011      	str	r1, [r2, #0]
 80064bc:	6023      	str	r3, [r4, #0]
 80064be:	bc30      	pop	{r4, r5}
 80064c0:	4770      	bx	lr
 80064c2:	f04f 0350 	mov.w	r3, #80	; 0x50
 80064c6:	f383 8811 	msr	BASEPRI, r3
 80064ca:	f3bf 8f6f 	isb	sy
 80064ce:	f3bf 8f4f 	dsb	sy
 80064d2:	e7fe      	b.n	80064d2 <vTaskSwitchContext+0x6e>
 80064d4:	200008b0 	.word	0x200008b0
 80064d8:	20000930 	.word	0x20000930
 80064dc:	200008b8 	.word	0x200008b8
 80064e0:	20000444 	.word	0x20000444
 80064e4:	20000438 	.word	0x20000438

080064e8 <vTaskPlaceOnEventList>:
 80064e8:	b1d0      	cbz	r0, 8006520 <vTaskPlaceOnEventList+0x38>
 80064ea:	b570      	push	{r4, r5, r6, lr}
 80064ec:	460c      	mov	r4, r1
 80064ee:	4d1a      	ldr	r5, [pc, #104]	; (8006558 <vTaskPlaceOnEventList+0x70>)
 80064f0:	6829      	ldr	r1, [r5, #0]
 80064f2:	3118      	adds	r1, #24
 80064f4:	f7fe fe36 	bl	8005164 <vListInsert>
 80064f8:	4b18      	ldr	r3, [pc, #96]	; (800655c <vTaskPlaceOnEventList+0x74>)
 80064fa:	681e      	ldr	r6, [r3, #0]
 80064fc:	6828      	ldr	r0, [r5, #0]
 80064fe:	3004      	adds	r0, #4
 8006500:	f7fe fe48 	bl	8005194 <uxListRemove>
 8006504:	1c63      	adds	r3, r4, #1
 8006506:	d014      	beq.n	8006532 <vTaskPlaceOnEventList+0x4a>
 8006508:	682b      	ldr	r3, [r5, #0]
 800650a:	19a4      	adds	r4, r4, r6
 800650c:	605c      	str	r4, [r3, #4]
 800650e:	d317      	bcc.n	8006540 <vTaskPlaceOnEventList+0x58>
 8006510:	4b13      	ldr	r3, [pc, #76]	; (8006560 <vTaskPlaceOnEventList+0x78>)
 8006512:	6818      	ldr	r0, [r3, #0]
 8006514:	6829      	ldr	r1, [r5, #0]
 8006516:	e8bd 4070 	ldmia.w	sp!, {r4, r5, r6, lr}
 800651a:	3104      	adds	r1, #4
 800651c:	f7fe be22 	b.w	8005164 <vListInsert>
 8006520:	f04f 0350 	mov.w	r3, #80	; 0x50
 8006524:	f383 8811 	msr	BASEPRI, r3
 8006528:	f3bf 8f6f 	isb	sy
 800652c:	f3bf 8f4f 	dsb	sy
 8006530:	e7fe      	b.n	8006530 <vTaskPlaceOnEventList+0x48>
 8006532:	6829      	ldr	r1, [r5, #0]
 8006534:	480b      	ldr	r0, [pc, #44]	; (8006564 <vTaskPlaceOnEventList+0x7c>)
 8006536:	3104      	adds	r1, #4
 8006538:	e8bd 4070 	ldmia.w	sp!, {r4, r5, r6, lr}
 800653c:	f7fe be04 	b.w	8005148 <vListInsertEnd>
 8006540:	4b09      	ldr	r3, [pc, #36]	; (8006568 <vTaskPlaceOnEventList+0x80>)
 8006542:	6818      	ldr	r0, [r3, #0]
 8006544:	6829      	ldr	r1, [r5, #0]
 8006546:	3104      	adds	r1, #4
 8006548:	f7fe fe0c 	bl	8005164 <vListInsert>
 800654c:	4b07      	ldr	r3, [pc, #28]	; (800656c <vTaskPlaceOnEventList+0x84>)
 800654e:	681a      	ldr	r2, [r3, #0]
 8006550:	4294      	cmp	r4, r2
 8006552:	bf38      	it	cc
 8006554:	601c      	strcc	r4, [r3, #0]
 8006556:	bd70      	pop	{r4, r5, r6, pc}
 8006558:	20000438 	.word	0x20000438
 800655c:	2000092c 	.word	0x2000092c
 8006560:	20000440 	.word	0x20000440
 8006564:	20000904 	.word	0x20000904
 8006568:	2000043c 	.word	0x2000043c
 800656c:	200008e4 	.word	0x200008e4

08006570 <vTaskPlaceOnUnorderedEventList>:
 8006570:	b158      	cbz	r0, 800658a <vTaskPlaceOnUnorderedEventList+0x1a>
 8006572:	4b24      	ldr	r3, [pc, #144]	; (8006604 <vTaskPlaceOnUnorderedEventList+0x94>)
 8006574:	681b      	ldr	r3, [r3, #0]
 8006576:	b98b      	cbnz	r3, 800659c <vTaskPlaceOnUnorderedEventList+0x2c>
 8006578:	f04f 0350 	mov.w	r3, #80	; 0x50
 800657c:	f383 8811 	msr	BASEPRI, r3
 8006580:	f3bf 8f6f 	isb	sy
 8006584:	f3bf 8f4f 	dsb	sy
 8006588:	e7fe      	b.n	8006588 <vTaskPlaceOnUnorderedEventList+0x18>
 800658a:	f04f 0350 	mov.w	r3, #80	; 0x50
 800658e:	f383 8811 	msr	BASEPRI, r3
 8006592:	f3bf 8f6f 	isb	sy
 8006596:	f3bf 8f4f 	dsb	sy
 800659a:	e7fe      	b.n	800659a <vTaskPlaceOnUnorderedEventList+0x2a>
 800659c:	b570      	push	{r4, r5, r6, lr}
 800659e:	4614      	mov	r4, r2
 80065a0:	4d19      	ldr	r5, [pc, #100]	; (8006608 <vTaskPlaceOnUnorderedEventList+0x98>)
 80065a2:	f041 4100 	orr.w	r1, r1, #2147483648	; 0x80000000
 80065a6:	682a      	ldr	r2, [r5, #0]
 80065a8:	682b      	ldr	r3, [r5, #0]
 80065aa:	6191      	str	r1, [r2, #24]
 80065ac:	f103 0118 	add.w	r1, r3, #24
 80065b0:	f7fe fdca 	bl	8005148 <vListInsertEnd>
 80065b4:	4b15      	ldr	r3, [pc, #84]	; (800660c <vTaskPlaceOnUnorderedEventList+0x9c>)
 80065b6:	681e      	ldr	r6, [r3, #0]
 80065b8:	6828      	ldr	r0, [r5, #0]
 80065ba:	3004      	adds	r0, #4
 80065bc:	f7fe fdea 	bl	8005194 <uxListRemove>
 80065c0:	1c63      	adds	r3, r4, #1
 80065c2:	d00b      	beq.n	80065dc <vTaskPlaceOnUnorderedEventList+0x6c>
 80065c4:	682b      	ldr	r3, [r5, #0]
 80065c6:	19a4      	adds	r4, r4, r6
 80065c8:	605c      	str	r4, [r3, #4]
 80065ca:	d30e      	bcc.n	80065ea <vTaskPlaceOnUnorderedEventList+0x7a>
 80065cc:	4b10      	ldr	r3, [pc, #64]	; (8006610 <vTaskPlaceOnUnorderedEventList+0xa0>)
 80065ce:	6818      	ldr	r0, [r3, #0]
 80065d0:	6829      	ldr	r1, [r5, #0]
 80065d2:	e8bd 4070 	ldmia.w	sp!, {r4, r5, r6, lr}
 80065d6:	3104      	adds	r1, #4
 80065d8:	f7fe bdc4 	b.w	8005164 <vListInsert>
 80065dc:	6829      	ldr	r1, [r5, #0]
 80065de:	480d      	ldr	r0, [pc, #52]	; (8006614 <vTaskPlaceOnUnorderedEventList+0xa4>)
 80065e0:	3104      	adds	r1, #4
 80065e2:	e8bd 4070 	ldmia.w	sp!, {r4, r5, r6, lr}
 80065e6:	f7fe bdaf 	b.w	8005148 <vListInsertEnd>
 80065ea:	4b0b      	ldr	r3, [pc, #44]	; (8006618 <vTaskPlaceOnUnorderedEventList+0xa8>)
 80065ec:	6818      	ldr	r0, [r3, #0]
 80065ee:	6829      	ldr	r1, [r5, #0]
 80065f0:	3104      	adds	r1, #4
 80065f2:	f7fe fdb7 	bl	8005164 <vListInsert>
 80065f6:	4b09      	ldr	r3, [pc, #36]	; (800661c <vTaskPlaceOnUnorderedEventList+0xac>)
 80065f8:	681a      	ldr	r2, [r3, #0]
 80065fa:	4294      	cmp	r4, r2
 80065fc:	bf38      	it	cc
 80065fe:	601c      	strcc	r4, [r3, #0]
 8006600:	bd70      	pop	{r4, r5, r6, pc}
 8006602:	bf00      	nop
 8006604:	200008b0 	.word	0x200008b0
 8006608:	20000438 	.word	0x20000438
 800660c:	2000092c 	.word	0x2000092c
 8006610:	20000440 	.word	0x20000440
 8006614:	20000904 	.word	0x20000904
 8006618:	2000043c 	.word	0x2000043c
 800661c:	200008e4 	.word	0x200008e4

08006620 <vTaskPlaceOnEventListRestricted>:
 8006620:	b330      	cbz	r0, 8006670 <vTaskPlaceOnEventListRestricted+0x50>
 8006622:	b570      	push	{r4, r5, r6, lr}
 8006624:	4616      	mov	r6, r2
 8006626:	4d1d      	ldr	r5, [pc, #116]	; (800669c <vTaskPlaceOnEventListRestricted+0x7c>)
 8006628:	460c      	mov	r4, r1
 800662a:	6829      	ldr	r1, [r5, #0]
 800662c:	3118      	adds	r1, #24
 800662e:	f7fe fd8b 	bl	8005148 <vListInsertEnd>
 8006632:	4b1b      	ldr	r3, [pc, #108]	; (80066a0 <vTaskPlaceOnEventListRestricted+0x80>)
 8006634:	b986      	cbnz	r6, 8006658 <vTaskPlaceOnEventListRestricted+0x38>
 8006636:	681e      	ldr	r6, [r3, #0]
 8006638:	6828      	ldr	r0, [r5, #0]
 800663a:	3004      	adds	r0, #4
 800663c:	f7fe fdaa 	bl	8005194 <uxListRemove>
 8006640:	682b      	ldr	r3, [r5, #0]
 8006642:	19a4      	adds	r4, r4, r6
 8006644:	605c      	str	r4, [r3, #4]
 8006646:	d31c      	bcc.n	8006682 <vTaskPlaceOnEventListRestricted+0x62>
 8006648:	4b16      	ldr	r3, [pc, #88]	; (80066a4 <vTaskPlaceOnEventListRestricted+0x84>)
 800664a:	6818      	ldr	r0, [r3, #0]
 800664c:	6829      	ldr	r1, [r5, #0]
 800664e:	e8bd 4070 	ldmia.w	sp!, {r4, r5, r6, lr}
 8006652:	3104      	adds	r1, #4
 8006654:	f7fe bd86 	b.w	8005164 <vListInsert>
 8006658:	681b      	ldr	r3, [r3, #0]
 800665a:	6828      	ldr	r0, [r5, #0]
 800665c:	3004      	adds	r0, #4
 800665e:	f7fe fd99 	bl	8005194 <uxListRemove>
 8006662:	6829      	ldr	r1, [r5, #0]
 8006664:	4810      	ldr	r0, [pc, #64]	; (80066a8 <vTaskPlaceOnEventListRestricted+0x88>)
 8006666:	3104      	adds	r1, #4
 8006668:	e8bd 4070 	ldmia.w	sp!, {r4, r5, r6, lr}
 800666c:	f7fe bd6c 	b.w	8005148 <vListInsertEnd>
 8006670:	f04f 0350 	mov.w	r3, #80	; 0x50
 8006674:	f383 8811 	msr	BASEPRI, r3
 8006678:	f3bf 8f6f 	isb	sy
 800667c:	f3bf 8f4f 	dsb	sy
 8006680:	e7fe      	b.n	8006680 <vTaskPlaceOnEventListRestricted+0x60>
 8006682:	4b0a      	ldr	r3, [pc, #40]	; (80066ac <vTaskPlaceOnEventListRestricted+0x8c>)
 8006684:	6818      	ldr	r0, [r3, #0]
 8006686:	6829      	ldr	r1, [r5, #0]
 8006688:	3104      	adds	r1, #4
 800668a:	f7fe fd6b 	bl	8005164 <vListInsert>
 800668e:	4b08      	ldr	r3, [pc, #32]	; (80066b0 <vTaskPlaceOnEventListRestricted+0x90>)
 8006690:	681a      	ldr	r2, [r3, #0]
 8006692:	4294      	cmp	r4, r2
 8006694:	bf38      	it	cc
 8006696:	601c      	strcc	r4, [r3, #0]
 8006698:	bd70      	pop	{r4, r5, r6, pc}
 800669a:	bf00      	nop
 800669c:	20000438 	.word	0x20000438
 80066a0:	2000092c 	.word	0x2000092c
 80066a4:	20000440 	.word	0x20000440
 80066a8:	20000904 	.word	0x20000904
 80066ac:	2000043c 	.word	0x2000043c
 80066b0:	200008e4 	.word	0x200008e4

080066b4 <xTaskRemoveFromEventList>:
 80066b4:	b538      	push	{r3, r4, r5, lr}
 80066b6:	68c3      	ldr	r3, [r0, #12]
 80066b8:	68dc      	ldr	r4, [r3, #12]
 80066ba:	b35c      	cbz	r4, 8006714 <xTaskRemoveFromEventList+0x60>
 80066bc:	f104 0518 	add.w	r5, r4, #24
 80066c0:	4628      	mov	r0, r5
 80066c2:	f7fe fd67 	bl	8005194 <uxListRemove>
 80066c6:	4b18      	ldr	r3, [pc, #96]	; (8006728 <xTaskRemoveFromEventList+0x74>)
 80066c8:	681b      	ldr	r3, [r3, #0]
 80066ca:	b173      	cbz	r3, 80066ea <xTaskRemoveFromEventList+0x36>
 80066cc:	4629      	mov	r1, r5
 80066ce:	4817      	ldr	r0, [pc, #92]	; (800672c <xTaskRemoveFromEventList+0x78>)
 80066d0:	f7fe fd3a 	bl	8005148 <vListInsertEnd>
 80066d4:	4b16      	ldr	r3, [pc, #88]	; (8006730 <xTaskRemoveFromEventList+0x7c>)
 80066d6:	6ae2      	ldr	r2, [r4, #44]	; 0x2c
 80066d8:	681b      	ldr	r3, [r3, #0]
 80066da:	6adb      	ldr	r3, [r3, #44]	; 0x2c
 80066dc:	429a      	cmp	r2, r3
 80066de:	d917      	bls.n	8006710 <xTaskRemoveFromEventList+0x5c>
 80066e0:	2301      	movs	r3, #1
 80066e2:	4a14      	ldr	r2, [pc, #80]	; (8006734 <xTaskRemoveFromEventList+0x80>)
 80066e4:	4618      	mov	r0, r3
 80066e6:	6013      	str	r3, [r2, #0]
 80066e8:	bd38      	pop	{r3, r4, r5, pc}
 80066ea:	1d25      	adds	r5, r4, #4
 80066ec:	4628      	mov	r0, r5
 80066ee:	f7fe fd51 	bl	8005194 <uxListRemove>
 80066f2:	4a11      	ldr	r2, [pc, #68]	; (8006738 <xTaskRemoveFromEventList+0x84>)
 80066f4:	6ae3      	ldr	r3, [r4, #44]	; 0x2c
 80066f6:	6811      	ldr	r1, [r2, #0]
 80066f8:	4810      	ldr	r0, [pc, #64]	; (800673c <xTaskRemoveFromEventList+0x88>)
 80066fa:	428b      	cmp	r3, r1
 80066fc:	bf88      	it	hi
 80066fe:	6013      	strhi	r3, [r2, #0]
 8006700:	eb03 0383 	add.w	r3, r3, r3, lsl #2
 8006704:	4629      	mov	r1, r5
 8006706:	eb00 0083 	add.w	r0, r0, r3, lsl #2
 800670a:	f7fe fd1d 	bl	8005148 <vListInsertEnd>
 800670e:	e7e1      	b.n	80066d4 <xTaskRemoveFromEventList+0x20>
 8006710:	2000      	movs	r0, #0
 8006712:	bd38      	pop	{r3, r4, r5, pc}
 8006714:	f04f 0350 	mov.w	r3, #80	; 0x50
 8006718:	f383 8811 	msr	BASEPRI, r3
 800671c:	f3bf 8f6f 	isb	sy
 8006720:	f3bf 8f4f 	dsb	sy
 8006724:	e7fe      	b.n	8006724 <xTaskRemoveFromEventList+0x70>
 8006726:	bf00      	nop
 8006728:	200008b0 	.word	0x200008b0
 800672c:	200008ec 	.word	0x200008ec
 8006730:	20000438 	.word	0x20000438
 8006734:	20000930 	.word	0x20000930
 8006738:	200008b8 	.word	0x200008b8
 800673c:	20000444 	.word	0x20000444

08006740 <vTaskRemoveFromUnorderedEventList>:
 8006740:	b538      	push	{r3, r4, r5, lr}
 8006742:	4c1c      	ldr	r4, [pc, #112]	; (80067b4 <vTaskRemoveFromUnorderedEventList+0x74>)
 8006744:	460b      	mov	r3, r1
 8006746:	6821      	ldr	r1, [r4, #0]
 8006748:	b941      	cbnz	r1, 800675c <vTaskRemoveFromUnorderedEventList+0x1c>
 800674a:	f04f 0350 	mov.w	r3, #80	; 0x50
 800674e:	f383 8811 	msr	BASEPRI, r3
 8006752:	f3bf 8f6f 	isb	sy
 8006756:	f3bf 8f4f 	dsb	sy
 800675a:	e7fe      	b.n	800675a <vTaskRemoveFromUnorderedEventList+0x1a>
 800675c:	68c4      	ldr	r4, [r0, #12]
 800675e:	f043 4300 	orr.w	r3, r3, #2147483648	; 0x80000000
 8006762:	6003      	str	r3, [r0, #0]
 8006764:	b1ec      	cbz	r4, 80067a2 <vTaskRemoveFromUnorderedEventList+0x62>
 8006766:	1d25      	adds	r5, r4, #4
 8006768:	f7fe fd14 	bl	8005194 <uxListRemove>
 800676c:	4628      	mov	r0, r5
 800676e:	f7fe fd11 	bl	8005194 <uxListRemove>
 8006772:	4a11      	ldr	r2, [pc, #68]	; (80067b8 <vTaskRemoveFromUnorderedEventList+0x78>)
 8006774:	6ae3      	ldr	r3, [r4, #44]	; 0x2c
 8006776:	6811      	ldr	r1, [r2, #0]
 8006778:	4810      	ldr	r0, [pc, #64]	; (80067bc <vTaskRemoveFromUnorderedEventList+0x7c>)
 800677a:	428b      	cmp	r3, r1
 800677c:	bf88      	it	hi
 800677e:	6013      	strhi	r3, [r2, #0]
 8006780:	eb03 0383 	add.w	r3, r3, r3, lsl #2
 8006784:	eb00 0083 	add.w	r0, r0, r3, lsl #2
 8006788:	4629      	mov	r1, r5
 800678a:	f7fe fcdd 	bl	8005148 <vListInsertEnd>
 800678e:	4b0c      	ldr	r3, [pc, #48]	; (80067c0 <vTaskRemoveFromUnorderedEventList+0x80>)
 8006790:	6ae2      	ldr	r2, [r4, #44]	; 0x2c
 8006792:	681b      	ldr	r3, [r3, #0]
 8006794:	6adb      	ldr	r3, [r3, #44]	; 0x2c
 8006796:	429a      	cmp	r2, r3
 8006798:	d902      	bls.n	80067a0 <vTaskRemoveFromUnorderedEventList+0x60>
 800679a:	2201      	movs	r2, #1
 800679c:	4b09      	ldr	r3, [pc, #36]	; (80067c4 <vTaskRemoveFromUnorderedEventList+0x84>)
 800679e:	601a      	str	r2, [r3, #0]
 80067a0:	bd38      	pop	{r3, r4, r5, pc}
 80067a2:	f04f 0350 	mov.w	r3, #80	; 0x50
 80067a6:	f383 8811 	msr	BASEPRI, r3
 80067aa:	f3bf 8f6f 	isb	sy
 80067ae:	f3bf 8f4f 	dsb	sy
 80067b2:	e7fe      	b.n	80067b2 <vTaskRemoveFromUnorderedEventList+0x72>
 80067b4:	200008b0 	.word	0x200008b0
 80067b8:	200008b8 	.word	0x200008b8
 80067bc:	20000444 	.word	0x20000444
 80067c0:	20000438 	.word	0x20000438
 80067c4:	20000930 	.word	0x20000930

080067c8 <vTaskInternalSetTimeOutState>:
 80067c8:	4a03      	ldr	r2, [pc, #12]	; (80067d8 <vTaskInternalSetTimeOutState+0x10>)
 80067ca:	4b04      	ldr	r3, [pc, #16]	; (80067dc <vTaskInternalSetTimeOutState+0x14>)
 80067cc:	6812      	ldr	r2, [r2, #0]
 80067ce:	681b      	ldr	r3, [r3, #0]
 80067d0:	e9c0 2300 	strd	r2, r3, [r0]
 80067d4:	4770      	bx	lr
 80067d6:	bf00      	nop
 80067d8:	200008e8 	.word	0x200008e8
 80067dc:	2000092c 	.word	0x2000092c

080067e0 <xTaskCheckForTimeOut>:
 80067e0:	b5f8      	push	{r3, r4, r5, r6, r7, lr}
 80067e2:	b308      	cbz	r0, 8006828 <xTaskCheckForTimeOut+0x48>
 80067e4:	460d      	mov	r5, r1
 80067e6:	b1b1      	cbz	r1, 8006816 <xTaskCheckForTimeOut+0x36>
 80067e8:	4604      	mov	r4, r0
 80067ea:	f000 fd7b 	bl	80072e4 <vPortEnterCritical>
 80067ee:	682b      	ldr	r3, [r5, #0]
 80067f0:	f8df c078 	ldr.w	ip, [pc, #120]	; 800686c <xTaskCheckForTimeOut+0x8c>
 80067f4:	1c5a      	adds	r2, r3, #1
 80067f6:	f8dc 1000 	ldr.w	r1, [ip]
 80067fa:	d02b      	beq.n	8006854 <xTaskCheckForTimeOut+0x74>
 80067fc:	e9d4 0200 	ldrd	r0, r2, [r4]
 8006800:	4e19      	ldr	r6, [pc, #100]	; (8006868 <xTaskCheckForTimeOut+0x88>)
 8006802:	6837      	ldr	r7, [r6, #0]
 8006804:	42b8      	cmp	r0, r7
 8006806:	d018      	beq.n	800683a <xTaskCheckForTimeOut+0x5a>
 8006808:	428a      	cmp	r2, r1
 800680a:	d816      	bhi.n	800683a <xTaskCheckForTimeOut+0x5a>
 800680c:	2601      	movs	r6, #1
 800680e:	f000 fd8b 	bl	8007328 <vPortExitCritical>
 8006812:	4630      	mov	r0, r6
 8006814:	bdf8      	pop	{r3, r4, r5, r6, r7, pc}
 8006816:	f04f 0350 	mov.w	r3, #80	; 0x50
 800681a:	f383 8811 	msr	BASEPRI, r3
 800681e:	f3bf 8f6f 	isb	sy
 8006822:	f3bf 8f4f 	dsb	sy
 8006826:	e7fe      	b.n	8006826 <xTaskCheckForTimeOut+0x46>
 8006828:	f04f 0350 	mov.w	r3, #80	; 0x50
 800682c:	f383 8811 	msr	BASEPRI, r3
 8006830:	f3bf 8f6f 	isb	sy
 8006834:	f3bf 8f4f 	dsb	sy
 8006838:	e7fe      	b.n	8006838 <xTaskCheckForTimeOut+0x58>
 800683a:	1a8f      	subs	r7, r1, r2
 800683c:	42bb      	cmp	r3, r7
 800683e:	d90e      	bls.n	800685e <xTaskCheckForTimeOut+0x7e>
 8006840:	6837      	ldr	r7, [r6, #0]
 8006842:	1a5b      	subs	r3, r3, r1
 8006844:	f8dc 1000 	ldr.w	r1, [ip]
 8006848:	4413      	add	r3, r2
 800684a:	602b      	str	r3, [r5, #0]
 800684c:	2600      	movs	r6, #0
 800684e:	e9c4 7100 	strd	r7, r1, [r4]
 8006852:	e7dc      	b.n	800680e <xTaskCheckForTimeOut+0x2e>
 8006854:	2600      	movs	r6, #0
 8006856:	f000 fd67 	bl	8007328 <vPortExitCritical>
 800685a:	4630      	mov	r0, r6
 800685c:	bdf8      	pop	{r3, r4, r5, r6, r7, pc}
 800685e:	2300      	movs	r3, #0
 8006860:	2601      	movs	r6, #1
 8006862:	602b      	str	r3, [r5, #0]
 8006864:	e7d3      	b.n	800680e <xTaskCheckForTimeOut+0x2e>
 8006866:	bf00      	nop
 8006868:	200008e8 	.word	0x200008e8
 800686c:	2000092c 	.word	0x2000092c

08006870 <vTaskMissedYield>:
 8006870:	2201      	movs	r2, #1
 8006872:	4b01      	ldr	r3, [pc, #4]	; (8006878 <vTaskMissedYield+0x8>)
 8006874:	601a      	str	r2, [r3, #0]
 8006876:	4770      	bx	lr
 8006878:	20000930 	.word	0x20000930

0800687c <xTaskGetSchedulerState>:
 800687c:	4b05      	ldr	r3, [pc, #20]	; (8006894 <xTaskGetSchedulerState+0x18>)
 800687e:	681b      	ldr	r3, [r3, #0]
 8006880:	b133      	cbz	r3, 8006890 <xTaskGetSchedulerState+0x14>
 8006882:	4b05      	ldr	r3, [pc, #20]	; (8006898 <xTaskGetSchedulerState+0x1c>)
 8006884:	681b      	ldr	r3, [r3, #0]
 8006886:	2b00      	cmp	r3, #0
 8006888:	bf0c      	ite	eq
 800688a:	2002      	moveq	r0, #2
 800688c:	2000      	movne	r0, #0
 800688e:	4770      	bx	lr
 8006890:	2001      	movs	r0, #1
 8006892:	4770      	bx	lr
 8006894:	20000900 	.word	0x20000900
 8006898:	200008b0 	.word	0x200008b0

0800689c <xTaskPriorityDisinherit>:
 800689c:	b1c0      	cbz	r0, 80068d0 <xTaskPriorityDisinherit+0x34>
 800689e:	4a1e      	ldr	r2, [pc, #120]	; (8006918 <xTaskPriorityDisinherit+0x7c>)
 80068a0:	b538      	push	{r3, r4, r5, lr}
 80068a2:	6814      	ldr	r4, [r2, #0]
 80068a4:	4284      	cmp	r4, r0
 80068a6:	d008      	beq.n	80068ba <xTaskPriorityDisinherit+0x1e>
 80068a8:	f04f 0350 	mov.w	r3, #80	; 0x50
 80068ac:	f383 8811 	msr	BASEPRI, r3
 80068b0:	f3bf 8f6f 	isb	sy
 80068b4:	f3bf 8f4f 	dsb	sy
 80068b8:	e7fe      	b.n	80068b8 <xTaskPriorityDisinherit+0x1c>
 80068ba:	6e23      	ldr	r3, [r4, #96]	; 0x60
 80068bc:	b153      	cbz	r3, 80068d4 <xTaskPriorityDisinherit+0x38>
 80068be:	6ae1      	ldr	r1, [r4, #44]	; 0x2c
 80068c0:	6de2      	ldr	r2, [r4, #92]	; 0x5c
 80068c2:	3b01      	subs	r3, #1
 80068c4:	4291      	cmp	r1, r2
 80068c6:	6623      	str	r3, [r4, #96]	; 0x60
 80068c8:	d000      	beq.n	80068cc <xTaskPriorityDisinherit+0x30>
 80068ca:	b163      	cbz	r3, 80068e6 <xTaskPriorityDisinherit+0x4a>
 80068cc:	2000      	movs	r0, #0
 80068ce:	bd38      	pop	{r3, r4, r5, pc}
 80068d0:	2000      	movs	r0, #0
 80068d2:	4770      	bx	lr
 80068d4:	f04f 0350 	mov.w	r3, #80	; 0x50
 80068d8:	f383 8811 	msr	BASEPRI, r3
 80068dc:	f3bf 8f6f 	isb	sy
 80068e0:	f3bf 8f4f 	dsb	sy
 80068e4:	e7fe      	b.n	80068e4 <xTaskPriorityDisinherit+0x48>
 80068e6:	1d25      	adds	r5, r4, #4
 80068e8:	4628      	mov	r0, r5
 80068ea:	f7fe fc53 	bl	8005194 <uxListRemove>
 80068ee:	4a0b      	ldr	r2, [pc, #44]	; (800691c <xTaskPriorityDisinherit+0x80>)
 80068f0:	6de3      	ldr	r3, [r4, #92]	; 0x5c
 80068f2:	6811      	ldr	r1, [r2, #0]
 80068f4:	f1c3 0038 	rsb	r0, r3, #56	; 0x38
 80068f8:	428b      	cmp	r3, r1
 80068fa:	61a0      	str	r0, [r4, #24]
 80068fc:	4808      	ldr	r0, [pc, #32]	; (8006920 <xTaskPriorityDisinherit+0x84>)
 80068fe:	62e3      	str	r3, [r4, #44]	; 0x2c
 8006900:	bf88      	it	hi
 8006902:	6013      	strhi	r3, [r2, #0]
 8006904:	eb03 0383 	add.w	r3, r3, r3, lsl #2
 8006908:	eb00 0083 	add.w	r0, r0, r3, lsl #2
 800690c:	4629      	mov	r1, r5
 800690e:	f7fe fc1b 	bl	8005148 <vListInsertEnd>
 8006912:	2001      	movs	r0, #1
 8006914:	bd38      	pop	{r3, r4, r5, pc}
 8006916:	bf00      	nop
 8006918:	20000438 	.word	0x20000438
 800691c:	200008b8 	.word	0x200008b8
 8006920:	20000444 	.word	0x20000444

08006924 <uxTaskResetEventItemValue>:
 8006924:	4a04      	ldr	r2, [pc, #16]	; (8006938 <uxTaskResetEventItemValue+0x14>)
 8006926:	6811      	ldr	r1, [r2, #0]
 8006928:	6813      	ldr	r3, [r2, #0]
 800692a:	6812      	ldr	r2, [r2, #0]
 800692c:	6adb      	ldr	r3, [r3, #44]	; 0x2c
 800692e:	6988      	ldr	r0, [r1, #24]
 8006930:	f1c3 0338 	rsb	r3, r3, #56	; 0x38
 8006934:	6193      	str	r3, [r2, #24]
 8006936:	4770      	bx	lr
 8006938:	20000438 	.word	0x20000438

0800693c <xTaskNotifyWait>:
 800693c:	e92d 41f0 	stmdb	sp!, {r4, r5, r6, r7, r8, lr}
 8006940:	4c30      	ldr	r4, [pc, #192]	; (8006a04 <xTaskNotifyWait+0xc8>)
 8006942:	461e      	mov	r6, r3
 8006944:	4607      	mov	r7, r0
 8006946:	4688      	mov	r8, r1
 8006948:	4615      	mov	r5, r2
 800694a:	f000 fccb 	bl	80072e4 <vPortEnterCritical>
 800694e:	6823      	ldr	r3, [r4, #0]
 8006950:	f893 3068 	ldrb.w	r3, [r3, #104]	; 0x68
 8006954:	2b02      	cmp	r3, #2
 8006956:	d009      	beq.n	800696c <xTaskNotifyWait+0x30>
 8006958:	2201      	movs	r2, #1
 800695a:	6823      	ldr	r3, [r4, #0]
 800695c:	6e58      	ldr	r0, [r3, #100]	; 0x64
 800695e:	ea20 0707 	bic.w	r7, r0, r7
 8006962:	665f      	str	r7, [r3, #100]	; 0x64
 8006964:	6823      	ldr	r3, [r4, #0]
 8006966:	f883 2068 	strb.w	r2, [r3, #104]	; 0x68
 800696a:	b9b6      	cbnz	r6, 800699a <xTaskNotifyWait+0x5e>
 800696c:	f000 fcdc 	bl	8007328 <vPortExitCritical>
 8006970:	f000 fcb8 	bl	80072e4 <vPortEnterCritical>
 8006974:	b115      	cbz	r5, 800697c <xTaskNotifyWait+0x40>
 8006976:	6823      	ldr	r3, [r4, #0]
 8006978:	6e5b      	ldr	r3, [r3, #100]	; 0x64
 800697a:	602b      	str	r3, [r5, #0]
 800697c:	6823      	ldr	r3, [r4, #0]
 800697e:	f893 3068 	ldrb.w	r3, [r3, #104]	; 0x68
 8006982:	2b02      	cmp	r3, #2
 8006984:	d024      	beq.n	80069d0 <xTaskNotifyWait+0x94>
 8006986:	2500      	movs	r5, #0
 8006988:	2200      	movs	r2, #0
 800698a:	6823      	ldr	r3, [r4, #0]
 800698c:	f883 2068 	strb.w	r2, [r3, #104]	; 0x68
 8006990:	f000 fcca 	bl	8007328 <vPortExitCritical>
 8006994:	4628      	mov	r0, r5
 8006996:	e8bd 81f0 	ldmia.w	sp!, {r4, r5, r6, r7, r8, pc}
 800699a:	4b1b      	ldr	r3, [pc, #108]	; (8006a08 <xTaskNotifyWait+0xcc>)
 800699c:	681f      	ldr	r7, [r3, #0]
 800699e:	6820      	ldr	r0, [r4, #0]
 80069a0:	3004      	adds	r0, #4
 80069a2:	f7fe fbf7 	bl	8005194 <uxListRemove>
 80069a6:	1c73      	adds	r3, r6, #1
 80069a8:	d019      	beq.n	80069de <xTaskNotifyWait+0xa2>
 80069aa:	6823      	ldr	r3, [r4, #0]
 80069ac:	19f6      	adds	r6, r6, r7
 80069ae:	605e      	str	r6, [r3, #4]
 80069b0:	d31b      	bcc.n	80069ea <xTaskNotifyWait+0xae>
 80069b2:	4b16      	ldr	r3, [pc, #88]	; (8006a0c <xTaskNotifyWait+0xd0>)
 80069b4:	6818      	ldr	r0, [r3, #0]
 80069b6:	6821      	ldr	r1, [r4, #0]
 80069b8:	3104      	adds	r1, #4
 80069ba:	f7fe fbd3 	bl	8005164 <vListInsert>
 80069be:	f04f 5280 	mov.w	r2, #268435456	; 0x10000000
 80069c2:	4b13      	ldr	r3, [pc, #76]	; (8006a10 <xTaskNotifyWait+0xd4>)
 80069c4:	601a      	str	r2, [r3, #0]
 80069c6:	f3bf 8f4f 	dsb	sy
 80069ca:	f3bf 8f6f 	isb	sy
 80069ce:	e7cd      	b.n	800696c <xTaskNotifyWait+0x30>
 80069d0:	6823      	ldr	r3, [r4, #0]
 80069d2:	2501      	movs	r5, #1
 80069d4:	6e59      	ldr	r1, [r3, #100]	; 0x64
 80069d6:	ea21 0108 	bic.w	r1, r1, r8
 80069da:	6659      	str	r1, [r3, #100]	; 0x64
 80069dc:	e7d4      	b.n	8006988 <xTaskNotifyWait+0x4c>
 80069de:	6821      	ldr	r1, [r4, #0]
 80069e0:	480c      	ldr	r0, [pc, #48]	; (8006a14 <xTaskNotifyWait+0xd8>)
 80069e2:	3104      	adds	r1, #4
 80069e4:	f7fe fbb0 	bl	8005148 <vListInsertEnd>
 80069e8:	e7e9      	b.n	80069be <xTaskNotifyWait+0x82>
 80069ea:	4b0b      	ldr	r3, [pc, #44]	; (8006a18 <xTaskNotifyWait+0xdc>)
 80069ec:	6818      	ldr	r0, [r3, #0]
 80069ee:	6821      	ldr	r1, [r4, #0]
 80069f0:	3104      	adds	r1, #4
 80069f2:	f7fe fbb7 	bl	8005164 <vListInsert>
 80069f6:	4b09      	ldr	r3, [pc, #36]	; (8006a1c <xTaskNotifyWait+0xe0>)
 80069f8:	681a      	ldr	r2, [r3, #0]
 80069fa:	4296      	cmp	r6, r2
 80069fc:	bf38      	it	cc
 80069fe:	601e      	strcc	r6, [r3, #0]
 8006a00:	e7dd      	b.n	80069be <xTaskNotifyWait+0x82>
 8006a02:	bf00      	nop
 8006a04:	20000438 	.word	0x20000438
 8006a08:	2000092c 	.word	0x2000092c
 8006a0c:	20000440 	.word	0x20000440
 8006a10:	e000ed04 	.word	0xe000ed04
 8006a14:	20000904 	.word	0x20000904
 8006a18:	2000043c 	.word	0x2000043c
 8006a1c:	200008e4 	.word	0x200008e4

08006a20 <xTaskGenericNotify>:
 8006a20:	b5f8      	push	{r3, r4, r5, r6, r7, lr}
 8006a22:	b1a8      	cbz	r0, 8006a50 <xTaskGenericNotify+0x30>
 8006a24:	461f      	mov	r7, r3
 8006a26:	460e      	mov	r6, r1
 8006a28:	4615      	mov	r5, r2
 8006a2a:	4604      	mov	r4, r0
 8006a2c:	f000 fc5a 	bl	80072e4 <vPortEnterCritical>
 8006a30:	b10f      	cbz	r7, 8006a36 <xTaskGenericNotify+0x16>
 8006a32:	6e63      	ldr	r3, [r4, #100]	; 0x64
 8006a34:	603b      	str	r3, [r7, #0]
 8006a36:	2102      	movs	r1, #2
 8006a38:	f894 2068 	ldrb.w	r2, [r4, #104]	; 0x68
 8006a3c:	1e6b      	subs	r3, r5, #1
 8006a3e:	f884 1068 	strb.w	r1, [r4, #104]	; 0x68
 8006a42:	b2d2      	uxtb	r2, r2
 8006a44:	2b03      	cmp	r3, #3
 8006a46:	d80f      	bhi.n	8006a68 <xTaskGenericNotify+0x48>
 8006a48:	e8df f003 	tbb	[pc, r3]
 8006a4c:	0b0d4145 	.word	0x0b0d4145
 8006a50:	f04f 0350 	mov.w	r3, #80	; 0x50
 8006a54:	f383 8811 	msr	BASEPRI, r3
 8006a58:	f3bf 8f6f 	isb	sy
 8006a5c:	f3bf 8f4f 	dsb	sy
 8006a60:	e7fe      	b.n	8006a60 <xTaskGenericNotify+0x40>
 8006a62:	2a02      	cmp	r2, #2
 8006a64:	d03b      	beq.n	8006ade <xTaskGenericNotify+0xbe>
 8006a66:	6666      	str	r6, [r4, #100]	; 0x64
 8006a68:	2a01      	cmp	r2, #1
 8006a6a:	d004      	beq.n	8006a76 <xTaskGenericNotify+0x56>
 8006a6c:	2401      	movs	r4, #1
 8006a6e:	f000 fc5b 	bl	8007328 <vPortExitCritical>
 8006a72:	4620      	mov	r0, r4
 8006a74:	bdf8      	pop	{r3, r4, r5, r6, r7, pc}
 8006a76:	1d25      	adds	r5, r4, #4
 8006a78:	4628      	mov	r0, r5
 8006a7a:	f7fe fb8b 	bl	8005194 <uxListRemove>
 8006a7e:	4a19      	ldr	r2, [pc, #100]	; (8006ae4 <xTaskGenericNotify+0xc4>)
 8006a80:	6ae3      	ldr	r3, [r4, #44]	; 0x2c
 8006a82:	6811      	ldr	r1, [r2, #0]
 8006a84:	4818      	ldr	r0, [pc, #96]	; (8006ae8 <xTaskGenericNotify+0xc8>)
 8006a86:	428b      	cmp	r3, r1
 8006a88:	bf88      	it	hi
 8006a8a:	6013      	strhi	r3, [r2, #0]
 8006a8c:	eb03 0383 	add.w	r3, r3, r3, lsl #2
 8006a90:	eb00 0083 	add.w	r0, r0, r3, lsl #2
 8006a94:	4629      	mov	r1, r5
 8006a96:	f7fe fb57 	bl	8005148 <vListInsertEnd>
 8006a9a:	6aa3      	ldr	r3, [r4, #40]	; 0x28
 8006a9c:	b143      	cbz	r3, 8006ab0 <xTaskGenericNotify+0x90>
 8006a9e:	f04f 0350 	mov.w	r3, #80	; 0x50
 8006aa2:	f383 8811 	msr	BASEPRI, r3
 8006aa6:	f3bf 8f6f 	isb	sy
 8006aaa:	f3bf 8f4f 	dsb	sy
 8006aae:	e7fe      	b.n	8006aae <xTaskGenericNotify+0x8e>
 8006ab0:	4b0e      	ldr	r3, [pc, #56]	; (8006aec <xTaskGenericNotify+0xcc>)
 8006ab2:	6ae2      	ldr	r2, [r4, #44]	; 0x2c
 8006ab4:	681b      	ldr	r3, [r3, #0]
 8006ab6:	6adb      	ldr	r3, [r3, #44]	; 0x2c
 8006ab8:	429a      	cmp	r2, r3
 8006aba:	d9d7      	bls.n	8006a6c <xTaskGenericNotify+0x4c>
 8006abc:	f04f 5280 	mov.w	r2, #268435456	; 0x10000000
 8006ac0:	4b0b      	ldr	r3, [pc, #44]	; (8006af0 <xTaskGenericNotify+0xd0>)
 8006ac2:	601a      	str	r2, [r3, #0]
 8006ac4:	f3bf 8f4f 	dsb	sy
 8006ac8:	f3bf 8f6f 	isb	sy
 8006acc:	e7ce      	b.n	8006a6c <xTaskGenericNotify+0x4c>
 8006ace:	6e63      	ldr	r3, [r4, #100]	; 0x64
 8006ad0:	3301      	adds	r3, #1
 8006ad2:	6663      	str	r3, [r4, #100]	; 0x64
 8006ad4:	e7c8      	b.n	8006a68 <xTaskGenericNotify+0x48>
 8006ad6:	6e63      	ldr	r3, [r4, #100]	; 0x64
 8006ad8:	431e      	orrs	r6, r3
 8006ada:	6666      	str	r6, [r4, #100]	; 0x64
 8006adc:	e7c4      	b.n	8006a68 <xTaskGenericNotify+0x48>
 8006ade:	2400      	movs	r4, #0
 8006ae0:	e7c5      	b.n	8006a6e <xTaskGenericNotify+0x4e>
 8006ae2:	bf00      	nop
 8006ae4:	200008b8 	.word	0x200008b8
 8006ae8:	20000444 	.word	0x20000444
 8006aec:	20000438 	.word	0x20000438
 8006af0:	e000ed04 	.word	0xe000ed04

08006af4 <xTaskGenericNotifyFromISR>:
 8006af4:	e92d 43f8 	stmdb	sp!, {r3, r4, r5, r6, r7, r8, r9, lr}
 8006af8:	9f08      	ldr	r7, [sp, #32]
 8006afa:	b310      	cbz	r0, 8006b42 <xTaskGenericNotifyFromISR+0x4e>
 8006afc:	4688      	mov	r8, r1
 8006afe:	4615      	mov	r5, r2
 8006b00:	4699      	mov	r9, r3
 8006b02:	4604      	mov	r4, r0
 8006b04:	f000 fcec 	bl	80074e0 <vPortValidateInterruptPriority>
 8006b08:	f3ef 8611 	mrs	r6, BASEPRI
 8006b0c:	f04f 0350 	mov.w	r3, #80	; 0x50
 8006b10:	f383 8811 	msr	BASEPRI, r3
 8006b14:	f3bf 8f6f 	isb	sy
 8006b18:	f3bf 8f4f 	dsb	sy
 8006b1c:	f1b9 0f00 	cmp.w	r9, #0
 8006b20:	d002      	beq.n	8006b28 <xTaskGenericNotifyFromISR+0x34>
 8006b22:	6e63      	ldr	r3, [r4, #100]	; 0x64
 8006b24:	f8c9 3000 	str.w	r3, [r9]
 8006b28:	2102      	movs	r1, #2
 8006b2a:	f894 2068 	ldrb.w	r2, [r4, #104]	; 0x68
 8006b2e:	1e6b      	subs	r3, r5, #1
 8006b30:	f884 1068 	strb.w	r1, [r4, #104]	; 0x68
 8006b34:	b2d2      	uxtb	r2, r2
 8006b36:	2b03      	cmp	r3, #3
 8006b38:	d810      	bhi.n	8006b5c <xTaskGenericNotifyFromISR+0x68>
 8006b3a:	e8df f003 	tbb	[pc, r3]
 8006b3e:	4044      	.short	0x4044
 8006b40:	0b0d      	.short	0x0b0d
 8006b42:	f04f 0350 	mov.w	r3, #80	; 0x50
 8006b46:	f383 8811 	msr	BASEPRI, r3
 8006b4a:	f3bf 8f6f 	isb	sy
 8006b4e:	f3bf 8f4f 	dsb	sy
 8006b52:	e7fe      	b.n	8006b52 <xTaskGenericNotifyFromISR+0x5e>
 8006b54:	2a02      	cmp	r2, #2
 8006b56:	d03b      	beq.n	8006bd0 <xTaskGenericNotifyFromISR+0xdc>
 8006b58:	f8c4 8064 	str.w	r8, [r4, #100]	; 0x64
 8006b5c:	2a01      	cmp	r2, #1
 8006b5e:	d004      	beq.n	8006b6a <xTaskGenericNotifyFromISR+0x76>
 8006b60:	2001      	movs	r0, #1
 8006b62:	f386 8811 	msr	BASEPRI, r6
 8006b66:	e8bd 83f8 	ldmia.w	sp!, {r3, r4, r5, r6, r7, r8, r9, pc}
 8006b6a:	6aa3      	ldr	r3, [r4, #40]	; 0x28
 8006b6c:	b143      	cbz	r3, 8006b80 <xTaskGenericNotifyFromISR+0x8c>
 8006b6e:	f04f 0350 	mov.w	r3, #80	; 0x50
 8006b72:	f383 8811 	msr	BASEPRI, r3
 8006b76:	f3bf 8f6f 	isb	sy
 8006b7a:	f3bf 8f4f 	dsb	sy
 8006b7e:	e7fe      	b.n	8006b7e <xTaskGenericNotifyFromISR+0x8a>
 8006b80:	4b1a      	ldr	r3, [pc, #104]	; (8006bec <xTaskGenericNotifyFromISR+0xf8>)
 8006b82:	681b      	ldr	r3, [r3, #0]
 8006b84:	bb33      	cbnz	r3, 8006bd4 <xTaskGenericNotifyFromISR+0xe0>
 8006b86:	1d25      	adds	r5, r4, #4
 8006b88:	4628      	mov	r0, r5
 8006b8a:	f7fe fb03 	bl	8005194 <uxListRemove>
 8006b8e:	4a18      	ldr	r2, [pc, #96]	; (8006bf0 <xTaskGenericNotifyFromISR+0xfc>)
 8006b90:	6ae3      	ldr	r3, [r4, #44]	; 0x2c
 8006b92:	6811      	ldr	r1, [r2, #0]
 8006b94:	4817      	ldr	r0, [pc, #92]	; (8006bf4 <xTaskGenericNotifyFromISR+0x100>)
 8006b96:	428b      	cmp	r3, r1
 8006b98:	bf88      	it	hi
 8006b9a:	6013      	strhi	r3, [r2, #0]
 8006b9c:	eb03 0383 	add.w	r3, r3, r3, lsl #2
 8006ba0:	4629      	mov	r1, r5
 8006ba2:	eb00 0083 	add.w	r0, r0, r3, lsl #2
 8006ba6:	f7fe facf 	bl	8005148 <vListInsertEnd>
 8006baa:	4b13      	ldr	r3, [pc, #76]	; (8006bf8 <xTaskGenericNotifyFromISR+0x104>)
 8006bac:	6ae2      	ldr	r2, [r4, #44]	; 0x2c
 8006bae:	681b      	ldr	r3, [r3, #0]
 8006bb0:	6adb      	ldr	r3, [r3, #44]	; 0x2c
 8006bb2:	429a      	cmp	r2, r3
 8006bb4:	d9d4      	bls.n	8006b60 <xTaskGenericNotifyFromISR+0x6c>
 8006bb6:	b19f      	cbz	r7, 8006be0 <xTaskGenericNotifyFromISR+0xec>
 8006bb8:	2001      	movs	r0, #1
 8006bba:	6038      	str	r0, [r7, #0]
 8006bbc:	e7d1      	b.n	8006b62 <xTaskGenericNotifyFromISR+0x6e>
 8006bbe:	6e63      	ldr	r3, [r4, #100]	; 0x64
 8006bc0:	3301      	adds	r3, #1
 8006bc2:	6663      	str	r3, [r4, #100]	; 0x64
 8006bc4:	e7ca      	b.n	8006b5c <xTaskGenericNotifyFromISR+0x68>
 8006bc6:	6e63      	ldr	r3, [r4, #100]	; 0x64
 8006bc8:	ea43 0308 	orr.w	r3, r3, r8
 8006bcc:	6663      	str	r3, [r4, #100]	; 0x64
 8006bce:	e7c5      	b.n	8006b5c <xTaskGenericNotifyFromISR+0x68>
 8006bd0:	2000      	movs	r0, #0
 8006bd2:	e7c6      	b.n	8006b62 <xTaskGenericNotifyFromISR+0x6e>
 8006bd4:	4809      	ldr	r0, [pc, #36]	; (8006bfc <xTaskGenericNotifyFromISR+0x108>)
 8006bd6:	f104 0118 	add.w	r1, r4, #24
 8006bda:	f7fe fab5 	bl	8005148 <vListInsertEnd>
 8006bde:	e7e4      	b.n	8006baa <xTaskGenericNotifyFromISR+0xb6>
 8006be0:	2301      	movs	r3, #1
 8006be2:	4a07      	ldr	r2, [pc, #28]	; (8006c00 <xTaskGenericNotifyFromISR+0x10c>)
 8006be4:	4618      	mov	r0, r3
 8006be6:	6013      	str	r3, [r2, #0]
 8006be8:	e7bb      	b.n	8006b62 <xTaskGenericNotifyFromISR+0x6e>
 8006bea:	bf00      	nop
 8006bec:	200008b0 	.word	0x200008b0
 8006bf0:	200008b8 	.word	0x200008b8
 8006bf4:	20000444 	.word	0x20000444
 8006bf8:	20000438 	.word	0x20000438
 8006bfc:	200008ec 	.word	0x200008ec
 8006c00:	20000930 	.word	0x20000930

08006c04 <prvSwitchTimerLists>:
 8006c04:	e92d 43f0 	stmdb	sp!, {r4, r5, r6, r7, r8, r9, lr}
 8006c08:	f04f 0800 	mov.w	r8, #0
 8006c0c:	4e20      	ldr	r6, [pc, #128]	; (8006c90 <prvSwitchTimerLists+0x8c>)
 8006c0e:	f8df 9088 	ldr.w	r9, [pc, #136]	; 8006c98 <prvSwitchTimerLists+0x94>
 8006c12:	b085      	sub	sp, #20
 8006c14:	e00c      	b.n	8006c30 <prvSwitchTimerLists+0x2c>
 8006c16:	68db      	ldr	r3, [r3, #12]
 8006c18:	68dc      	ldr	r4, [r3, #12]
 8006c1a:	681f      	ldr	r7, [r3, #0]
 8006c1c:	1d25      	adds	r5, r4, #4
 8006c1e:	4628      	mov	r0, r5
 8006c20:	f7fe fab8 	bl	8005194 <uxListRemove>
 8006c24:	6a63      	ldr	r3, [r4, #36]	; 0x24
 8006c26:	4620      	mov	r0, r4
 8006c28:	4798      	blx	r3
 8006c2a:	69e3      	ldr	r3, [r4, #28]
 8006c2c:	2b01      	cmp	r3, #1
 8006c2e:	d00a      	beq.n	8006c46 <prvSwitchTimerLists+0x42>
 8006c30:	6833      	ldr	r3, [r6, #0]
 8006c32:	681a      	ldr	r2, [r3, #0]
 8006c34:	2a00      	cmp	r2, #0
 8006c36:	d1ee      	bne.n	8006c16 <prvSwitchTimerLists+0x12>
 8006c38:	4a16      	ldr	r2, [pc, #88]	; (8006c94 <prvSwitchTimerLists+0x90>)
 8006c3a:	6811      	ldr	r1, [r2, #0]
 8006c3c:	6013      	str	r3, [r2, #0]
 8006c3e:	6031      	str	r1, [r6, #0]
 8006c40:	b005      	add	sp, #20
 8006c42:	e8bd 83f0 	ldmia.w	sp!, {r4, r5, r6, r7, r8, r9, pc}
 8006c46:	69a3      	ldr	r3, [r4, #24]
 8006c48:	443b      	add	r3, r7
 8006c4a:	429f      	cmp	r7, r3
 8006c4c:	d206      	bcs.n	8006c5c <prvSwitchTimerLists+0x58>
 8006c4e:	4629      	mov	r1, r5
 8006c50:	6830      	ldr	r0, [r6, #0]
 8006c52:	6063      	str	r3, [r4, #4]
 8006c54:	6124      	str	r4, [r4, #16]
 8006c56:	f7fe fa85 	bl	8005164 <vListInsert>
 8006c5a:	e7e9      	b.n	8006c30 <prvSwitchTimerLists+0x2c>
 8006c5c:	f8d9 3000 	ldr.w	r3, [r9]
 8006c60:	b16b      	cbz	r3, 8006c7e <prvSwitchTimerLists+0x7a>
 8006c62:	e9cd 8700 	strd	r8, r7, [sp]
 8006c66:	9402      	str	r4, [sp, #8]
 8006c68:	f7ff fe08 	bl	800687c <xTaskGetSchedulerState>
 8006c6c:	2300      	movs	r3, #0
 8006c6e:	4669      	mov	r1, sp
 8006c70:	461a      	mov	r2, r3
 8006c72:	f8d9 0000 	ldr.w	r0, [r9]
 8006c76:	f7fe fb9f 	bl	80053b8 <xQueueGenericSend>
 8006c7a:	2800      	cmp	r0, #0
 8006c7c:	d1d8      	bne.n	8006c30 <prvSwitchTimerLists+0x2c>
 8006c7e:	f04f 0350 	mov.w	r3, #80	; 0x50
 8006c82:	f383 8811 	msr	BASEPRI, r3
 8006c86:	f3bf 8f6f 	isb	sy
 8006c8a:	f3bf 8f4f 	dsb	sy
 8006c8e:	e7fe      	b.n	8006c8e <prvSwitchTimerLists+0x8a>
 8006c90:	20000934 	.word	0x20000934
 8006c94:	20000938 	.word	0x20000938
 8006c98:	20000a58 	.word	0x20000a58

08006c9c <prvTimerTask>:
 8006c9c:	e92d 4ff0 	stmdb	sp!, {r4, r5, r6, r7, r8, r9, sl, fp, lr}
 8006ca0:	f04f 0800 	mov.w	r8, #0
 8006ca4:	4e95      	ldr	r6, [pc, #596]	; (8006efc <prvTimerTask+0x260>)
 8006ca6:	4d96      	ldr	r5, [pc, #600]	; (8006f00 <prvTimerTask+0x264>)
 8006ca8:	4c96      	ldr	r4, [pc, #600]	; (8006f04 <prvTimerTask+0x268>)
 8006caa:	b08b      	sub	sp, #44	; 0x2c
 8006cac:	6833      	ldr	r3, [r6, #0]
 8006cae:	f8d3 a000 	ldr.w	sl, [r3]
 8006cb2:	f1ba 0f00 	cmp.w	sl, #0
 8006cb6:	f000 80a7 	beq.w	8006e08 <prvTimerTask+0x16c>
 8006cba:	68db      	ldr	r3, [r3, #12]
 8006cbc:	f8d3 a000 	ldr.w	sl, [r3]
 8006cc0:	f7ff fa1e 	bl	8006100 <vTaskSuspendAll>
 8006cc4:	f7ff fa24 	bl	8006110 <xTaskGetTickCount>
 8006cc8:	682a      	ldr	r2, [r5, #0]
 8006cca:	4681      	mov	r9, r0
 8006ccc:	4290      	cmp	r0, r2
 8006cce:	f0c0 80ac 	bcc.w	8006e2a <prvTimerTask+0x18e>
 8006cd2:	4582      	cmp	sl, r0
 8006cd4:	6028      	str	r0, [r5, #0]
 8006cd6:	f240 80bb 	bls.w	8006e50 <prvTimerTask+0x1b4>
 8006cda:	2200      	movs	r2, #0
 8006cdc:	6820      	ldr	r0, [r4, #0]
 8006cde:	ebaa 0109 	sub.w	r1, sl, r9
 8006ce2:	f7fe ff63 	bl	8005bac <vQueueWaitForMessageRestricted>
 8006ce6:	f7ff fb57 	bl	8006398 <xTaskResumeAll>
 8006cea:	b938      	cbnz	r0, 8006cfc <prvTimerTask+0x60>
 8006cec:	f04f 5280 	mov.w	r2, #268435456	; 0x10000000
 8006cf0:	4b85      	ldr	r3, [pc, #532]	; (8006f08 <prvTimerTask+0x26c>)
 8006cf2:	601a      	str	r2, [r3, #0]
 8006cf4:	f3bf 8f4f 	dsb	sy
 8006cf8:	f3bf 8f6f 	isb	sy
 8006cfc:	2200      	movs	r2, #0
 8006cfe:	6820      	ldr	r0, [r4, #0]
 8006d00:	a902      	add	r1, sp, #8
 8006d02:	f7fe fd45 	bl	8005790 <xQueueReceive>
 8006d06:	2800      	cmp	r0, #0
 8006d08:	d0d0      	beq.n	8006cac <prvTimerTask+0x10>
 8006d0a:	9b02      	ldr	r3, [sp, #8]
 8006d0c:	2b00      	cmp	r3, #0
 8006d0e:	db72      	blt.n	8006df6 <prvTimerTask+0x15a>
 8006d10:	9f04      	ldr	r7, [sp, #16]
 8006d12:	697b      	ldr	r3, [r7, #20]
 8006d14:	b113      	cbz	r3, 8006d1c <prvTimerTask+0x80>
 8006d16:	1d38      	adds	r0, r7, #4
 8006d18:	f7fe fa3c 	bl	8005194 <uxListRemove>
 8006d1c:	f7ff f9f8 	bl	8006110 <xTaskGetTickCount>
 8006d20:	682b      	ldr	r3, [r5, #0]
 8006d22:	4681      	mov	r9, r0
 8006d24:	4298      	cmp	r0, r3
 8006d26:	f0c0 8087 	bcc.w	8006e38 <prvTimerTask+0x19c>
 8006d2a:	9b02      	ldr	r3, [sp, #8]
 8006d2c:	f8c5 9000 	str.w	r9, [r5]
 8006d30:	2b09      	cmp	r3, #9
 8006d32:	d8e3      	bhi.n	8006cfc <prvTimerTask+0x60>
 8006d34:	a201      	add	r2, pc, #4	; (adr r2, 8006d3c <prvTimerTask+0xa0>)
 8006d36:	f852 f023 	ldr.w	pc, [r2, r3, lsl #2]
 8006d3a:	bf00      	nop
 8006d3c:	08006d65 	.word	0x08006d65
 8006d40:	08006d65 	.word	0x08006d65
 8006d44:	08006d65 	.word	0x08006d65
 8006d48:	08006cfd 	.word	0x08006cfd
 8006d4c:	08006dc5 	.word	0x08006dc5
 8006d50:	08006de7 	.word	0x08006de7
 8006d54:	08006d65 	.word	0x08006d65
 8006d58:	08006d65 	.word	0x08006d65
 8006d5c:	08006cfd 	.word	0x08006cfd
 8006d60:	08006dc5 	.word	0x08006dc5
 8006d64:	9b03      	ldr	r3, [sp, #12]
 8006d66:	69ba      	ldr	r2, [r7, #24]
 8006d68:	613f      	str	r7, [r7, #16]
 8006d6a:	1899      	adds	r1, r3, r2
 8006d6c:	bf2c      	ite	cs
 8006d6e:	2001      	movcs	r0, #1
 8006d70:	2000      	movcc	r0, #0
 8006d72:	4549      	cmp	r1, r9
 8006d74:	6079      	str	r1, [r7, #4]
 8006d76:	d862      	bhi.n	8006e3e <prvTimerTask+0x1a2>
 8006d78:	eba9 0303 	sub.w	r3, r9, r3
 8006d7c:	429a      	cmp	r2, r3
 8006d7e:	d87d      	bhi.n	8006e7c <prvTimerTask+0x1e0>
 8006d80:	6a7b      	ldr	r3, [r7, #36]	; 0x24
 8006d82:	4638      	mov	r0, r7
 8006d84:	4798      	blx	r3
 8006d86:	69fb      	ldr	r3, [r7, #28]
 8006d88:	2b01      	cmp	r3, #1
 8006d8a:	d1b7      	bne.n	8006cfc <prvTimerTask+0x60>
 8006d8c:	6823      	ldr	r3, [r4, #0]
 8006d8e:	b183      	cbz	r3, 8006db2 <prvTimerTask+0x116>
 8006d90:	69bb      	ldr	r3, [r7, #24]
 8006d92:	9a03      	ldr	r2, [sp, #12]
 8006d94:	f8cd 8018 	str.w	r8, [sp, #24]
 8006d98:	4413      	add	r3, r2
 8006d9a:	e9cd 3707 	strd	r3, r7, [sp, #28]
 8006d9e:	f7ff fd6d 	bl	800687c <xTaskGetSchedulerState>
 8006da2:	2300      	movs	r3, #0
 8006da4:	6820      	ldr	r0, [r4, #0]
 8006da6:	461a      	mov	r2, r3
 8006da8:	a906      	add	r1, sp, #24
 8006daa:	f7fe fb05 	bl	80053b8 <xQueueGenericSend>
 8006dae:	2800      	cmp	r0, #0
 8006db0:	d1a4      	bne.n	8006cfc <prvTimerTask+0x60>
 8006db2:	f04f 0350 	mov.w	r3, #80	; 0x50
 8006db6:	f383 8811 	msr	BASEPRI, r3
 8006dba:	f3bf 8f6f 	isb	sy
 8006dbe:	f3bf 8f4f 	dsb	sy
 8006dc2:	e7fe      	b.n	8006dc2 <prvTimerTask+0x126>
 8006dc4:	9b03      	ldr	r3, [sp, #12]
 8006dc6:	61bb      	str	r3, [r7, #24]
 8006dc8:	2b00      	cmp	r3, #0
 8006dca:	f000 8088 	beq.w	8006ede <prvTimerTask+0x242>
 8006dce:	444b      	add	r3, r9
 8006dd0:	454b      	cmp	r3, r9
 8006dd2:	607b      	str	r3, [r7, #4]
 8006dd4:	bf96      	itet	ls
 8006dd6:	4b4d      	ldrls	r3, [pc, #308]	; (8006f0c <prvTimerTask+0x270>)
 8006dd8:	6830      	ldrhi	r0, [r6, #0]
 8006dda:	6818      	ldrls	r0, [r3, #0]
 8006ddc:	613f      	str	r7, [r7, #16]
 8006dde:	1d39      	adds	r1, r7, #4
 8006de0:	f7fe f9c0 	bl	8005164 <vListInsert>
 8006de4:	e78a      	b.n	8006cfc <prvTimerTask+0x60>
 8006de6:	f897 302c 	ldrb.w	r3, [r7, #44]	; 0x2c
 8006dea:	2b00      	cmp	r3, #0
 8006dec:	d186      	bne.n	8006cfc <prvTimerTask+0x60>
 8006dee:	4638      	mov	r0, r7
 8006df0:	f000 fc5e 	bl	80076b0 <vPortFree>
 8006df4:	e782      	b.n	8006cfc <prvTimerTask+0x60>
 8006df6:	9b03      	ldr	r3, [sp, #12]
 8006df8:	e9dd 0104 	ldrd	r0, r1, [sp, #16]
 8006dfc:	4798      	blx	r3
 8006dfe:	9b02      	ldr	r3, [sp, #8]
 8006e00:	2b00      	cmp	r3, #0
 8006e02:	f6ff af7b 	blt.w	8006cfc <prvTimerTask+0x60>
 8006e06:	e783      	b.n	8006d10 <prvTimerTask+0x74>
 8006e08:	f7ff f97a 	bl	8006100 <vTaskSuspendAll>
 8006e0c:	f7ff f980 	bl	8006110 <xTaskGetTickCount>
 8006e10:	682a      	ldr	r2, [r5, #0]
 8006e12:	4681      	mov	r9, r0
 8006e14:	4282      	cmp	r2, r0
 8006e16:	d808      	bhi.n	8006e2a <prvTimerTask+0x18e>
 8006e18:	4b3c      	ldr	r3, [pc, #240]	; (8006f0c <prvTimerTask+0x270>)
 8006e1a:	f8c5 9000 	str.w	r9, [r5]
 8006e1e:	681a      	ldr	r2, [r3, #0]
 8006e20:	6812      	ldr	r2, [r2, #0]
 8006e22:	fab2 f282 	clz	r2, r2
 8006e26:	0952      	lsrs	r2, r2, #5
 8006e28:	e758      	b.n	8006cdc <prvTimerTask+0x40>
 8006e2a:	f7ff feeb 	bl	8006c04 <prvSwitchTimerLists>
 8006e2e:	f8c5 9000 	str.w	r9, [r5]
 8006e32:	f7ff fab1 	bl	8006398 <xTaskResumeAll>
 8006e36:	e761      	b.n	8006cfc <prvTimerTask+0x60>
 8006e38:	f7ff fee4 	bl	8006c04 <prvSwitchTimerLists>
 8006e3c:	e775      	b.n	8006d2a <prvTimerTask+0x8e>
 8006e3e:	454b      	cmp	r3, r9
 8006e40:	d901      	bls.n	8006e46 <prvTimerTask+0x1aa>
 8006e42:	2800      	cmp	r0, #0
 8006e44:	d09c      	beq.n	8006d80 <prvTimerTask+0xe4>
 8006e46:	6830      	ldr	r0, [r6, #0]
 8006e48:	1d39      	adds	r1, r7, #4
 8006e4a:	f7fe f98b 	bl	8005164 <vListInsert>
 8006e4e:	e755      	b.n	8006cfc <prvTimerTask+0x60>
 8006e50:	f7ff faa2 	bl	8006398 <xTaskResumeAll>
 8006e54:	6832      	ldr	r2, [r6, #0]
 8006e56:	68d2      	ldr	r2, [r2, #12]
 8006e58:	f8d2 b00c 	ldr.w	fp, [r2, #12]
 8006e5c:	f10b 0104 	add.w	r1, fp, #4
 8006e60:	4608      	mov	r0, r1
 8006e62:	9101      	str	r1, [sp, #4]
 8006e64:	f7fe f996 	bl	8005194 <uxListRemove>
 8006e68:	f8db 001c 	ldr.w	r0, [fp, #28]
 8006e6c:	9901      	ldr	r1, [sp, #4]
 8006e6e:	2801      	cmp	r0, #1
 8006e70:	d00a      	beq.n	8006e88 <prvTimerTask+0x1ec>
 8006e72:	4658      	mov	r0, fp
 8006e74:	f8db 3024 	ldr.w	r3, [fp, #36]	; 0x24
 8006e78:	4798      	blx	r3
 8006e7a:	e73f      	b.n	8006cfc <prvTimerTask+0x60>
 8006e7c:	4b23      	ldr	r3, [pc, #140]	; (8006f0c <prvTimerTask+0x270>)
 8006e7e:	1d39      	adds	r1, r7, #4
 8006e80:	6818      	ldr	r0, [r3, #0]
 8006e82:	f7fe f96f 	bl	8005164 <vListInsert>
 8006e86:	e739      	b.n	8006cfc <prvTimerTask+0x60>
 8006e88:	f8db 0018 	ldr.w	r0, [fp, #24]
 8006e8c:	f8cb b010 	str.w	fp, [fp, #16]
 8006e90:	eb0a 0300 	add.w	r3, sl, r0
 8006e94:	454b      	cmp	r3, r9
 8006e96:	f8cb 3004 	str.w	r3, [fp, #4]
 8006e9a:	d903      	bls.n	8006ea4 <prvTimerTask+0x208>
 8006e9c:	6830      	ldr	r0, [r6, #0]
 8006e9e:	f7fe f961 	bl	8005164 <vListInsert>
 8006ea2:	e7e6      	b.n	8006e72 <prvTimerTask+0x1d6>
 8006ea4:	eba9 030a 	sub.w	r3, r9, sl
 8006ea8:	4298      	cmp	r0, r3
 8006eaa:	d821      	bhi.n	8006ef0 <prvTimerTask+0x254>
 8006eac:	6823      	ldr	r3, [r4, #0]
 8006eae:	b16b      	cbz	r3, 8006ecc <prvTimerTask+0x230>
 8006eb0:	e9cd 8a06 	strd	r8, sl, [sp, #24]
 8006eb4:	f8cd b020 	str.w	fp, [sp, #32]
 8006eb8:	f7ff fce0 	bl	800687c <xTaskGetSchedulerState>
 8006ebc:	2300      	movs	r3, #0
 8006ebe:	6820      	ldr	r0, [r4, #0]
 8006ec0:	461a      	mov	r2, r3
 8006ec2:	a906      	add	r1, sp, #24
 8006ec4:	f7fe fa78 	bl	80053b8 <xQueueGenericSend>
 8006ec8:	2800      	cmp	r0, #0
 8006eca:	d1d2      	bne.n	8006e72 <prvTimerTask+0x1d6>
 8006ecc:	f04f 0350 	mov.w	r3, #80	; 0x50
 8006ed0:	f383 8811 	msr	BASEPRI, r3
 8006ed4:	f3bf 8f6f 	isb	sy
 8006ed8:	f3bf 8f4f 	dsb	sy
 8006edc:	e7fe      	b.n	8006edc <prvTimerTask+0x240>
 8006ede:	f04f 0350 	mov.w	r3, #80	; 0x50
 8006ee2:	f383 8811 	msr	BASEPRI, r3
 8006ee6:	f3bf 8f6f 	isb	sy
 8006eea:	f3bf 8f4f 	dsb	sy
 8006eee:	e7fe      	b.n	8006eee <prvTimerTask+0x252>
 8006ef0:	4b06      	ldr	r3, [pc, #24]	; (8006f0c <prvTimerTask+0x270>)
 8006ef2:	6818      	ldr	r0, [r3, #0]
 8006ef4:	f7fe f936 	bl	8005164 <vListInsert>
 8006ef8:	e7bb      	b.n	8006e72 <prvTimerTask+0x1d6>
 8006efa:	bf00      	nop
 8006efc:	20000934 	.word	0x20000934
 8006f00:	20000a04 	.word	0x20000a04
 8006f04:	20000a58 	.word	0x20000a58
 8006f08:	e000ed04 	.word	0xe000ed04
 8006f0c:	20000938 	.word	0x20000938

08006f10 <xTimerCreateTimerTask>:
 8006f10:	b5f0      	push	{r4, r5, r6, r7, lr}
 8006f12:	4c23      	ldr	r4, [pc, #140]	; (8006fa0 <xTimerCreateTimerTask+0x90>)
 8006f14:	b089      	sub	sp, #36	; 0x24
 8006f16:	f000 f9e5 	bl	80072e4 <vPortEnterCritical>
 8006f1a:	6827      	ldr	r7, [r4, #0]
 8006f1c:	b337      	cbz	r7, 8006f6c <xTimerCreateTimerTask+0x5c>
 8006f1e:	f000 fa03 	bl	8007328 <vPortExitCritical>
 8006f22:	6823      	ldr	r3, [r4, #0]
 8006f24:	b1cb      	cbz	r3, 8006f5a <xTimerCreateTimerTask+0x4a>
 8006f26:	2400      	movs	r4, #0
 8006f28:	aa07      	add	r2, sp, #28
 8006f2a:	a906      	add	r1, sp, #24
 8006f2c:	a805      	add	r0, sp, #20
 8006f2e:	e9cd 4405 	strd	r4, r4, [sp, #20]
 8006f32:	f7fd ff39 	bl	8004da8 <vApplicationGetTimerTaskMemory>
 8006f36:	e9dd 1205 	ldrd	r1, r2, [sp, #20]
 8006f3a:	2002      	movs	r0, #2
 8006f3c:	e9cd 2101 	strd	r2, r1, [sp, #4]
 8006f40:	9000      	str	r0, [sp, #0]
 8006f42:	9a07      	ldr	r2, [sp, #28]
 8006f44:	4623      	mov	r3, r4
 8006f46:	4917      	ldr	r1, [pc, #92]	; (8006fa4 <xTimerCreateTimerTask+0x94>)
 8006f48:	4817      	ldr	r0, [pc, #92]	; (8006fa8 <xTimerCreateTimerTask+0x98>)
 8006f4a:	f7fe ff6b 	bl	8005e24 <xTaskCreateStatic>
 8006f4e:	4a17      	ldr	r2, [pc, #92]	; (8006fac <xTimerCreateTimerTask+0x9c>)
 8006f50:	6010      	str	r0, [r2, #0]
 8006f52:	b110      	cbz	r0, 8006f5a <xTimerCreateTimerTask+0x4a>
 8006f54:	2001      	movs	r0, #1
 8006f56:	b009      	add	sp, #36	; 0x24
 8006f58:	bdf0      	pop	{r4, r5, r6, r7, pc}
 8006f5a:	f04f 0350 	mov.w	r3, #80	; 0x50
 8006f5e:	f383 8811 	msr	BASEPRI, r3
 8006f62:	f3bf 8f6f 	isb	sy
 8006f66:	f3bf 8f4f 	dsb	sy
 8006f6a:	e7fe      	b.n	8006f6a <xTimerCreateTimerTask+0x5a>
 8006f6c:	4e10      	ldr	r6, [pc, #64]	; (8006fb0 <xTimerCreateTimerTask+0xa0>)
 8006f6e:	4d11      	ldr	r5, [pc, #68]	; (8006fb4 <xTimerCreateTimerTask+0xa4>)
 8006f70:	4630      	mov	r0, r6
 8006f72:	f7fe f8d9 	bl	8005128 <vListInitialise>
 8006f76:	4628      	mov	r0, r5
 8006f78:	f7fe f8d6 	bl	8005128 <vListInitialise>
 8006f7c:	4a0e      	ldr	r2, [pc, #56]	; (8006fb8 <xTimerCreateTimerTask+0xa8>)
 8006f7e:	480f      	ldr	r0, [pc, #60]	; (8006fbc <xTimerCreateTimerTask+0xac>)
 8006f80:	9700      	str	r7, [sp, #0]
 8006f82:	2110      	movs	r1, #16
 8006f84:	6016      	str	r6, [r2, #0]
 8006f86:	6005      	str	r5, [r0, #0]
 8006f88:	4b0d      	ldr	r3, [pc, #52]	; (8006fc0 <xTimerCreateTimerTask+0xb0>)
 8006f8a:	200a      	movs	r0, #10
 8006f8c:	4a0d      	ldr	r2, [pc, #52]	; (8006fc4 <xTimerCreateTimerTask+0xb4>)
 8006f8e:	f7fe f955 	bl	800523c <xQueueGenericCreateStatic>
 8006f92:	6020      	str	r0, [r4, #0]
 8006f94:	2800      	cmp	r0, #0
 8006f96:	d0c2      	beq.n	8006f1e <xTimerCreateTimerTask+0xe>
 8006f98:	490b      	ldr	r1, [pc, #44]	; (8006fc8 <xTimerCreateTimerTask+0xb8>)
 8006f9a:	f7fe fddd 	bl	8005b58 <vQueueAddToRegistry>
 8006f9e:	e7be      	b.n	8006f1e <xTimerCreateTimerTask+0xe>
 8006fa0:	20000a58 	.word	0x20000a58
 8006fa4:	08007fc0 	.word	0x08007fc0
 8006fa8:	08006c9d 	.word	0x08006c9d
 8006fac:	20000a5c 	.word	0x20000a5c
 8006fb0:	200009dc 	.word	0x200009dc
 8006fb4:	200009f0 	.word	0x200009f0
 8006fb8:	20000934 	.word	0x20000934
 8006fbc:	20000938 	.word	0x20000938
 8006fc0:	20000a08 	.word	0x20000a08
 8006fc4:	2000093c 	.word	0x2000093c
 8006fc8:	08007fb8 	.word	0x08007fb8

08006fcc <xTimerCreate>:
 8006fcc:	e92d 4ff0 	stmdb	sp!, {r4, r5, r6, r7, r8, r9, sl, fp, lr}
 8006fd0:	4681      	mov	r9, r0
 8006fd2:	b085      	sub	sp, #20
 8006fd4:	2030      	movs	r0, #48	; 0x30
 8006fd6:	460d      	mov	r5, r1
 8006fd8:	4616      	mov	r6, r2
 8006fda:	461f      	mov	r7, r3
 8006fdc:	f000 faae 	bl	800753c <pvPortMalloc>
 8006fe0:	4604      	mov	r4, r0
 8006fe2:	b1b0      	cbz	r0, 8007012 <xTimerCreate+0x46>
 8006fe4:	b1cd      	cbz	r5, 800701a <xTimerCreate+0x4e>
 8006fe6:	f8df a09c 	ldr.w	sl, [pc, #156]	; 8007084 <xTimerCreate+0xb8>
 8006fea:	f000 f97b 	bl	80072e4 <vPortEnterCritical>
 8006fee:	f8da 3000 	ldr.w	r3, [sl]
 8006ff2:	b1db      	cbz	r3, 800702c <xTimerCreate+0x60>
 8006ff4:	f000 f998 	bl	8007328 <vPortExitCritical>
 8006ff8:	9b0e      	ldr	r3, [sp, #56]	; 0x38
 8006ffa:	e9c4 5606 	strd	r5, r6, [r4, #24]
 8006ffe:	6263      	str	r3, [r4, #36]	; 0x24
 8007000:	f8c4 9000 	str.w	r9, [r4]
 8007004:	6227      	str	r7, [r4, #32]
 8007006:	1d20      	adds	r0, r4, #4
 8007008:	f7fe f89a 	bl	8005140 <vListInitialiseItem>
 800700c:	2300      	movs	r3, #0
 800700e:	f884 302c 	strb.w	r3, [r4, #44]	; 0x2c
 8007012:	4620      	mov	r0, r4
 8007014:	b005      	add	sp, #20
 8007016:	e8bd 8ff0 	ldmia.w	sp!, {r4, r5, r6, r7, r8, r9, sl, fp, pc}
 800701a:	f04f 0350 	mov.w	r3, #80	; 0x50
 800701e:	f383 8811 	msr	BASEPRI, r3
 8007022:	f3bf 8f6f 	isb	sy
 8007026:	f3bf 8f4f 	dsb	sy
 800702a:	e7fe      	b.n	800702a <xTimerCreate+0x5e>
 800702c:	f8df 8058 	ldr.w	r8, [pc, #88]	; 8007088 <xTimerCreate+0xbc>
 8007030:	f8df b058 	ldr.w	fp, [pc, #88]	; 800708c <xTimerCreate+0xc0>
 8007034:	4640      	mov	r0, r8
 8007036:	9303      	str	r3, [sp, #12]
 8007038:	f7fe f876 	bl	8005128 <vListInitialise>
 800703c:	4658      	mov	r0, fp
 800703e:	f7fe f873 	bl	8005128 <vListInitialise>
 8007042:	9b03      	ldr	r3, [sp, #12]
 8007044:	490a      	ldr	r1, [pc, #40]	; (8007070 <xTimerCreate+0xa4>)
 8007046:	480b      	ldr	r0, [pc, #44]	; (8007074 <xTimerCreate+0xa8>)
 8007048:	9300      	str	r3, [sp, #0]
 800704a:	4a0b      	ldr	r2, [pc, #44]	; (8007078 <xTimerCreate+0xac>)
 800704c:	f8c1 8000 	str.w	r8, [r1]
 8007050:	f8c0 b000 	str.w	fp, [r0]
 8007054:	2110      	movs	r1, #16
 8007056:	200a      	movs	r0, #10
 8007058:	4b08      	ldr	r3, [pc, #32]	; (800707c <xTimerCreate+0xb0>)
 800705a:	f7fe f8ef 	bl	800523c <xQueueGenericCreateStatic>
 800705e:	f8ca 0000 	str.w	r0, [sl]
 8007062:	2800      	cmp	r0, #0
 8007064:	d0c6      	beq.n	8006ff4 <xTimerCreate+0x28>
 8007066:	4906      	ldr	r1, [pc, #24]	; (8007080 <xTimerCreate+0xb4>)
 8007068:	f7fe fd76 	bl	8005b58 <vQueueAddToRegistry>
 800706c:	e7c2      	b.n	8006ff4 <xTimerCreate+0x28>
 800706e:	bf00      	nop
 8007070:	20000934 	.word	0x20000934
 8007074:	20000938 	.word	0x20000938
 8007078:	2000093c 	.word	0x2000093c
 800707c:	20000a08 	.word	0x20000a08
 8007080:	08007fb8 	.word	0x08007fb8
 8007084:	20000a58 	.word	0x20000a58
 8007088:	200009dc 	.word	0x200009dc
 800708c:	200009f0 	.word	0x200009f0

08007090 <xTimerCreateStatic>:
 8007090:	e92d 4ff0 	stmdb	sp!, {r4, r5, r6, r7, r8, r9, sl, fp, lr}
 8007094:	2430      	movs	r4, #48	; 0x30
 8007096:	b087      	sub	sp, #28
 8007098:	9405      	str	r4, [sp, #20]
 800709a:	f8dd c014 	ldr.w	ip, [sp, #20]
 800709e:	9c11      	ldr	r4, [sp, #68]	; 0x44
 80070a0:	f1bc 0f30 	cmp.w	ip, #48	; 0x30
 80070a4:	d008      	beq.n	80070b8 <xTimerCreateStatic+0x28>
 80070a6:	f04f 0350 	mov.w	r3, #80	; 0x50
 80070aa:	f383 8811 	msr	BASEPRI, r3
 80070ae:	f3bf 8f6f 	isb	sy
 80070b2:	f3bf 8f4f 	dsb	sy
 80070b6:	e7fe      	b.n	80070b6 <xTimerCreateStatic+0x26>
 80070b8:	b1f4      	cbz	r4, 80070f8 <xTimerCreateStatic+0x68>
 80070ba:	460d      	mov	r5, r1
 80070bc:	b329      	cbz	r1, 800710a <xTimerCreateStatic+0x7a>
 80070be:	f8df a0b4 	ldr.w	sl, [pc, #180]	; 8007174 <xTimerCreateStatic+0xe4>
 80070c2:	461f      	mov	r7, r3
 80070c4:	4681      	mov	r9, r0
 80070c6:	4616      	mov	r6, r2
 80070c8:	f000 f90c 	bl	80072e4 <vPortEnterCritical>
 80070cc:	f8da 3000 	ldr.w	r3, [sl]
 80070d0:	b323      	cbz	r3, 800711c <xTimerCreateStatic+0x8c>
 80070d2:	f000 f929 	bl	8007328 <vPortExitCritical>
 80070d6:	9b10      	ldr	r3, [sp, #64]	; 0x40
 80070d8:	1d20      	adds	r0, r4, #4
 80070da:	6263      	str	r3, [r4, #36]	; 0x24
 80070dc:	e9c4 5606 	strd	r5, r6, [r4, #24]
 80070e0:	f8c4 9000 	str.w	r9, [r4]
 80070e4:	6227      	str	r7, [r4, #32]
 80070e6:	f7fe f82b 	bl	8005140 <vListInitialiseItem>
 80070ea:	2301      	movs	r3, #1
 80070ec:	4620      	mov	r0, r4
 80070ee:	f884 302c 	strb.w	r3, [r4, #44]	; 0x2c
 80070f2:	b007      	add	sp, #28
 80070f4:	e8bd 8ff0 	ldmia.w	sp!, {r4, r5, r6, r7, r8, r9, sl, fp, pc}
 80070f8:	f04f 0350 	mov.w	r3, #80	; 0x50
 80070fc:	f383 8811 	msr	BASEPRI, r3
 8007100:	f3bf 8f6f 	isb	sy
 8007104:	f3bf 8f4f 	dsb	sy
 8007108:	e7fe      	b.n	8007108 <xTimerCreateStatic+0x78>
 800710a:	f04f 0350 	mov.w	r3, #80	; 0x50
 800710e:	f383 8811 	msr	BASEPRI, r3
 8007112:	f3bf 8f6f 	isb	sy
 8007116:	f3bf 8f4f 	dsb	sy
 800711a:	e7fe      	b.n	800711a <xTimerCreateStatic+0x8a>
 800711c:	f8df 8058 	ldr.w	r8, [pc, #88]	; 8007178 <xTimerCreateStatic+0xe8>
 8007120:	f8df b058 	ldr.w	fp, [pc, #88]	; 800717c <xTimerCreateStatic+0xec>
 8007124:	4640      	mov	r0, r8
 8007126:	9303      	str	r3, [sp, #12]
 8007128:	f7fd fffe 	bl	8005128 <vListInitialise>
 800712c:	4658      	mov	r0, fp
 800712e:	f7fd fffb 	bl	8005128 <vListInitialise>
 8007132:	9b03      	ldr	r3, [sp, #12]
 8007134:	490a      	ldr	r1, [pc, #40]	; (8007160 <xTimerCreateStatic+0xd0>)
 8007136:	480b      	ldr	r0, [pc, #44]	; (8007164 <xTimerCreateStatic+0xd4>)
 8007138:	9300      	str	r3, [sp, #0]
 800713a:	4a0b      	ldr	r2, [pc, #44]	; (8007168 <xTimerCreateStatic+0xd8>)
 800713c:	f8c1 8000 	str.w	r8, [r1]
 8007140:	f8c0 b000 	str.w	fp, [r0]
 8007144:	2110      	movs	r1, #16
 8007146:	200a      	movs	r0, #10
 8007148:	4b08      	ldr	r3, [pc, #32]	; (800716c <xTimerCreateStatic+0xdc>)
 800714a:	f7fe f877 	bl	800523c <xQueueGenericCreateStatic>
 800714e:	f8ca 0000 	str.w	r0, [sl]
 8007152:	2800      	cmp	r0, #0
 8007154:	d0bd      	beq.n	80070d2 <xTimerCreateStatic+0x42>
 8007156:	4906      	ldr	r1, [pc, #24]	; (8007170 <xTimerCreateStatic+0xe0>)
 8007158:	f7fe fcfe 	bl	8005b58 <vQueueAddToRegistry>
 800715c:	e7b9      	b.n	80070d2 <xTimerCreateStatic+0x42>
 800715e:	bf00      	nop
 8007160:	20000934 	.word	0x20000934
 8007164:	20000938 	.word	0x20000938
 8007168:	2000093c 	.word	0x2000093c
 800716c:	20000a08 	.word	0x20000a08
 8007170:	08007fb8 	.word	0x08007fb8
 8007174:	20000a58 	.word	0x20000a58
 8007178:	200009dc 	.word	0x200009dc
 800717c:	200009f0 	.word	0x200009f0

08007180 <xTimerGenericCommand>:
 8007180:	b1c0      	cbz	r0, 80071b4 <xTimerGenericCommand+0x34>
 8007182:	b530      	push	{r4, r5, lr}
 8007184:	4c16      	ldr	r4, [pc, #88]	; (80071e0 <xTimerGenericCommand+0x60>)
 8007186:	4615      	mov	r5, r2
 8007188:	461a      	mov	r2, r3
 800718a:	4603      	mov	r3, r0
 800718c:	6820      	ldr	r0, [r4, #0]
 800718e:	b085      	sub	sp, #20
 8007190:	b170      	cbz	r0, 80071b0 <xTimerGenericCommand+0x30>
 8007192:	2905      	cmp	r1, #5
 8007194:	e9cd 1500 	strd	r1, r5, [sp]
 8007198:	9302      	str	r3, [sp, #8]
 800719a:	dc14      	bgt.n	80071c6 <xTimerGenericCommand+0x46>
 800719c:	f7ff fb6e 	bl	800687c <xTaskGetSchedulerState>
 80071a0:	2802      	cmp	r0, #2
 80071a2:	d016      	beq.n	80071d2 <xTimerGenericCommand+0x52>
 80071a4:	2300      	movs	r3, #0
 80071a6:	4669      	mov	r1, sp
 80071a8:	461a      	mov	r2, r3
 80071aa:	6820      	ldr	r0, [r4, #0]
 80071ac:	f7fe f904 	bl	80053b8 <xQueueGenericSend>
 80071b0:	b005      	add	sp, #20
 80071b2:	bd30      	pop	{r4, r5, pc}
 80071b4:	f04f 0350 	mov.w	r3, #80	; 0x50
 80071b8:	f383 8811 	msr	BASEPRI, r3
 80071bc:	f3bf 8f6f 	isb	sy
 80071c0:	f3bf 8f4f 	dsb	sy
 80071c4:	e7fe      	b.n	80071c4 <xTimerGenericCommand+0x44>
 80071c6:	2300      	movs	r3, #0
 80071c8:	4669      	mov	r1, sp
 80071ca:	f7fe fa7b 	bl	80056c4 <xQueueGenericSendFromISR>
 80071ce:	b005      	add	sp, #20
 80071d0:	bd30      	pop	{r4, r5, pc}
 80071d2:	2300      	movs	r3, #0
 80071d4:	4669      	mov	r1, sp
 80071d6:	6820      	ldr	r0, [r4, #0]
 80071d8:	9a08      	ldr	r2, [sp, #32]
 80071da:	f7fe f8ed 	bl	80053b8 <xQueueGenericSend>
 80071de:	e7e7      	b.n	80071b0 <xTimerGenericCommand+0x30>
 80071e0:	20000a58 	.word	0x20000a58

080071e4 <pvTimerGetTimerID>:
 80071e4:	b140      	cbz	r0, 80071f8 <pvTimerGetTimerID+0x14>
 80071e6:	b510      	push	{r4, lr}
 80071e8:	4604      	mov	r4, r0
 80071ea:	f000 f87b 	bl	80072e4 <vPortEnterCritical>
 80071ee:	6a24      	ldr	r4, [r4, #32]
 80071f0:	f000 f89a 	bl	8007328 <vPortExitCritical>
 80071f4:	4620      	mov	r0, r4
 80071f6:	bd10      	pop	{r4, pc}
 80071f8:	f04f 0350 	mov.w	r3, #80	; 0x50
 80071fc:	f383 8811 	msr	BASEPRI, r3
 8007200:	f3bf 8f6f 	isb	sy
 8007204:	f3bf 8f4f 	dsb	sy
 8007208:	e7fe      	b.n	8007208 <pvTimerGetTimerID+0x24>
 800720a:	bf00      	nop

0800720c <xTimerPendFunctionCallFromISR>:
 800720c:	b570      	push	{r4, r5, r6, lr}
 800720e:	4606      	mov	r6, r0
 8007210:	4615      	mov	r5, r2
 8007212:	f06f 0401 	mvn.w	r4, #1
 8007216:	4807      	ldr	r0, [pc, #28]	; (8007234 <xTimerPendFunctionCallFromISR+0x28>)
 8007218:	b084      	sub	sp, #16
 800721a:	461a      	mov	r2, r3
 800721c:	9102      	str	r1, [sp, #8]
 800721e:	2300      	movs	r3, #0
 8007220:	4669      	mov	r1, sp
 8007222:	6800      	ldr	r0, [r0, #0]
 8007224:	9601      	str	r6, [sp, #4]
 8007226:	9503      	str	r5, [sp, #12]
 8007228:	9400      	str	r4, [sp, #0]
 800722a:	f7fe fa4b 	bl	80056c4 <xQueueGenericSendFromISR>
 800722e:	b004      	add	sp, #16
 8007230:	bd70      	pop	{r4, r5, r6, pc}
 8007232:	bf00      	nop
 8007234:	20000a58 	.word	0x20000a58

08007238 <prvPortStartFirstTask>:
 8007238:	4806      	ldr	r0, [pc, #24]	; (8007254 <prvPortStartFirstTask+0x1c>)
 800723a:	6800      	ldr	r0, [r0, #0]
 800723c:	6800      	ldr	r0, [r0, #0]
 800723e:	f380 8808 	msr	MSP, r0
 8007242:	b662      	cpsie	i
 8007244:	b661      	cpsie	f
 8007246:	f3bf 8f4f 	dsb	sy
 800724a:	f3bf 8f6f 	isb	sy
 800724e:	df00      	svc	0
 8007250:	bf00      	nop
 8007252:	0000      	.short	0x0000
 8007254:	e000ed08 	.word	0xe000ed08

08007258 <prvTaskExitError>:
 8007258:	2200      	movs	r2, #0
 800725a:	4b0e      	ldr	r3, [pc, #56]	; (8007294 <prvTaskExitError+0x3c>)
 800725c:	b082      	sub	sp, #8
 800725e:	681b      	ldr	r3, [r3, #0]
 8007260:	9201      	str	r2, [sp, #4]
 8007262:	3301      	adds	r3, #1
 8007264:	d008      	beq.n	8007278 <prvTaskExitError+0x20>
 8007266:	f04f 0350 	mov.w	r3, #80	; 0x50
 800726a:	f383 8811 	msr	BASEPRI, r3
 800726e:	f3bf 8f6f 	isb	sy
 8007272:	f3bf 8f4f 	dsb	sy
 8007276:	e7fe      	b.n	8007276 <prvTaskExitError+0x1e>
 8007278:	f04f 0350 	mov.w	r3, #80	; 0x50
 800727c:	f383 8811 	msr	BASEPRI, r3
 8007280:	f3bf 8f6f 	isb	sy
 8007284:	f3bf 8f4f 	dsb	sy
 8007288:	9b01      	ldr	r3, [sp, #4]
 800728a:	2b00      	cmp	r3, #0
 800728c:	d0fc      	beq.n	8007288 <prvTaskExitError+0x30>
 800728e:	b002      	add	sp, #8
 8007290:	4770      	bx	lr
 8007292:	bf00      	nop
 8007294:	20000034 	.word	0x20000034

08007298 <pxPortInitialiseStack>:
 8007298:	b410      	push	{r4}
 800729a:	f04f 7480 	mov.w	r4, #16777216	; 0x1000000
 800729e:	4b07      	ldr	r3, [pc, #28]	; (80072bc <pxPortInitialiseStack+0x24>)
 80072a0:	f021 0101 	bic.w	r1, r1, #1
 80072a4:	f840 4c04 	str.w	r4, [r0, #-4]
 80072a8:	f840 1c08 	str.w	r1, [r0, #-8]
 80072ac:	f840 2c20 	str.w	r2, [r0, #-32]
 80072b0:	f840 3c0c 	str.w	r3, [r0, #-12]
 80072b4:	bc10      	pop	{r4}
 80072b6:	3840      	subs	r0, #64	; 0x40
 80072b8:	4770      	bx	lr
 80072ba:	bf00      	nop
 80072bc:	08007259 	.word	0x08007259

080072c0 <SVC_Handler>:
 80072c0:	4b07      	ldr	r3, [pc, #28]	; (80072e0 <pxCurrentTCBConst2>)
 80072c2:	6819      	ldr	r1, [r3, #0]
 80072c4:	6808      	ldr	r0, [r1, #0]
 80072c6:	e8b0 0ff0 	ldmia.w	r0!, {r4, r5, r6, r7, r8, r9, sl, fp}
 80072ca:	f380 8809 	msr	PSP, r0
 80072ce:	f3bf 8f6f 	isb	sy
 80072d2:	f04f 0000 	mov.w	r0, #0
 80072d6:	f380 8811 	msr	BASEPRI, r0
 80072da:	f04e 0e0d 	orr.w	lr, lr, #13
 80072de:	4770      	bx	lr

080072e0 <pxCurrentTCBConst2>:
 80072e0:	20000438 	.word	0x20000438

080072e4 <vPortEnterCritical>:
 80072e4:	f04f 0350 	mov.w	r3, #80	; 0x50
 80072e8:	f383 8811 	msr	BASEPRI, r3
 80072ec:	f3bf 8f6f 	isb	sy
 80072f0:	f3bf 8f4f 	dsb	sy
 80072f4:	4a0a      	ldr	r2, [pc, #40]	; (8007320 <vPortEnterCritical+0x3c>)
 80072f6:	6813      	ldr	r3, [r2, #0]
 80072f8:	3301      	adds	r3, #1
 80072fa:	2b01      	cmp	r3, #1
 80072fc:	6013      	str	r3, [r2, #0]
 80072fe:	d000      	beq.n	8007302 <vPortEnterCritical+0x1e>
 8007300:	4770      	bx	lr
 8007302:	4b08      	ldr	r3, [pc, #32]	; (8007324 <vPortEnterCritical+0x40>)
 8007304:	681b      	ldr	r3, [r3, #0]
 8007306:	f013 0fff 	tst.w	r3, #255	; 0xff
 800730a:	d0f9      	beq.n	8007300 <vPortEnterCritical+0x1c>
 800730c:	f04f 0350 	mov.w	r3, #80	; 0x50
 8007310:	f383 8811 	msr	BASEPRI, r3
 8007314:	f3bf 8f6f 	isb	sy
 8007318:	f3bf 8f4f 	dsb	sy
 800731c:	e7fe      	b.n	800731c <vPortEnterCritical+0x38>
 800731e:	bf00      	nop
 8007320:	20000034 	.word	0x20000034
 8007324:	e000ed04 	.word	0xe000ed04

08007328 <vPortExitCritical>:
 8007328:	4a08      	ldr	r2, [pc, #32]	; (800734c <vPortExitCritical+0x24>)
 800732a:	6813      	ldr	r3, [r2, #0]
 800732c:	b943      	cbnz	r3, 8007340 <vPortExitCritical+0x18>
 800732e:	f04f 0350 	mov.w	r3, #80	; 0x50
 8007332:	f383 8811 	msr	BASEPRI, r3
 8007336:	f3bf 8f6f 	isb	sy
 800733a:	f3bf 8f4f 	dsb	sy
 800733e:	e7fe      	b.n	800733e <vPortExitCritical+0x16>
 8007340:	3b01      	subs	r3, #1
 8007342:	6013      	str	r3, [r2, #0]
 8007344:	b90b      	cbnz	r3, 800734a <vPortExitCritical+0x22>
 8007346:	f383 8811 	msr	BASEPRI, r3
 800734a:	4770      	bx	lr
 800734c:	20000034 	.word	0x20000034

08007350 <PendSV_Handler>:
 8007350:	f3ef 8009 	mrs	r0, PSP
 8007354:	f3bf 8f6f 	isb	sy
 8007358:	4b0d      	ldr	r3, [pc, #52]	; (8007390 <pxCurrentTCBConst>)
 800735a:	681a      	ldr	r2, [r3, #0]
 800735c:	e920 0ff0 	stmdb	r0!, {r4, r5, r6, r7, r8, r9, sl, fp}
 8007360:	6010      	str	r0, [r2, #0]
 8007362:	e92d 4008 	stmdb	sp!, {r3, lr}
 8007366:	f04f 0050 	mov.w	r0, #80	; 0x50
 800736a:	f380 8811 	msr	BASEPRI, r0
 800736e:	f7ff f879 	bl	8006464 <vTaskSwitchContext>
 8007372:	f04f 0000 	mov.w	r0, #0
 8007376:	f380 8811 	msr	BASEPRI, r0
 800737a:	e8bd 4008 	ldmia.w	sp!, {r3, lr}
 800737e:	6819      	ldr	r1, [r3, #0]
 8007380:	6808      	ldr	r0, [r1, #0]
 8007382:	e8b0 0ff0 	ldmia.w	r0!, {r4, r5, r6, r7, r8, r9, sl, fp}
 8007386:	f380 8809 	msr	PSP, r0
 800738a:	f3bf 8f6f 	isb	sy
 800738e:	4770      	bx	lr

08007390 <pxCurrentTCBConst>:
 8007390:	20000438 	.word	0x20000438

08007394 <SysTick_Handler>:
 8007394:	b508      	push	{r3, lr}
 8007396:	f04f 0350 	mov.w	r3, #80	; 0x50
 800739a:	f383 8811 	msr	BASEPRI, r3
 800739e:	f3bf 8f6f 	isb	sy
 80073a2:	f3bf 8f4f 	dsb	sy
 80073a6:	f7fe feb9 	bl	800611c <xTaskIncrementTick>
 80073aa:	b118      	cbz	r0, 80073b4 <SysTick_Handler+0x20>
 80073ac:	f04f 5280 	mov.w	r2, #268435456	; 0x10000000
 80073b0:	4b02      	ldr	r3, [pc, #8]	; (80073bc <SysTick_Handler+0x28>)
 80073b2:	601a      	str	r2, [r3, #0]
 80073b4:	2300      	movs	r3, #0
 80073b6:	f383 8811 	msr	BASEPRI, r3
 80073ba:	bd08      	pop	{r3, pc}
 80073bc:	e000ed04 	.word	0xe000ed04

080073c0 <vPortSetupTimerInterrupt>:
 80073c0:	2300      	movs	r3, #0
 80073c2:	2107      	movs	r1, #7
 80073c4:	b410      	push	{r4}
 80073c6:	4a08      	ldr	r2, [pc, #32]	; (80073e8 <vPortSetupTimerInterrupt+0x28>)
 80073c8:	4c08      	ldr	r4, [pc, #32]	; (80073ec <vPortSetupTimerInterrupt+0x2c>)
 80073ca:	4809      	ldr	r0, [pc, #36]	; (80073f0 <vPortSetupTimerInterrupt+0x30>)
 80073cc:	6013      	str	r3, [r2, #0]
 80073ce:	6023      	str	r3, [r4, #0]
 80073d0:	6803      	ldr	r3, [r0, #0]
 80073d2:	4c08      	ldr	r4, [pc, #32]	; (80073f4 <vPortSetupTimerInterrupt+0x34>)
 80073d4:	4808      	ldr	r0, [pc, #32]	; (80073f8 <vPortSetupTimerInterrupt+0x38>)
 80073d6:	fba4 4303 	umull	r4, r3, r4, r3
 80073da:	099b      	lsrs	r3, r3, #6
 80073dc:	3b01      	subs	r3, #1
 80073de:	6003      	str	r3, [r0, #0]
 80073e0:	bc10      	pop	{r4}
 80073e2:	6011      	str	r1, [r2, #0]
 80073e4:	4770      	bx	lr
 80073e6:	bf00      	nop
 80073e8:	e000e010 	.word	0xe000e010
 80073ec:	e000e018 	.word	0xe000e018
 80073f0:	20000028 	.word	0x20000028
 80073f4:	10624dd3 	.word	0x10624dd3
 80073f8:	e000e014 	.word	0xe000e014

080073fc <xPortStartScheduler>:
 80073fc:	b530      	push	{r4, r5, lr}
 80073fe:	25ff      	movs	r5, #255	; 0xff
 8007400:	2407      	movs	r4, #7
 8007402:	4b32      	ldr	r3, [pc, #200]	; (80074cc <xPortStartScheduler+0xd0>)
 8007404:	b085      	sub	sp, #20
 8007406:	781a      	ldrb	r2, [r3, #0]
 8007408:	4831      	ldr	r0, [pc, #196]	; (80074d0 <xPortStartScheduler+0xd4>)
 800740a:	b2d2      	uxtb	r2, r2
 800740c:	9202      	str	r2, [sp, #8]
 800740e:	701d      	strb	r5, [r3, #0]
 8007410:	781b      	ldrb	r3, [r3, #0]
 8007412:	4930      	ldr	r1, [pc, #192]	; (80074d4 <xPortStartScheduler+0xd8>)
 8007414:	b2db      	uxtb	r3, r3
 8007416:	f88d 3007 	strb.w	r3, [sp, #7]
 800741a:	f89d 3007 	ldrb.w	r3, [sp, #7]
 800741e:	f89d 2007 	ldrb.w	r2, [sp, #7]
 8007422:	f003 0350 	and.w	r3, r3, #80	; 0x50
 8007426:	0612      	lsls	r2, r2, #24
 8007428:	bf48      	it	mi
 800742a:	2206      	movmi	r2, #6
 800742c:	600c      	str	r4, [r1, #0]
 800742e:	7003      	strb	r3, [r0, #0]
 8007430:	d50e      	bpl.n	8007450 <xPortStartScheduler+0x54>
 8007432:	f89d 3007 	ldrb.w	r3, [sp, #7]
 8007436:	4610      	mov	r0, r2
 8007438:	005b      	lsls	r3, r3, #1
 800743a:	b2db      	uxtb	r3, r3
 800743c:	f88d 3007 	strb.w	r3, [sp, #7]
 8007440:	f89d 3007 	ldrb.w	r3, [sp, #7]
 8007444:	3a01      	subs	r2, #1
 8007446:	061b      	lsls	r3, r3, #24
 8007448:	d4f3      	bmi.n	8007432 <xPortStartScheduler+0x36>
 800744a:	2803      	cmp	r0, #3
 800744c:	d009      	beq.n	8007462 <xPortStartScheduler+0x66>
 800744e:	6008      	str	r0, [r1, #0]
 8007450:	f04f 0350 	mov.w	r3, #80	; 0x50
 8007454:	f383 8811 	msr	BASEPRI, r3
 8007458:	f3bf 8f6f 	isb	sy
 800745c:	f3bf 8f4f 	dsb	sy
 8007460:	e7fe      	b.n	8007460 <xPortStartScheduler+0x64>
 8007462:	f44f 7540 	mov.w	r5, #768	; 0x300
 8007466:	2400      	movs	r4, #0
 8007468:	9a02      	ldr	r2, [sp, #8]
 800746a:	4818      	ldr	r0, [pc, #96]	; (80074cc <xPortStartScheduler+0xd0>)
 800746c:	4b1a      	ldr	r3, [pc, #104]	; (80074d8 <xPortStartScheduler+0xdc>)
 800746e:	b2d2      	uxtb	r2, r2
 8007470:	600d      	str	r5, [r1, #0]
 8007472:	7002      	strb	r2, [r0, #0]
 8007474:	681a      	ldr	r2, [r3, #0]
 8007476:	4d19      	ldr	r5, [pc, #100]	; (80074dc <xPortStartScheduler+0xe0>)
 8007478:	f442 0270 	orr.w	r2, r2, #15728640	; 0xf00000
 800747c:	601a      	str	r2, [r3, #0]
 800747e:	681a      	ldr	r2, [r3, #0]
 8007480:	f042 4270 	orr.w	r2, r2, #4026531840	; 0xf0000000
 8007484:	601a      	str	r2, [r3, #0]
 8007486:	f7ff ff9b 	bl	80073c0 <vPortSetupTimerInterrupt>
 800748a:	602c      	str	r4, [r5, #0]
 800748c:	f7ff fed4 	bl	8007238 <prvPortStartFirstTask>
 8007490:	f7fe ffe8 	bl	8006464 <vTaskSwitchContext>
 8007494:	682b      	ldr	r3, [r5, #0]
 8007496:	9403      	str	r4, [sp, #12]
 8007498:	3301      	adds	r3, #1
 800749a:	d008      	beq.n	80074ae <xPortStartScheduler+0xb2>
 800749c:	f04f 0350 	mov.w	r3, #80	; 0x50
 80074a0:	f383 8811 	msr	BASEPRI, r3
 80074a4:	f3bf 8f6f 	isb	sy
 80074a8:	f3bf 8f4f 	dsb	sy
 80074ac:	e7fe      	b.n	80074ac <xPortStartScheduler+0xb0>
 80074ae:	f04f 0350 	mov.w	r3, #80	; 0x50
 80074b2:	f383 8811 	msr	BASEPRI, r3
 80074b6:	f3bf 8f6f 	isb	sy
 80074ba:	f3bf 8f4f 	dsb	sy
 80074be:	9b03      	ldr	r3, [sp, #12]
 80074c0:	2b00      	cmp	r3, #0
 80074c2:	d0fc      	beq.n	80074be <xPortStartScheduler+0xc2>
 80074c4:	2000      	movs	r0, #0
 80074c6:	b005      	add	sp, #20
 80074c8:	bd30      	pop	{r4, r5, pc}
 80074ca:	bf00      	nop
 80074cc:	e000e400 	.word	0xe000e400
 80074d0:	20000a60 	.word	0x20000a60
 80074d4:	20000a64 	.word	0x20000a64
 80074d8:	e000ed20 	.word	0xe000ed20
 80074dc:	20000034 	.word	0x20000034

080074e0 <vPortValidateInterruptPriority>:
 80074e0:	f3ef 8305 	mrs	r3, IPSR
 80074e4:	2b0f      	cmp	r3, #15
 80074e6:	d90e      	bls.n	8007506 <vPortValidateInterruptPriority+0x26>
 80074e8:	4910      	ldr	r1, [pc, #64]	; (800752c <vPortValidateInterruptPriority+0x4c>)
 80074ea:	4a11      	ldr	r2, [pc, #68]	; (8007530 <vPortValidateInterruptPriority+0x50>)
 80074ec:	5c5b      	ldrb	r3, [r3, r1]
 80074ee:	7812      	ldrb	r2, [r2, #0]
 80074f0:	429a      	cmp	r2, r3
 80074f2:	d908      	bls.n	8007506 <vPortValidateInterruptPriority+0x26>
 80074f4:	f04f 0350 	mov.w	r3, #80	; 0x50
 80074f8:	f383 8811 	msr	BASEPRI, r3
 80074fc:	f3bf 8f6f 	isb	sy
 8007500:	f3bf 8f4f 	dsb	sy
 8007504:	e7fe      	b.n	8007504 <vPortValidateInterruptPriority+0x24>
 8007506:	4b0b      	ldr	r3, [pc, #44]	; (8007534 <vPortValidateInterruptPriority+0x54>)
 8007508:	4a0b      	ldr	r2, [pc, #44]	; (8007538 <vPortValidateInterruptPriority+0x58>)
 800750a:	681b      	ldr	r3, [r3, #0]
 800750c:	6812      	ldr	r2, [r2, #0]
 800750e:	f403 63e0 	and.w	r3, r3, #1792	; 0x700
 8007512:	4293      	cmp	r3, r2
 8007514:	d908      	bls.n	8007528 <vPortValidateInterruptPriority+0x48>
 8007516:	f04f 0350 	mov.w	r3, #80	; 0x50
 800751a:	f383 8811 	msr	BASEPRI, r3
 800751e:	f3bf 8f6f 	isb	sy
 8007522:	f3bf 8f4f 	dsb	sy
 8007526:	e7fe      	b.n	8007526 <vPortValidateInterruptPriority+0x46>
 8007528:	4770      	bx	lr
 800752a:	bf00      	nop
 800752c:	e000e3f0 	.word	0xe000e3f0
 8007530:	20000a60 	.word	0x20000a60
 8007534:	e000ed0c 	.word	0xe000ed0c
 8007538:	20000a64 	.word	0x20000a64

0800753c <pvPortMalloc>:
 800753c:	e92d 41f0 	stmdb	sp!, {r4, r5, r6, r7, r8, lr}
 8007540:	4e54      	ldr	r6, [pc, #336]	; (8007694 <pvPortMalloc+0x158>)
 8007542:	4605      	mov	r5, r0
 8007544:	f7fe fddc 	bl	8006100 <vTaskSuspendAll>
 8007548:	6832      	ldr	r2, [r6, #0]
 800754a:	2a00      	cmp	r2, #0
 800754c:	d03c      	beq.n	80075c8 <pvPortMalloc+0x8c>
 800754e:	4b52      	ldr	r3, [pc, #328]	; (8007698 <pvPortMalloc+0x15c>)
 8007550:	681f      	ldr	r7, [r3, #0]
 8007552:	423d      	tst	r5, r7
 8007554:	d130      	bne.n	80075b8 <pvPortMalloc+0x7c>
 8007556:	b37d      	cbz	r5, 80075b8 <pvPortMalloc+0x7c>
 8007558:	f105 0408 	add.w	r4, r5, #8
 800755c:	076d      	lsls	r5, r5, #29
 800755e:	bf1c      	itt	ne
 8007560:	f024 0407 	bicne.w	r4, r4, #7
 8007564:	3408      	addne	r4, #8
 8007566:	b33c      	cbz	r4, 80075b8 <pvPortMalloc+0x7c>
 8007568:	f8df c13c 	ldr.w	ip, [pc, #316]	; 80076a8 <pvPortMalloc+0x16c>
 800756c:	f8dc 5000 	ldr.w	r5, [ip]
 8007570:	42a5      	cmp	r5, r4
 8007572:	d321      	bcc.n	80075b8 <pvPortMalloc+0x7c>
 8007574:	4b49      	ldr	r3, [pc, #292]	; (800769c <pvPortMalloc+0x160>)
 8007576:	6819      	ldr	r1, [r3, #0]
 8007578:	e003      	b.n	8007582 <pvPortMalloc+0x46>
 800757a:	680e      	ldr	r6, [r1, #0]
 800757c:	b126      	cbz	r6, 8007588 <pvPortMalloc+0x4c>
 800757e:	460b      	mov	r3, r1
 8007580:	4631      	mov	r1, r6
 8007582:	6848      	ldr	r0, [r1, #4]
 8007584:	42a0      	cmp	r0, r4
 8007586:	d3f8      	bcc.n	800757a <pvPortMalloc+0x3e>
 8007588:	4291      	cmp	r1, r2
 800758a:	d015      	beq.n	80075b8 <pvPortMalloc+0x7c>
 800758c:	460e      	mov	r6, r1
 800758e:	eba0 0e04 	sub.w	lr, r0, r4
 8007592:	f856 8b08 	ldr.w	r8, [r6], #8
 8007596:	f1be 0f10 	cmp.w	lr, #16
 800759a:	f8c3 8000 	str.w	r8, [r3]
 800759e:	d94c      	bls.n	800763a <pvPortMalloc+0xfe>
 80075a0:	190b      	adds	r3, r1, r4
 80075a2:	0758      	lsls	r0, r3, #29
 80075a4:	d030      	beq.n	8007608 <pvPortMalloc+0xcc>
 80075a6:	f04f 0350 	mov.w	r3, #80	; 0x50
 80075aa:	f383 8811 	msr	BASEPRI, r3
 80075ae:	f3bf 8f6f 	isb	sy
 80075b2:	f3bf 8f4f 	dsb	sy
 80075b6:	e7fe      	b.n	80075b6 <pvPortMalloc+0x7a>
 80075b8:	f7fe feee 	bl	8006398 <xTaskResumeAll>
 80075bc:	2600      	movs	r6, #0
 80075be:	f7f8 ffff 	bl	80005c0 <vApplicationMallocFailedHook>
 80075c2:	4630      	mov	r0, r6
 80075c4:	e8bd 81f0 	ldmia.w	sp!, {r4, r5, r6, r7, r8, pc}
 80075c8:	4b35      	ldr	r3, [pc, #212]	; (80076a0 <pvPortMalloc+0x164>)
 80075ca:	075f      	lsls	r7, r3, #29
 80075cc:	d14e      	bne.n	800766c <pvPortMalloc+0x130>
 80075ce:	4619      	mov	r1, r3
 80075d0:	4a34      	ldr	r2, [pc, #208]	; (80076a4 <pvPortMalloc+0x168>)
 80075d2:	f04f 4400 	mov.w	r4, #2147483648	; 0x80000000
 80075d6:	2000      	movs	r0, #0
 80075d8:	3a08      	subs	r2, #8
 80075da:	f022 0207 	bic.w	r2, r2, #7
 80075de:	6032      	str	r2, [r6, #0]
 80075e0:	f8df c0c8 	ldr.w	ip, [pc, #200]	; 80076ac <pvPortMalloc+0x170>
 80075e4:	4e30      	ldr	r6, [pc, #192]	; (80076a8 <pvPortMalloc+0x16c>)
 80075e6:	1ad3      	subs	r3, r2, r3
 80075e8:	f8cc 3000 	str.w	r3, [ip]
 80075ec:	6033      	str	r3, [r6, #0]
 80075ee:	f8df c0a8 	ldr.w	ip, [pc, #168]	; 8007698 <pvPortMalloc+0x15c>
 80075f2:	4e2a      	ldr	r6, [pc, #168]	; (800769c <pvPortMalloc+0x160>)
 80075f4:	4627      	mov	r7, r4
 80075f6:	e9c6 1000 	strd	r1, r0, [r6]
 80075fa:	f8cc 4000 	str.w	r4, [ip]
 80075fe:	e9c2 0000 	strd	r0, r0, [r2]
 8007602:	e9c1 2300 	strd	r2, r3, [r1]
 8007606:	e7a4      	b.n	8007552 <pvPortMalloc+0x16>
 8007608:	4824      	ldr	r0, [pc, #144]	; (800769c <pvPortMalloc+0x160>)
 800760a:	f8c3 e004 	str.w	lr, [r3, #4]
 800760e:	604c      	str	r4, [r1, #4]
 8007610:	4686      	mov	lr, r0
 8007612:	6800      	ldr	r0, [r0, #0]
 8007614:	4283      	cmp	r3, r0
 8007616:	d8fb      	bhi.n	8007610 <pvPortMalloc+0xd4>
 8007618:	f8de 4004 	ldr.w	r4, [lr, #4]
 800761c:	eb0e 0804 	add.w	r8, lr, r4
 8007620:	4543      	cmp	r3, r8
 8007622:	d029      	beq.n	8007678 <pvPortMalloc+0x13c>
 8007624:	685c      	ldr	r4, [r3, #4]
 8007626:	eb03 0804 	add.w	r8, r3, r4
 800762a:	4540      	cmp	r0, r8
 800762c:	d02b      	beq.n	8007686 <pvPortMalloc+0x14a>
 800762e:	6018      	str	r0, [r3, #0]
 8007630:	459e      	cmp	lr, r3
 8007632:	6848      	ldr	r0, [r1, #4]
 8007634:	bf18      	it	ne
 8007636:	f8ce 3000 	strne.w	r3, [lr]
 800763a:	2300      	movs	r3, #0
 800763c:	4a1b      	ldr	r2, [pc, #108]	; (80076ac <pvPortMalloc+0x170>)
 800763e:	1a2d      	subs	r5, r5, r0
 8007640:	6814      	ldr	r4, [r2, #0]
 8007642:	4338      	orrs	r0, r7
 8007644:	42a5      	cmp	r5, r4
 8007646:	e9c1 3000 	strd	r3, r0, [r1]
 800764a:	bf38      	it	cc
 800764c:	6015      	strcc	r5, [r2, #0]
 800764e:	f8cc 5000 	str.w	r5, [ip]
 8007652:	f7fe fea1 	bl	8006398 <xTaskResumeAll>
 8007656:	0773      	lsls	r3, r6, #29
 8007658:	d0b3      	beq.n	80075c2 <pvPortMalloc+0x86>
 800765a:	f04f 0350 	mov.w	r3, #80	; 0x50
 800765e:	f383 8811 	msr	BASEPRI, r3
 8007662:	f3bf 8f6f 	isb	sy
 8007666:	f3bf 8f4f 	dsb	sy
 800766a:	e7fe      	b.n	800766a <pvPortMalloc+0x12e>
 800766c:	3307      	adds	r3, #7
 800766e:	f023 0307 	bic.w	r3, r3, #7
 8007672:	4619      	mov	r1, r3
 8007674:	4a0b      	ldr	r2, [pc, #44]	; (80076a4 <pvPortMalloc+0x168>)
 8007676:	e7ac      	b.n	80075d2 <pvPortMalloc+0x96>
 8007678:	f8d3 8004 	ldr.w	r8, [r3, #4]
 800767c:	4673      	mov	r3, lr
 800767e:	4444      	add	r4, r8
 8007680:	f8ce 4004 	str.w	r4, [lr, #4]
 8007684:	e7cf      	b.n	8007626 <pvPortMalloc+0xea>
 8007686:	4290      	cmp	r0, r2
 8007688:	d0d1      	beq.n	800762e <pvPortMalloc+0xf2>
 800768a:	c805      	ldmia	r0, {r0, r2}
 800768c:	4414      	add	r4, r2
 800768e:	e9c3 0400 	strd	r0, r4, [r3]
 8007692:	e7cd      	b.n	8007630 <pvPortMalloc+0xf4>
 8007694:	20000a68 	.word	0x20000a68
 8007698:	2000411c 	.word	0x2000411c
 800769c:	20004128 	.word	0x20004128
 80076a0:	20000a6c 	.word	0x20000a6c
 80076a4:	2000411c 	.word	0x2000411c
 80076a8:	20004120 	.word	0x20004120
 80076ac:	20004124 	.word	0x20004124

080076b0 <vPortFree>:
 80076b0:	b1e0      	cbz	r0, 80076ec <vPortFree+0x3c>
 80076b2:	4a26      	ldr	r2, [pc, #152]	; (800774c <vPortFree+0x9c>)
 80076b4:	b538      	push	{r3, r4, r5, lr}
 80076b6:	6812      	ldr	r2, [r2, #0]
 80076b8:	f850 3c04 	ldr.w	r3, [r0, #-4]
 80076bc:	4604      	mov	r4, r0
 80076be:	4213      	tst	r3, r2
 80076c0:	d00b      	beq.n	80076da <vPortFree+0x2a>
 80076c2:	f850 1c08 	ldr.w	r1, [r0, #-8]
 80076c6:	b191      	cbz	r1, 80076ee <vPortFree+0x3e>
 80076c8:	f04f 0350 	mov.w	r3, #80	; 0x50
 80076cc:	f383 8811 	msr	BASEPRI, r3
 80076d0:	f3bf 8f6f 	isb	sy
 80076d4:	f3bf 8f4f 	dsb	sy
 80076d8:	e7fe      	b.n	80076d8 <vPortFree+0x28>
 80076da:	f04f 0350 	mov.w	r3, #80	; 0x50
 80076de:	f383 8811 	msr	BASEPRI, r3
 80076e2:	f3bf 8f6f 	isb	sy
 80076e6:	f3bf 8f4f 	dsb	sy
 80076ea:	e7fe      	b.n	80076ea <vPortFree+0x3a>
 80076ec:	4770      	bx	lr
 80076ee:	ea23 0302 	bic.w	r3, r3, r2
 80076f2:	f840 3c04 	str.w	r3, [r0, #-4]
 80076f6:	f7fe fd03 	bl	8006100 <vTaskSuspendAll>
 80076fa:	4915      	ldr	r1, [pc, #84]	; (8007750 <vPortFree+0xa0>)
 80076fc:	f854 0c04 	ldr.w	r0, [r4, #-4]
 8007700:	680b      	ldr	r3, [r1, #0]
 8007702:	4a14      	ldr	r2, [pc, #80]	; (8007754 <vPortFree+0xa4>)
 8007704:	4403      	add	r3, r0
 8007706:	600b      	str	r3, [r1, #0]
 8007708:	f1a4 0308 	sub.w	r3, r4, #8
 800770c:	4611      	mov	r1, r2
 800770e:	6812      	ldr	r2, [r2, #0]
 8007710:	4293      	cmp	r3, r2
 8007712:	d8fb      	bhi.n	800770c <vPortFree+0x5c>
 8007714:	684c      	ldr	r4, [r1, #4]
 8007716:	190d      	adds	r5, r1, r4
 8007718:	42ab      	cmp	r3, r5
 800771a:	d00a      	beq.n	8007732 <vPortFree+0x82>
 800771c:	181c      	adds	r4, r3, r0
 800771e:	42a2      	cmp	r2, r4
 8007720:	d00b      	beq.n	800773a <vPortFree+0x8a>
 8007722:	601a      	str	r2, [r3, #0]
 8007724:	4299      	cmp	r1, r3
 8007726:	bf18      	it	ne
 8007728:	600b      	strne	r3, [r1, #0]
 800772a:	e8bd 4038 	ldmia.w	sp!, {r3, r4, r5, lr}
 800772e:	f7fe be33 	b.w	8006398 <xTaskResumeAll>
 8007732:	4420      	add	r0, r4
 8007734:	460b      	mov	r3, r1
 8007736:	6048      	str	r0, [r1, #4]
 8007738:	e7f0      	b.n	800771c <vPortFree+0x6c>
 800773a:	4c07      	ldr	r4, [pc, #28]	; (8007758 <vPortFree+0xa8>)
 800773c:	6824      	ldr	r4, [r4, #0]
 800773e:	42a2      	cmp	r2, r4
 8007740:	d0ef      	beq.n	8007722 <vPortFree+0x72>
 8007742:	ca14      	ldmia	r2, {r2, r4}
 8007744:	4420      	add	r0, r4
 8007746:	e9c3 2000 	strd	r2, r0, [r3]
 800774a:	e7eb      	b.n	8007724 <vPortFree+0x74>
 800774c:	2000411c 	.word	0x2000411c
 8007750:	20004120 	.word	0x20004120
 8007754:	20004128 	.word	0x20004128
 8007758:	20000a68 	.word	0x20000a68

0800775c <xMyArrayCreate>:
 800775c:	b5f8      	push	{r3, r4, r5, r6, r7, lr}
 800775e:	4605      	mov	r5, r0
 8007760:	2010      	movs	r0, #16
 8007762:	460f      	mov	r7, r1
 8007764:	4616      	mov	r6, r2
 8007766:	f7ff fee9 	bl	800753c <pvPortMalloc>
 800776a:	b150      	cbz	r0, 8007782 <xMyArrayCreate+0x26>
 800776c:	4604      	mov	r4, r0
 800776e:	0068      	lsls	r0, r5, #1
 8007770:	f7ff fee4 	bl	800753c <pvPortMalloc>
 8007774:	6020      	str	r0, [r4, #0]
 8007776:	b120      	cbz	r0, 8007782 <xMyArrayCreate+0x26>
 8007778:	4620      	mov	r0, r4
 800777a:	e9c4 5701 	strd	r5, r7, [r4, #4]
 800777e:	60e6      	str	r6, [r4, #12]
 8007780:	bdf8      	pop	{r3, r4, r5, r6, r7, pc}
 8007782:	2400      	movs	r4, #0
 8007784:	4620      	mov	r0, r4
 8007786:	bdf8      	pop	{r3, r4, r5, r6, r7, pc}

08007788 <eMyArraySplit>:
 8007788:	e92d 4ff0 	stmdb	sp!, {r4, r5, r6, r7, r8, r9, sl, fp, lr}
 800778c:	f8d1 a008 	ldr.w	sl, [r1, #8]
 8007790:	f8d0 b008 	ldr.w	fp, [r0, #8]
 8007794:	4605      	mov	r5, r0
 8007796:	eb0a 0002 	add.w	r0, sl, r2
 800779a:	4558      	cmp	r0, fp
 800779c:	b087      	sub	sp, #28
 800779e:	d859      	bhi.n	8007854 <eMyArraySplit+0xcc>
 80077a0:	68ce      	ldr	r6, [r1, #12]
 80077a2:	68e8      	ldr	r0, [r5, #12]
 80077a4:	18f4      	adds	r4, r6, r3
 80077a6:	4284      	cmp	r4, r0
 80077a8:	9602      	str	r6, [sp, #8]
 80077aa:	d853      	bhi.n	8007854 <eMyArraySplit+0xcc>
 80077ac:	2e00      	cmp	r6, #0
 80077ae:	d041      	beq.n	8007834 <eMyArraySplit+0xac>
 80077b0:	f1ba 0f00 	cmp.w	sl, #0
 80077b4:	d03e      	beq.n	8007834 <eMyArraySplit+0xac>
 80077b6:	2400      	movs	r4, #0
 80077b8:	46a1      	mov	r9, r4
 80077ba:	682e      	ldr	r6, [r5, #0]
 80077bc:	fb03 200b 	mla	r0, r3, fp, r2
 80077c0:	ea4f 075a 	mov.w	r7, sl, lsr #1
 80077c4:	eb06 034a 	add.w	r3, r6, sl, lsl #1
 80077c8:	9305      	str	r3, [sp, #20]
 80077ca:	00bb      	lsls	r3, r7, #2
 80077cc:	9304      	str	r3, [sp, #16]
 80077ce:	f10a 33ff 	add.w	r3, sl, #4294967295
 80077d2:	680d      	ldr	r5, [r1, #0]
 80077d4:	9303      	str	r3, [sp, #12]
 80077d6:	f02a 0101 	bic.w	r1, sl, #1
 80077da:	0063      	lsls	r3, r4, #1
 80077dc:	ea4f 0c40 	mov.w	ip, r0, lsl #1
 80077e0:	f103 0e04 	add.w	lr, r3, #4
 80077e4:	f10c 0804 	add.w	r8, ip, #4
 80077e8:	9301      	str	r3, [sp, #4]
 80077ea:	44ae      	add	lr, r5
 80077ec:	44b0      	add	r8, r6
 80077ee:	eb06 0340 	add.w	r3, r6, r0, lsl #1
 80077f2:	eb05 0244 	add.w	r2, r5, r4, lsl #1
 80077f6:	4573      	cmp	r3, lr
 80077f8:	bf38      	it	cc
 80077fa:	4542      	cmpcc	r2, r8
 80077fc:	d31e      	bcc.n	800783c <eMyArraySplit+0xb4>
 80077fe:	9f03      	ldr	r7, [sp, #12]
 8007800:	2f09      	cmp	r7, #9
 8007802:	d91b      	bls.n	800783c <eMyArraySplit+0xb4>
 8007804:	9f04      	ldr	r7, [sp, #16]
 8007806:	eb03 0c07 	add.w	ip, r3, r7
 800780a:	f853 7b04 	ldr.w	r7, [r3], #4
 800780e:	4563      	cmp	r3, ip
 8007810:	f842 7b04 	str.w	r7, [r2], #4
 8007814:	d1f9      	bne.n	800780a <eMyArraySplit+0x82>
 8007816:	458a      	cmp	sl, r1
 8007818:	d005      	beq.n	8007826 <eMyArraySplit+0x9e>
 800781a:	180b      	adds	r3, r1, r0
 800781c:	f836 2013 	ldrh.w	r2, [r6, r3, lsl #1]
 8007820:	190b      	adds	r3, r1, r4
 8007822:	f825 2013 	strh.w	r2, [r5, r3, lsl #1]
 8007826:	9b02      	ldr	r3, [sp, #8]
 8007828:	f109 0901 	add.w	r9, r9, #1
 800782c:	454b      	cmp	r3, r9
 800782e:	4458      	add	r0, fp
 8007830:	4454      	add	r4, sl
 8007832:	d1d2      	bne.n	80077da <eMyArraySplit+0x52>
 8007834:	2000      	movs	r0, #0
 8007836:	b007      	add	sp, #28
 8007838:	e8bd 8ff0 	ldmia.w	sp!, {r4, r5, r6, r7, r8, r9, sl, fp, pc}
 800783c:	9a01      	ldr	r2, [sp, #4]
 800783e:	1e97      	subs	r7, r2, #2
 8007840:	9a05      	ldr	r2, [sp, #20]
 8007842:	442f      	add	r7, r5
 8007844:	4494      	add	ip, r2
 8007846:	f833 2b02 	ldrh.w	r2, [r3], #2
 800784a:	459c      	cmp	ip, r3
 800784c:	f827 2f02 	strh.w	r2, [r7, #2]!
 8007850:	d1f9      	bne.n	8007846 <eMyArraySplit+0xbe>
 8007852:	e7e8      	b.n	8007826 <eMyArraySplit+0x9e>
 8007854:	2002      	movs	r0, #2
 8007856:	b007      	add	sp, #28
 8007858:	e8bd 8ff0 	ldmia.w	sp!, {r4, r5, r6, r7, r8, r9, sl, fp, pc}

0800785c <uMyArrayFindMax>:
 800785c:	6841      	ldr	r1, [r0, #4]
 800785e:	4603      	mov	r3, r0
 8007860:	b169      	cbz	r1, 800787e <uMyArrayFindMax+0x22>
 8007862:	2000      	movs	r0, #0
 8007864:	681b      	ldr	r3, [r3, #0]
 8007866:	eb03 0141 	add.w	r1, r3, r1, lsl #1
 800786a:	3902      	subs	r1, #2
 800786c:	3b02      	subs	r3, #2
 800786e:	f833 2f02 	ldrh.w	r2, [r3, #2]!
 8007872:	4290      	cmp	r0, r2
 8007874:	bf38      	it	cc
 8007876:	4610      	movcc	r0, r2
 8007878:	4299      	cmp	r1, r3
 800787a:	d1f8      	bne.n	800786e <uMyArrayFindMax+0x12>
 800787c:	4770      	bx	lr
 800787e:	4608      	mov	r0, r1
 8007880:	4770      	bx	lr
 8007882:	bf00      	nop

08007884 <Scan_74238>:
 8007884:	e92d 43f8 	stmdb	sp!, {r3, r4, r5, r6, r7, r8, r9, lr}
 8007888:	4603      	mov	r3, r0
 800788a:	4921      	ldr	r1, [pc, #132]	; (8007910 <Scan_74238+0x8c>)
 800788c:	f000 0201 	and.w	r2, r0, #1
 8007890:	f8df 9094 	ldr.w	r9, [pc, #148]	; 8007928 <Scan_74238+0xa4>
 8007894:	f8df 8094 	ldr.w	r8, [pc, #148]	; 800792c <Scan_74238+0xa8>
 8007898:	4c1e      	ldr	r4, [pc, #120]	; (8007914 <Scan_74238+0x90>)
 800789a:	4f1f      	ldr	r7, [pc, #124]	; (8007918 <Scan_74238+0x94>)
 800789c:	4e1f      	ldr	r6, [pc, #124]	; (800791c <Scan_74238+0x98>)
 800789e:	700a      	strb	r2, [r1, #0]
 80078a0:	f3c0 0040 	ubfx	r0, r0, #1, #1
 80078a4:	f3c3 0180 	ubfx	r1, r3, #2, #1
 80078a8:	4d1d      	ldr	r5, [pc, #116]	; (8007920 <Scan_74238+0x9c>)
 80078aa:	f889 0000 	strb.w	r0, [r9]
 80078ae:	f888 1000 	strb.w	r1, [r8]
 80078b2:	f3c3 00c0 	ubfx	r0, r3, #3, #1
 80078b6:	f3c3 1100 	ubfx	r1, r3, #4, #1
 80078ba:	7038      	strb	r0, [r7, #0]
 80078bc:	f3c3 1340 	ubfx	r3, r3, #5, #1
 80078c0:	4620      	mov	r0, r4
 80078c2:	7031      	strb	r1, [r6, #0]
 80078c4:	2104      	movs	r1, #4
 80078c6:	702b      	strb	r3, [r5, #0]
 80078c8:	f7fb fb84 	bl	8002fd4 <HAL_GPIO_WritePin>
 80078cc:	4620      	mov	r0, r4
 80078ce:	f899 2000 	ldrb.w	r2, [r9]
 80078d2:	f44f 5180 	mov.w	r1, #4096	; 0x1000
 80078d6:	f7fb fb7d 	bl	8002fd4 <HAL_GPIO_WritePin>
 80078da:	4620      	mov	r0, r4
 80078dc:	f898 2000 	ldrb.w	r2, [r8]
 80078e0:	f44f 5100 	mov.w	r1, #8192	; 0x2000
 80078e4:	f7fb fb76 	bl	8002fd4 <HAL_GPIO_WritePin>
 80078e8:	4620      	mov	r0, r4
 80078ea:	783a      	ldrb	r2, [r7, #0]
 80078ec:	f44f 4180 	mov.w	r1, #16384	; 0x4000
 80078f0:	f7fb fb70 	bl	8002fd4 <HAL_GPIO_WritePin>
 80078f4:	4620      	mov	r0, r4
 80078f6:	7832      	ldrb	r2, [r6, #0]
 80078f8:	f44f 4100 	mov.w	r1, #32768	; 0x8000
 80078fc:	f7fb fb6a 	bl	8002fd4 <HAL_GPIO_WritePin>
 8007900:	782a      	ldrb	r2, [r5, #0]
 8007902:	f44f 7180 	mov.w	r1, #256	; 0x100
 8007906:	e8bd 43f8 	ldmia.w	sp!, {r3, r4, r5, r6, r7, r8, r9, lr}
 800790a:	4806      	ldr	r0, [pc, #24]	; (8007924 <Scan_74238+0xa0>)
 800790c:	f7fb bb62 	b.w	8002fd4 <HAL_GPIO_WritePin>
 8007910:	20004594 	.word	0x20004594
 8007914:	40010c00 	.word	0x40010c00
 8007918:	20004592 	.word	0x20004592
 800791c:	20004593 	.word	0x20004593
 8007920:	20004591 	.word	0x20004591
 8007924:	40010800 	.word	0x40010800
 8007928:	20004590 	.word	0x20004590
 800792c:	20004595 	.word	0x20004595

08007930 <vServoInit>:
 8007930:	b410      	push	{r4}
 8007932:	e9c0 1202 	strd	r1, r2, [r0, #8]
 8007936:	9c01      	ldr	r4, [sp, #4]
 8007938:	2a0c      	cmp	r2, #12
 800793a:	d80b      	bhi.n	8007954 <vServoInit+0x24>
 800793c:	e8df f002 	tbb	[pc, r2]
 8007940:	0a0a0a0e 	.word	0x0a0a0a0e
 8007944:	0a0a0a15 	.word	0x0a0a0a15
 8007948:	0a0a0a1c 	.word	0x0a0a0a1c
 800794c:	07          	.byte	0x07
 800794d:	00          	.byte	0x00
 800794e:	680a      	ldr	r2, [r1, #0]
 8007950:	3240      	adds	r2, #64	; 0x40
 8007952:	6102      	str	r2, [r0, #16]
 8007954:	e9c0 3405 	strd	r3, r4, [r0, #20]
 8007958:	bc10      	pop	{r4}
 800795a:	4770      	bx	lr
 800795c:	680a      	ldr	r2, [r1, #0]
 800795e:	e9c0 3405 	strd	r3, r4, [r0, #20]
 8007962:	3234      	adds	r2, #52	; 0x34
 8007964:	bc10      	pop	{r4}
 8007966:	6102      	str	r2, [r0, #16]
 8007968:	4770      	bx	lr
 800796a:	680a      	ldr	r2, [r1, #0]
 800796c:	e9c0 3405 	strd	r3, r4, [r0, #20]
 8007970:	3238      	adds	r2, #56	; 0x38
 8007972:	bc10      	pop	{r4}
 8007974:	6102      	str	r2, [r0, #16]
 8007976:	4770      	bx	lr
 8007978:	680a      	ldr	r2, [r1, #0]
 800797a:	e9c0 3405 	strd	r3, r4, [r0, #20]
 800797e:	323c      	adds	r2, #60	; 0x3c
 8007980:	bc10      	pop	{r4}
 8007982:	6102      	str	r2, [r0, #16]
 8007984:	4770      	bx	lr
 8007986:	bf00      	nop

08007988 <vServoStart>:
 8007988:	b510      	push	{r4, lr}
 800798a:	4604      	mov	r4, r0
 800798c:	68c1      	ldr	r1, [r0, #12]
 800798e:	6880      	ldr	r0, [r0, #8]
 8007990:	f7fc f82c 	bl	80039ec <HAL_TIM_PWM_Start>
 8007994:	7963      	ldrb	r3, [r4, #5]
 8007996:	b11b      	cbz	r3, 80079a0 <vServoStart+0x18>
 8007998:	6923      	ldr	r3, [r4, #16]
 800799a:	78e2      	ldrb	r2, [r4, #3]
 800799c:	601a      	str	r2, [r3, #0]
 800799e:	bd10      	pop	{r4, pc}
 80079a0:	6923      	ldr	r3, [r4, #16]
 80079a2:	7922      	ldrb	r2, [r4, #4]
 80079a4:	601a      	str	r2, [r3, #0]
 80079a6:	bd10      	pop	{r4, pc}

080079a8 <vServoMove1>:
 80079a8:	7943      	ldrb	r3, [r0, #5]
 80079aa:	7081      	strb	r1, [r0, #2]
 80079ac:	b90b      	cbnz	r3, 80079b2 <vServoMove1+0xa>
 80079ae:	b949      	cbnz	r1, 80079c4 <vServoMove1+0x1c>
 80079b0:	4770      	bx	lr
 80079b2:	1e4b      	subs	r3, r1, #1
 80079b4:	2b03      	cmp	r3, #3
 80079b6:	d8fa      	bhi.n	80079ae <vServoMove1+0x6>
 80079b8:	e8df f003 	tbb	[pc, r3]
 80079bc:	08140e02 	.word	0x08140e02
 80079c0:	2302      	movs	r3, #2
 80079c2:	7083      	strb	r3, [r0, #2]
 80079c4:	6981      	ldr	r1, [r0, #24]
 80079c6:	6940      	ldr	r0, [r0, #20]
 80079c8:	f7fd b84e 	b.w	8004a68 <osEventFlagsSet>
 80079cc:	2303      	movs	r3, #3
 80079ce:	6981      	ldr	r1, [r0, #24]
 80079d0:	7083      	strb	r3, [r0, #2]
 80079d2:	6940      	ldr	r0, [r0, #20]
 80079d4:	f7fd b848 	b.w	8004a68 <osEventFlagsSet>
 80079d8:	2301      	movs	r3, #1
 80079da:	6981      	ldr	r1, [r0, #24]
 80079dc:	7083      	strb	r3, [r0, #2]
 80079de:	6940      	ldr	r0, [r0, #20]
 80079e0:	f7fd b842 	b.w	8004a68 <osEventFlagsSet>
 80079e4:	2304      	movs	r3, #4
 80079e6:	6981      	ldr	r1, [r0, #24]
 80079e8:	7083      	strb	r3, [r0, #2]
 80079ea:	6940      	ldr	r0, [r0, #20]
 80079ec:	f7fd b83c 	b.w	8004a68 <osEventFlagsSet>

080079f0 <eServoMove>:
 80079f0:	b5f8      	push	{r3, r4, r5, r6, r7, lr}
 80079f2:	4604      	mov	r4, r0
 80079f4:	6981      	ldr	r1, [r0, #24]
 80079f6:	f04f 33ff 	mov.w	r3, #4294967295
 80079fa:	2203      	movs	r2, #3
 80079fc:	6940      	ldr	r0, [r0, #20]
 80079fe:	f7fd f8bf 	bl	8004b80 <osEventFlagsWait>
 8007a02:	6923      	ldr	r3, [r4, #16]
 8007a04:	78a5      	ldrb	r5, [r4, #2]
 8007a06:	6819      	ldr	r1, [r3, #0]
 8007a08:	7820      	ldrb	r0, [r4, #0]
 8007a0a:	78e2      	ldrb	r2, [r4, #3]
 8007a0c:	7926      	ldrb	r6, [r4, #4]
 8007a0e:	b2c9      	uxtb	r1, r1
 8007a10:	2d04      	cmp	r5, #4
 8007a12:	d856      	bhi.n	8007ac2 <eServoMove+0xd2>
 8007a14:	e8df f005 	tbb	[pc, r5]
 8007a18:	3703290f 	.word	0x3703290f
 8007a1c:	18          	.byte	0x18
 8007a1d:	00          	.byte	0x00
 8007a1e:	681f      	ldr	r7, [r3, #0]
 8007a20:	1a3f      	subs	r7, r7, r0
 8007a22:	4297      	cmp	r7, r2
 8007a24:	d33d      	bcc.n	8007aa2 <eServoMove+0xb2>
 8007a26:	681d      	ldr	r5, [r3, #0]
 8007a28:	428a      	cmp	r2, r1
 8007a2a:	eba5 0000 	sub.w	r0, r5, r0
 8007a2e:	6018      	str	r0, [r3, #0]
 8007a30:	d924      	bls.n	8007a7c <eServoMove+0x8c>
 8007a32:	2500      	movs	r5, #0
 8007a34:	601a      	str	r2, [r3, #0]
 8007a36:	e9d4 0105 	ldrd	r0, r1, [r4, #20]
 8007a3a:	f7fd f857 	bl	8004aec <osEventFlagsClear>
 8007a3e:	7860      	ldrb	r0, [r4, #1]
 8007a40:	f7fc ff6c 	bl	800491c <osDelay>
 8007a44:	4628      	mov	r0, r5
 8007a46:	bdf8      	pop	{r3, r4, r5, r6, r7, pc}
 8007a48:	681f      	ldr	r7, [r3, #0]
 8007a4a:	1a3f      	subs	r7, r7, r0
 8007a4c:	4297      	cmp	r7, r2
 8007a4e:	d330      	bcc.n	8007ab2 <eServoMove+0xc2>
 8007a50:	681d      	ldr	r5, [r3, #0]
 8007a52:	428a      	cmp	r2, r1
 8007a54:	eba5 0000 	sub.w	r0, r5, r0
 8007a58:	6018      	str	r0, [r3, #0]
 8007a5a:	d91d      	bls.n	8007a98 <eServoMove+0xa8>
 8007a5c:	2500      	movs	r5, #0
 8007a5e:	601a      	str	r2, [r3, #0]
 8007a60:	7860      	ldrb	r0, [r4, #1]
 8007a62:	f7fc ff5b 	bl	800491c <osDelay>
 8007a66:	4628      	mov	r0, r5
 8007a68:	bdf8      	pop	{r3, r4, r5, r6, r7, pc}
 8007a6a:	681f      	ldr	r7, [r3, #0]
 8007a6c:	4407      	add	r7, r0
 8007a6e:	42b7      	cmp	r7, r6
 8007a70:	d81b      	bhi.n	8007aaa <eServoMove+0xba>
 8007a72:	681d      	ldr	r5, [r3, #0]
 8007a74:	428a      	cmp	r2, r1
 8007a76:	4428      	add	r0, r5
 8007a78:	6018      	str	r0, [r3, #0]
 8007a7a:	d8da      	bhi.n	8007a32 <eServoMove+0x42>
 8007a7c:	428e      	cmp	r6, r1
 8007a7e:	d222      	bcs.n	8007ac6 <eServoMove+0xd6>
 8007a80:	2500      	movs	r5, #0
 8007a82:	601e      	str	r6, [r3, #0]
 8007a84:	e7d7      	b.n	8007a36 <eServoMove+0x46>
 8007a86:	681f      	ldr	r7, [r3, #0]
 8007a88:	4407      	add	r7, r0
 8007a8a:	42b7      	cmp	r7, r6
 8007a8c:	d815      	bhi.n	8007aba <eServoMove+0xca>
 8007a8e:	681d      	ldr	r5, [r3, #0]
 8007a90:	428a      	cmp	r2, r1
 8007a92:	4428      	add	r0, r5
 8007a94:	6018      	str	r0, [r3, #0]
 8007a96:	d8e1      	bhi.n	8007a5c <eServoMove+0x6c>
 8007a98:	428e      	cmp	r6, r1
 8007a9a:	d212      	bcs.n	8007ac2 <eServoMove+0xd2>
 8007a9c:	2500      	movs	r5, #0
 8007a9e:	601e      	str	r6, [r3, #0]
 8007aa0:	e7cd      	b.n	8007a3e <eServoMove+0x4e>
 8007aa2:	2100      	movs	r1, #0
 8007aa4:	601a      	str	r2, [r3, #0]
 8007aa6:	70a1      	strb	r1, [r4, #2]
 8007aa8:	e7c5      	b.n	8007a36 <eServoMove+0x46>
 8007aaa:	2200      	movs	r2, #0
 8007aac:	601e      	str	r6, [r3, #0]
 8007aae:	70a2      	strb	r2, [r4, #2]
 8007ab0:	e7c1      	b.n	8007a36 <eServoMove+0x46>
 8007ab2:	2100      	movs	r1, #0
 8007ab4:	601a      	str	r2, [r3, #0]
 8007ab6:	70a1      	strb	r1, [r4, #2]
 8007ab8:	e7c1      	b.n	8007a3e <eServoMove+0x4e>
 8007aba:	2200      	movs	r2, #0
 8007abc:	601e      	str	r6, [r3, #0]
 8007abe:	70a2      	strb	r2, [r4, #2]
 8007ac0:	e7bd      	b.n	8007a3e <eServoMove+0x4e>
 8007ac2:	2500      	movs	r5, #0
 8007ac4:	e7bb      	b.n	8007a3e <eServoMove+0x4e>
 8007ac6:	2500      	movs	r5, #0
 8007ac8:	e7b5      	b.n	8007a36 <eServoMove+0x46>
 8007aca:	bf00      	nop

08007acc <vServoUpdateCommand>:
 8007acc:	b570      	push	{r4, r5, r6, lr}
 8007ace:	4616      	mov	r6, r2
 8007ad0:	460d      	mov	r5, r1
 8007ad2:	4604      	mov	r4, r0
 8007ad4:	6981      	ldr	r1, [r0, #24]
 8007ad6:	6940      	ldr	r0, [r0, #20]
 8007ad8:	f7fd f808 	bl	8004aec <osEventFlagsClear>
 8007adc:	5dab      	ldrb	r3, [r5, r6]
 8007ade:	4435      	add	r5, r6
 8007ae0:	7023      	strb	r3, [r4, #0]
 8007ae2:	786b      	ldrb	r3, [r5, #1]
 8007ae4:	7962      	ldrb	r2, [r4, #5]
 8007ae6:	7063      	strb	r3, [r4, #1]
 8007ae8:	78ab      	ldrb	r3, [r5, #2]
 8007aea:	70a3      	strb	r3, [r4, #2]
 8007aec:	b90a      	cbnz	r2, 8007af2 <vServoUpdateCommand+0x26>
 8007aee:	b94b      	cbnz	r3, 8007b04 <vServoUpdateCommand+0x38>
 8007af0:	bd70      	pop	{r4, r5, r6, pc}
 8007af2:	1e5a      	subs	r2, r3, #1
 8007af4:	2a03      	cmp	r2, #3
 8007af6:	d8fa      	bhi.n	8007aee <vServoUpdateCommand+0x22>
 8007af8:	e8df f002 	tbb	[pc, r2]
 8007afc:	0a1a1202 	.word	0x0a1a1202
 8007b00:	2302      	movs	r3, #2
 8007b02:	70a3      	strb	r3, [r4, #2]
 8007b04:	e9d4 0105 	ldrd	r0, r1, [r4, #20]
 8007b08:	e8bd 4070 	ldmia.w	sp!, {r4, r5, r6, lr}
 8007b0c:	f7fc bfac 	b.w	8004a68 <osEventFlagsSet>
 8007b10:	2303      	movs	r3, #3
 8007b12:	e9d4 0105 	ldrd	r0, r1, [r4, #20]
 8007b16:	70a3      	strb	r3, [r4, #2]
 8007b18:	e8bd 4070 	ldmia.w	sp!, {r4, r5, r6, lr}
 8007b1c:	f7fc bfa4 	b.w	8004a68 <osEventFlagsSet>
 8007b20:	2301      	movs	r3, #1
 8007b22:	e9d4 0105 	ldrd	r0, r1, [r4, #20]
 8007b26:	70a3      	strb	r3, [r4, #2]
 8007b28:	e8bd 4070 	ldmia.w	sp!, {r4, r5, r6, lr}
 8007b2c:	f7fc bf9c 	b.w	8004a68 <osEventFlagsSet>
 8007b30:	2304      	movs	r3, #4
 8007b32:	e9d4 0105 	ldrd	r0, r1, [r4, #20]
 8007b36:	70a3      	strb	r3, [r4, #2]
 8007b38:	e8bd 4070 	ldmia.w	sp!, {r4, r5, r6, lr}
 8007b3c:	f7fc bf94 	b.w	8004a68 <osEventFlagsSet>

08007b40 <vServoUpdateSetup>:
 8007b40:	b570      	push	{r4, r5, r6, lr}
 8007b42:	4604      	mov	r4, r0
 8007b44:	460d      	mov	r5, r1
 8007b46:	e9d4 0105 	ldrd	r0, r1, [r4, #20]
 8007b4a:	4616      	mov	r6, r2
 8007b4c:	f7fc ffce 	bl	8004aec <osEventFlagsClear>
 8007b50:	2300      	movs	r3, #0
 8007b52:	70a3      	strb	r3, [r4, #2]
 8007b54:	5dab      	ldrb	r3, [r5, r6]
 8007b56:	4435      	add	r5, r6
 8007b58:	70e3      	strb	r3, [r4, #3]
 8007b5a:	786b      	ldrb	r3, [r5, #1]
 8007b5c:	7123      	strb	r3, [r4, #4]
 8007b5e:	78ab      	ldrb	r3, [r5, #2]
 8007b60:	7163      	strb	r3, [r4, #5]
 8007b62:	bd70      	pop	{r4, r5, r6, pc}

08007b64 <__libc_init_array>:
 8007b64:	b570      	push	{r4, r5, r6, lr}
 8007b66:	2600      	movs	r6, #0
 8007b68:	4d0c      	ldr	r5, [pc, #48]	; (8007b9c <__libc_init_array+0x38>)
 8007b6a:	4c0d      	ldr	r4, [pc, #52]	; (8007ba0 <__libc_init_array+0x3c>)
 8007b6c:	1b64      	subs	r4, r4, r5
 8007b6e:	10a4      	asrs	r4, r4, #2
 8007b70:	42a6      	cmp	r6, r4
 8007b72:	d109      	bne.n	8007b88 <__libc_init_array+0x24>
 8007b74:	f000 f830 	bl	8007bd8 <_init>
 8007b78:	2600      	movs	r6, #0
 8007b7a:	4d0a      	ldr	r5, [pc, #40]	; (8007ba4 <__libc_init_array+0x40>)
 8007b7c:	4c0a      	ldr	r4, [pc, #40]	; (8007ba8 <__libc_init_array+0x44>)
 8007b7e:	1b64      	subs	r4, r4, r5
 8007b80:	10a4      	asrs	r4, r4, #2
 8007b82:	42a6      	cmp	r6, r4
 8007b84:	d105      	bne.n	8007b92 <__libc_init_array+0x2e>
 8007b86:	bd70      	pop	{r4, r5, r6, pc}
 8007b88:	f855 3b04 	ldr.w	r3, [r5], #4
 8007b8c:	4798      	blx	r3
 8007b8e:	3601      	adds	r6, #1
 8007b90:	e7ee      	b.n	8007b70 <__libc_init_array+0xc>
 8007b92:	f855 3b04 	ldr.w	r3, [r5], #4
 8007b96:	4798      	blx	r3
 8007b98:	3601      	adds	r6, #1
 8007b9a:	e7f2      	b.n	8007b82 <__libc_init_array+0x1e>
 8007b9c:	08007fc8 	.word	0x08007fc8
 8007ba0:	08007fc8 	.word	0x08007fc8
 8007ba4:	08007fc8 	.word	0x08007fc8
 8007ba8:	08007fcc 	.word	0x08007fcc

08007bac <memcpy>:
 8007bac:	440a      	add	r2, r1
 8007bae:	4291      	cmp	r1, r2
 8007bb0:	f100 33ff 	add.w	r3, r0, #4294967295
 8007bb4:	d100      	bne.n	8007bb8 <memcpy+0xc>
 8007bb6:	4770      	bx	lr
 8007bb8:	b510      	push	{r4, lr}
 8007bba:	f811 4b01 	ldrb.w	r4, [r1], #1
 8007bbe:	4291      	cmp	r1, r2
 8007bc0:	f803 4f01 	strb.w	r4, [r3, #1]!
 8007bc4:	d1f9      	bne.n	8007bba <memcpy+0xe>
 8007bc6:	bd10      	pop	{r4, pc}

08007bc8 <memset>:
 8007bc8:	4603      	mov	r3, r0
 8007bca:	4402      	add	r2, r0
 8007bcc:	4293      	cmp	r3, r2
 8007bce:	d100      	bne.n	8007bd2 <memset+0xa>
 8007bd0:	4770      	bx	lr
 8007bd2:	f803 1b01 	strb.w	r1, [r3], #1
 8007bd6:	e7f9      	b.n	8007bcc <memset+0x4>

08007bd8 <_init>:
 8007bd8:	b5f8      	push	{r3, r4, r5, r6, r7, lr}
 8007bda:	bf00      	nop
 8007bdc:	bcf8      	pop	{r3, r4, r5, r6, r7}
 8007bde:	bc08      	pop	{r3}
 8007be0:	469e      	mov	lr, r3
 8007be2:	4770      	bx	lr

08007be4 <_fini>:
 8007be4:	b5f8      	push	{r3, r4, r5, r6, r7, lr}
 8007be6:	bf00      	nop
 8007be8:	bcf8      	pop	{r3, r4, r5, r6, r7}
 8007bea:	bc08      	pop	{r3}
 8007bec:	469e      	mov	lr, r3
 8007bee:	4770      	bx	lr
